ARM GAS  C:\Users\atsu\AppData\Local\Temp\ccC8yZ3x.s 			page 1


   1              		.cpu cortex-m0
   2              		.fpu softvfp
   3              		.eabi_attribute 20, 1
   4              		.eabi_attribute 21, 1
   5              		.eabi_attribute 23, 3
   6              		.eabi_attribute 24, 1
   7              		.eabi_attribute 25, 1
   8              		.eabi_attribute 26, 1
   9              		.eabi_attribute 30, 4
  10              		.eabi_attribute 34, 0
  11              		.eabi_attribute 18, 4
  12              		.code	16
  13              		.file	"Client.cpp"
  14              		.text
  15              	.Ltext0:
  16              		.cfi_sections	.debug_frame
  17              		.section	.text._ZN6Client5writeEh,"ax",%progbits
  18              		.align	1
  19              		.global	_ZN6Client5writeEh
  20              		.code	16
  21              		.thumb_func
  22              		.type	_ZN6Client5writeEh, %function
  23              	_ZN6Client5writeEh:
  24              		.fnstart
  25              	.LFB10:
  26              		.file 1 ".\\Client.cpp"
   1:.\Client.cpp  **** extern "C" {
   2:.\Client.cpp  ****   #include "types.h"
   3:.\Client.cpp  ****   #include "w5100.h"
   4:.\Client.cpp  ****   #include "socket.h"
   5:.\Client.cpp  **** }
   6:.\Client.cpp  **** 
   7:.\Client.cpp  **** #include "Ethernet.h"
   8:.\Client.cpp  **** #include "Client.h"
   9:.\Client.cpp  **** #include "Server.h"
  10:.\Client.cpp  **** 
  11:.\Client.cpp  **** Client::Client(uint8_t sock) {
  12:.\Client.cpp  ****   _sock = sock;
  13:.\Client.cpp  **** }
  14:.\Client.cpp  **** 
  15:.\Client.cpp  **** Client::Client(uint8_t *ip, uint16_t port) {
  16:.\Client.cpp  ****   _ip = ip;
  17:.\Client.cpp  ****   _port = port;  
  18:.\Client.cpp  **** }
  19:.\Client.cpp  **** 
  20:.\Client.cpp  **** uint8_t Client::connect() {
  21:.\Client.cpp  ****   _sock = 255;
  22:.\Client.cpp  ****   
  23:.\Client.cpp  ****   for (int i = 0; i < MAX_SOCK_NUM; i++) {
  24:.\Client.cpp  ****     if (getSn_SR(i) == SOCK_CLOSED) {
  25:.\Client.cpp  ****       _sock = i;
  26:.\Client.cpp  ****     }
  27:.\Client.cpp  ****   }
  28:.\Client.cpp  ****   
  29:.\Client.cpp  ****   if (_sock == 255)
  30:.\Client.cpp  ****     return 0;
  31:.\Client.cpp  ****     
ARM GAS  C:\Users\atsu\AppData\Local\Temp\ccC8yZ3x.s 			page 2


  32:.\Client.cpp  ****   // XXX: what port should we connect from?
  33:.\Client.cpp  ****   socket(_sock, Sn_MR_TCP, _port, 0);
  34:.\Client.cpp  ****   
  35:.\Client.cpp  ****   if (!::connect(_sock, _ip, _port))
  36:.\Client.cpp  ****     return 0;
  37:.\Client.cpp  ****     
  38:.\Client.cpp  ****   while (status() != SOCK_ESTABLISHED) {
  39:.\Client.cpp  ****     if (status() == SOCK_CLOSED)
  40:.\Client.cpp  ****       return 0;
  41:.\Client.cpp  ****   }
  42:.\Client.cpp  ****   
  43:.\Client.cpp  ****   return 1;
  44:.\Client.cpp  **** }
  45:.\Client.cpp  **** 
  46:.\Client.cpp  **** void Client::write(uint8_t b) {
  27              		.loc 1 46 0
  28              		.cfi_startproc
  29              	.LVL0:
  30 0000 07B5     		push	{r0, r1, r2, lr}
  31              		.save {r0, r1, r2, lr}
  32              	.LCFI0:
  33              		.cfi_def_cfa_offset 16
  34              		.cfi_offset 0, -16
  35              		.cfi_offset 1, -12
  36              		.cfi_offset 2, -8
  37              		.cfi_offset 14, -4
  38              	.LVL1:
  39              		.loc 1 46 0
  40 0002 6B46     		mov	r3, sp
  41              	.LVL2:
  42 0004 D971     		strb	r1, [r3, #7]
  43 0006 0733     		add	r3, r3, #7
  47:.\Client.cpp  ****   send(_sock, &b, 1);
  44              		.loc 1 47 0
  45 0008 0079     		ldrb	r0, [r0, #4]
  46              	.LVL3:
  47 000a 191C     		mov	r1, r3
  48              	.LVL4:
  49 000c 0122     		mov	r2, #1
  50 000e FFF7FEFF 		bl	send
  51              	.LVL5:
  48:.\Client.cpp  **** }
  52              		.loc 1 48 0
  53              		@ sp needed for prologue
  54 0012 07BD     		pop	{r0, r1, r2, pc}
  55              		.cfi_endproc
  56              	.LFE10:
  57              		.fnend
  58              		.size	_ZN6Client5writeEh, .-_ZN6Client5writeEh
  59              		.section	.text._ZN6ClientC2Eh,"ax",%progbits
  60              		.align	1
  61              		.global	_ZN6ClientC2Eh
  62              		.code	16
  63              		.thumb_func
  64              		.type	_ZN6ClientC2Eh, %function
  65              	_ZN6ClientC2Eh:
  66              		.fnstart
ARM GAS  C:\Users\atsu\AppData\Local\Temp\ccC8yZ3x.s 			page 3


  67              	.LFB4:
  11:.\Client.cpp  **** Client::Client(uint8_t sock) {
  68              		.loc 1 11 0
  69              		.cfi_startproc
  70              	.LVL6:
  71              	.LBB10:
  11:.\Client.cpp  **** Client::Client(uint8_t sock) {
  72              		.loc 1 11 0
  73 0000 054B     		ldr	r3, .L3
  12:.\Client.cpp  ****   _sock = sock;
  74              		.loc 1 12 0
  75 0002 0171     		strb	r1, [r0, #4]
  11:.\Client.cpp  **** Client::Client(uint8_t sock) {
  76              		.loc 1 11 0
  77 0004 0833     		add	r3, r3, #8
  78 0006 1A0A     		lsr	r2, r3, #8
  79 0008 0370     		strb	r3, [r0]
  80 000a 4270     		strb	r2, [r0, #1]
  81 000c 1A0C     		lsr	r2, r3, #16
  82 000e 1B0E     		lsr	r3, r3, #24
  83 0010 8270     		strb	r2, [r0, #2]
  84 0012 C370     		strb	r3, [r0, #3]
  85              	.LBE10:
  13:.\Client.cpp  **** }
  86              		.loc 1 13 0
  87              		@ sp needed for prologue
  88 0014 7047     		bx	lr
  89              	.L4:
  90 0016 C046     		.align	2
  91              	.L3:
  92 0018 00000000 		.word	.LANCHOR0
  93              		.cfi_endproc
  94              	.LFE4:
  95              		.cantunwind
  96              		.fnend
  97              		.size	_ZN6ClientC2Eh, .-_ZN6ClientC2Eh
  98              		.global	_ZN6ClientC1Eh
  99              		.thumb_set _ZN6ClientC1Eh,_ZN6ClientC2Eh
 100              		.section	.text._ZN6ClientC2EPht,"ax",%progbits
 101              		.align	1
 102              		.global	_ZN6ClientC2EPht
 103              		.code	16
 104              		.thumb_func
 105              		.type	_ZN6ClientC2EPht, %function
 106              	_ZN6ClientC2EPht:
 107              		.fnstart
 108              	.LFB7:
  15:.\Client.cpp  **** Client::Client(uint8_t *ip, uint16_t port) {
 109              		.loc 1 15 0
 110              		.cfi_startproc
 111              	.LVL7:
 112              	.LBB11:
 113 0000 0A4B     		ldr	r3, .L6
 114              	.LBE11:
 115 0002 10B5     		push	{r4, lr}
 116              	.LCFI1:
 117              		.cfi_def_cfa_offset 8
ARM GAS  C:\Users\atsu\AppData\Local\Temp\ccC8yZ3x.s 			page 4


 118              		.cfi_offset 4, -8
 119              		.cfi_offset 14, -4
 120              	.LBB12:
  15:.\Client.cpp  **** Client::Client(uint8_t *ip, uint16_t port) {
 121              		.loc 1 15 0
 122 0004 0833     		add	r3, r3, #8
 123 0006 1C0A     		lsr	r4, r3, #8
 124 0008 0370     		strb	r3, [r0]
 125 000a 4470     		strb	r4, [r0, #1]
 126 000c 1C0C     		lsr	r4, r3, #16
 127 000e 1B0E     		lsr	r3, r3, #24
 128 0010 8470     		strb	r4, [r0, #2]
 129 0012 C370     		strb	r3, [r0, #3]
  16:.\Client.cpp  ****   _ip = ip;
 130              		.loc 1 16 0
 131 0014 0C0A     		lsr	r4, r1, #8
 132 0016 0B0C     		lsr	r3, r1, #16
 133 0018 4171     		strb	r1, [r0, #5]
  17:.\Client.cpp  ****   _port = port;  
 134              		.loc 1 17 0
 135 001a 4272     		strb	r2, [r0, #9]
  16:.\Client.cpp  ****   _ip = ip;
 136              		.loc 1 16 0
 137 001c 090E     		lsr	r1, r1, #24
 138              	.LVL8:
  17:.\Client.cpp  ****   _port = port;  
 139              		.loc 1 17 0
 140 001e 120A     		lsr	r2, r2, #8
 141              	.LVL9:
  16:.\Client.cpp  ****   _ip = ip;
 142              		.loc 1 16 0
 143 0020 8471     		strb	r4, [r0, #6]
 144 0022 C371     		strb	r3, [r0, #7]
 145 0024 0172     		strb	r1, [r0, #8]
  17:.\Client.cpp  ****   _port = port;  
 146              		.loc 1 17 0
 147 0026 8272     		strb	r2, [r0, #10]
 148              	.LBE12:
  18:.\Client.cpp  **** }
 149              		.loc 1 18 0
 150              		@ sp needed for prologue
 151 0028 10BD     		pop	{r4, pc}
 152              	.L7:
 153 002a C046     		.align	2
 154              	.L6:
 155 002c 00000000 		.word	.LANCHOR0
 156              		.cfi_endproc
 157              	.LFE7:
 158              		.cantunwind
 159              		.fnend
 160              		.size	_ZN6ClientC2EPht, .-_ZN6ClientC2EPht
 161              		.global	_ZN6ClientC1EPht
 162              		.thumb_set _ZN6ClientC1EPht,_ZN6ClientC2EPht
 163              		.section	.text._ZN6Client9availableEv,"ax",%progbits
 164              		.align	1
 165              		.global	_ZN6Client9availableEv
 166              		.code	16
ARM GAS  C:\Users\atsu\AppData\Local\Temp\ccC8yZ3x.s 			page 5


 167              		.thumb_func
 168              		.type	_ZN6Client9availableEv, %function
 169              	_ZN6Client9availableEv:
 170              		.fnstart
 171              	.LFB11:
  49:.\Client.cpp  **** 
  50:.\Client.cpp  **** int Client::available() {
 172              		.loc 1 50 0
 173              		.cfi_startproc
 174              	.LVL10:
 175 0000 08B5     		push	{r3, lr}
 176              		.save {r3, lr}
 177              	.LCFI2:
 178              		.cfi_def_cfa_offset 8
 179              		.cfi_offset 3, -8
 180              		.cfi_offset 14, -4
  51:.\Client.cpp  ****   return getSn_RX_RSR(_sock);
 181              		.loc 1 51 0
 182 0002 0079     		ldrb	r0, [r0, #4]
 183              	.LVL11:
 184 0004 FFF7FEFF 		bl	getSn_RX_RSR
 185              	.LVL12:
  52:.\Client.cpp  **** }
 186              		.loc 1 52 0
 187              		@ sp needed for prologue
 188 0008 08BD     		pop	{r3, pc}
 189              		.cfi_endproc
 190              	.LFE11:
 191              		.fnend
 192              		.size	_ZN6Client9availableEv, .-_ZN6Client9availableEv
 193              		.section	.text._ZN6Client4readEv,"ax",%progbits
 194              		.align	1
 195              		.global	_ZN6Client4readEv
 196              		.code	16
 197              		.thumb_func
 198              		.type	_ZN6Client4readEv, %function
 199              	_ZN6Client4readEv:
 200              		.fnstart
 201              	.LFB12:
  53:.\Client.cpp  **** 
  54:.\Client.cpp  **** int Client::read() {
 202              		.loc 1 54 0
 203              		.cfi_startproc
 204              	.LVL13:
 205 0000 13B5     		push	{r0, r1, r4, lr}
 206              		.save {r0, r1, r4, lr}
 207              	.LCFI3:
 208              		.cfi_def_cfa_offset 16
 209              		.cfi_offset 0, -16
 210              		.cfi_offset 1, -12
 211              		.cfi_offset 4, -8
 212              		.cfi_offset 14, -4
 213              		.loc 1 54 0
 214 0002 041C     		mov	r4, r0
 215              	.LBB13:
  55:.\Client.cpp  ****   uint8_t b;
  56:.\Client.cpp  ****   if (!available())
ARM GAS  C:\Users\atsu\AppData\Local\Temp\ccC8yZ3x.s 			page 6


 216              		.loc 1 56 0
 217 0004 FFF7FEFF 		bl	_ZN6Client9availableEv
 218              	.LVL14:
 219 0008 0028     		cmp	r0, #0
 220 000a 08D0     		beq	.L11
  57:.\Client.cpp  ****     return -1;
  58:.\Client.cpp  ****   recv(_sock, &b, 1);
 221              		.loc 1 58 0
 222 000c 2079     		ldrb	r0, [r4, #4]
 223 000e 6C46     		mov	r4, sp
 224              	.LVL15:
 225 0010 0734     		add	r4, r4, #7
 226 0012 211C     		mov	r1, r4
 227 0014 0122     		mov	r2, #1
 228 0016 FFF7FEFF 		bl	recv
 229              	.LVL16:
  59:.\Client.cpp  ****   return b;
 230              		.loc 1 59 0
 231 001a 2078     		ldrb	r0, [r4]
 232 001c 01E0     		b	.L10
 233              	.LVL17:
 234              	.L11:
  57:.\Client.cpp  ****     return -1;
 235              		.loc 1 57 0
 236 001e 0120     		mov	r0, #1
 237 0020 4042     		neg	r0, r0
 238              	.LVL18:
 239              	.L10:
 240              	.LBE13:
  60:.\Client.cpp  **** }
 241              		.loc 1 60 0
 242              		@ sp needed for prologue
 243 0022 16BD     		pop	{r1, r2, r4, pc}
 244              		.cfi_endproc
 245              	.LFE12:
 246              		.fnend
 247              		.size	_ZN6Client4readEv, .-_ZN6Client4readEv
 248              		.section	.text._ZN6Client5flushEv,"ax",%progbits
 249              		.align	1
 250              		.global	_ZN6Client5flushEv
 251              		.code	16
 252              		.thumb_func
 253              		.type	_ZN6Client5flushEv, %function
 254              	_ZN6Client5flushEv:
 255              		.fnstart
 256              	.LFB13:
  61:.\Client.cpp  **** 
  62:.\Client.cpp  **** void Client::flush() {
 257              		.loc 1 62 0
 258              		.cfi_startproc
 259              	.LVL19:
 260 0000 10B5     		push	{r4, lr}
 261              		.save {r4, lr}
 262              	.LCFI4:
 263              		.cfi_def_cfa_offset 8
 264              		.cfi_offset 4, -8
 265              		.cfi_offset 14, -4
ARM GAS  C:\Users\atsu\AppData\Local\Temp\ccC8yZ3x.s 			page 7


 266 0002 041C     		mov	r4, r0
 267              	.LVL20:
 268              	.L14:
  63:.\Client.cpp  ****   while (available())
 269              		.loc 1 63 0 discriminator 1
 270 0004 201C     		mov	r0, r4
 271 0006 FFF7FEFF 		bl	_ZN6Client9availableEv
 272              	.LVL21:
 273 000a 0028     		cmp	r0, #0
 274 000c 03D0     		beq	.L16
 275              	.L15:
  64:.\Client.cpp  ****     read();
 276              		.loc 1 64 0
 277 000e 201C     		mov	r0, r4
 278 0010 FFF7FEFF 		bl	_ZN6Client4readEv
 279              	.LVL22:
 280 0014 F6E7     		b	.L14
 281              	.L16:
  65:.\Client.cpp  **** }
 282              		.loc 1 65 0
 283              		@ sp needed for prologue
 284              	.LVL23:
 285 0016 10BD     		pop	{r4, pc}
 286              		.cfi_endproc
 287              	.LFE13:
 288              		.fnend
 289              		.size	_ZN6Client5flushEv, .-_ZN6Client5flushEv
 290              		.section	.text._ZN6Client4stopEv,"ax",%progbits
 291              		.align	1
 292              		.global	_ZN6Client4stopEv
 293              		.code	16
 294              		.thumb_func
 295              		.type	_ZN6Client4stopEv, %function
 296              	_ZN6Client4stopEv:
 297              		.fnstart
 298              	.LFB14:
  66:.\Client.cpp  **** 
  67:.\Client.cpp  **** void Client::stop() {
 299              		.loc 1 67 0
 300              		.cfi_startproc
 301              	.LVL24:
 302 0000 10B5     		push	{r4, lr}
 303              		.save {r4, lr}
 304              	.LCFI5:
 305              		.cfi_def_cfa_offset 8
 306              		.cfi_offset 4, -8
 307              		.cfi_offset 14, -4
 308              		.loc 1 67 0
 309 0002 041C     		mov	r4, r0
  68:.\Client.cpp  ****   close(_sock);
 310              		.loc 1 68 0
 311 0004 0079     		ldrb	r0, [r0, #4]
 312              	.LVL25:
 313 0006 FFF7FEFF 		bl	close
 314              	.LVL26:
  69:.\Client.cpp  ****   disconnect(_sock);
 315              		.loc 1 69 0
ARM GAS  C:\Users\atsu\AppData\Local\Temp\ccC8yZ3x.s 			page 8


 316 000a 2079     		ldrb	r0, [r4, #4]
 317 000c FFF7FEFF 		bl	disconnect
 318              	.LVL27:
  70:.\Client.cpp  ****   EthernetClass::_server_port[_sock] = 0;
 319              		.loc 1 70 0
 320 0010 2279     		ldrb	r2, [r4, #4]
 321 0012 024B     		ldr	r3, .L18
 322 0014 5000     		lsl	r0, r2, #1
 323 0016 0021     		mov	r1, #0
 324 0018 C152     		strh	r1, [r0, r3]
  71:.\Client.cpp  **** }
 325              		.loc 1 71 0
 326              		@ sp needed for prologue
 327              	.LVL28:
 328 001a 10BD     		pop	{r4, pc}
 329              	.L19:
 330              		.align	2
 331              	.L18:
 332 001c 00000000 		.word	_ZN13EthernetClass12_server_portE
 333              		.cfi_endproc
 334              	.LFE14:
 335              		.fnend
 336              		.size	_ZN6Client4stopEv, .-_ZN6Client4stopEv
 337              		.section	.text._ZN6Client6statusEv,"ax",%progbits
 338              		.align	1
 339              		.global	_ZN6Client6statusEv
 340              		.code	16
 341              		.thumb_func
 342              		.type	_ZN6Client6statusEv, %function
 343              	_ZN6Client6statusEv:
 344              		.fnstart
 345              	.LFB16:
  72:.\Client.cpp  **** 
  73:.\Client.cpp  **** uint8_t Client::connected() {
  74:.\Client.cpp  ****   uint8_t s = status();
  75:.\Client.cpp  ****   return !(s == SOCK_LISTEN || s == SOCK_CLOSED || (s == SOCK_CLOSE_WAIT && !available()));
  76:.\Client.cpp  **** }
  77:.\Client.cpp  **** 
  78:.\Client.cpp  **** uint8_t Client::status() {
 346              		.loc 1 78 0
 347              		.cfi_startproc
 348              	.LVL29:
 349 0000 08B5     		push	{r3, lr}
 350              		.save {r3, lr}
 351              	.LCFI6:
 352              		.cfi_def_cfa_offset 8
 353              		.cfi_offset 3, -8
 354              		.cfi_offset 14, -4
  79:.\Client.cpp  ****   return getSn_SR(_sock);
 355              		.loc 1 79 0
 356 0002 0079     		ldrb	r0, [r0, #4]
 357              	.LVL30:
 358 0004 FFF7FEFF 		bl	getSn_SR
 359              	.LVL31:
  80:.\Client.cpp  **** }
 360              		.loc 1 80 0
 361              		@ sp needed for prologue
ARM GAS  C:\Users\atsu\AppData\Local\Temp\ccC8yZ3x.s 			page 9


 362 0008 08BD     		pop	{r3, pc}
 363              		.cfi_endproc
 364              	.LFE16:
 365              		.fnend
 366              		.size	_ZN6Client6statusEv, .-_ZN6Client6statusEv
 367              		.section	.text._ZN6Client9connectedEv,"ax",%progbits
 368              		.align	1
 369              		.global	_ZN6Client9connectedEv
 370              		.code	16
 371              		.thumb_func
 372              		.type	_ZN6Client9connectedEv, %function
 373              	_ZN6Client9connectedEv:
 374              		.fnstart
 375              	.LFB15:
  73:.\Client.cpp  **** uint8_t Client::connected() {
 376              		.loc 1 73 0
 377              		.cfi_startproc
 378              	.LVL32:
 379 0000 10B5     		push	{r4, lr}
 380              		.save {r4, lr}
 381              	.LCFI7:
 382              		.cfi_def_cfa_offset 8
 383              		.cfi_offset 4, -8
 384              		.cfi_offset 14, -4
  73:.\Client.cpp  **** uint8_t Client::connected() {
 385              		.loc 1 73 0
 386 0002 041C     		mov	r4, r0
 387              	.LBB14:
  74:.\Client.cpp  ****   uint8_t s = status();
 388              		.loc 1 74 0
 389 0004 FFF7FEFF 		bl	_ZN6Client6statusEv
 390              	.LVL33:
  75:.\Client.cpp  ****   return !(s == SOCK_LISTEN || s == SOCK_CLOSED || (s == SOCK_CLOSE_WAIT && !available()));
 391              		.loc 1 75 0
 392 0008 0023     		mov	r3, #0
 393 000a 1428     		cmp	r0, #20
 394 000c 0AD0     		beq	.L22
  75:.\Client.cpp  ****   return !(s == SOCK_LISTEN || s == SOCK_CLOSED || (s == SOCK_CLOSE_WAIT && !available()));
 395              		.loc 1 75 0 is_stmt 0 discriminator 1
 396 000e 9842     		cmp	r0, r3
 397 0010 08D0     		beq	.L22
  75:.\Client.cpp  ****   return !(s == SOCK_LISTEN || s == SOCK_CLOSED || (s == SOCK_CLOSE_WAIT && !available()));
 398              		.loc 1 75 0 discriminator 3
 399 0012 0123     		mov	r3, #1
 400 0014 1C28     		cmp	r0, #28
 401 0016 05D1     		bne	.L22
  75:.\Client.cpp  ****   return !(s == SOCK_LISTEN || s == SOCK_CLOSED || (s == SOCK_CLOSE_WAIT && !available()));
 402              		.loc 1 75 0 discriminator 5
 403 0018 201C     		mov	r0, r4
 404              	.LVL34:
 405 001a FFF7FEFF 		bl	_ZN6Client9availableEv
 406              	.LVL35:
 407 001e 031C     		mov	r3, r0
 408 0020 581E     		sub	r0, r3, #1
 409 0022 8341     		sbc	r3, r3, r0
 410              	.L22:
 411              	.LBE14:
ARM GAS  C:\Users\atsu\AppData\Local\Temp\ccC8yZ3x.s 			page 10


  76:.\Client.cpp  **** }
 412              		.loc 1 76 0 is_stmt 1 discriminator 6
 413 0024 181C     		mov	r0, r3
 414              		@ sp needed for prologue
 415              	.LVL36:
 416 0026 10BD     		pop	{r4, pc}
 417              		.cfi_endproc
 418              	.LFE15:
 419              		.fnend
 420              		.size	_ZN6Client9connectedEv, .-_ZN6Client9connectedEv
 421              		.section	.text._ZN6Client7connectEv,"ax",%progbits
 422              		.align	1
 423              		.global	_ZN6Client7connectEv
 424              		.code	16
 425              		.thumb_func
 426              		.type	_ZN6Client7connectEv, %function
 427              	_ZN6Client7connectEv:
 428              		.fnstart
 429              	.LFB9:
  20:.\Client.cpp  **** uint8_t Client::connect() {
 430              		.loc 1 20 0
 431              		.cfi_startproc
 432              	.LVL37:
 433              	.LBB15:
  21:.\Client.cpp  ****   _sock = 255;
 434              		.loc 1 21 0
 435 0000 FF23     		mov	r3, #255
 436              	.LBE15:
  20:.\Client.cpp  **** uint8_t Client::connect() {
 437              		.loc 1 20 0
 438 0002 70B5     		push	{r4, r5, r6, lr}
 439              		.save {r4, r5, r6, lr}
 440              	.LCFI8:
 441              		.cfi_def_cfa_offset 16
 442              		.cfi_offset 4, -16
 443              		.cfi_offset 5, -12
 444              		.cfi_offset 6, -8
 445              		.cfi_offset 14, -4
  20:.\Client.cpp  **** uint8_t Client::connect() {
 446              		.loc 1 20 0
 447 0004 041C     		mov	r4, r0
 448              	.LBB17:
  21:.\Client.cpp  ****   _sock = 255;
 449              		.loc 1 21 0
 450 0006 0371     		strb	r3, [r0, #4]
 451              	.LVL38:
  23:.\Client.cpp  ****   for (int i = 0; i < MAX_SOCK_NUM; i++) {
 452              		.loc 1 23 0
 453 0008 0025     		mov	r5, #0
 454              	.LVL39:
 455              	.L29:
 456              	.LBB16:
  24:.\Client.cpp  ****     if (getSn_SR(i) == SOCK_CLOSED) {
 457              		.loc 1 24 0
 458 000a EEB2     		uxtb	r6, r5
 459 000c 301C     		mov	r0, r6
 460 000e FFF7FEFF 		bl	getSn_SR
ARM GAS  C:\Users\atsu\AppData\Local\Temp\ccC8yZ3x.s 			page 11


 461              	.LVL40:
 462 0012 0028     		cmp	r0, #0
 463 0014 00D1     		bne	.L28
  25:.\Client.cpp  ****       _sock = i;
 464              		.loc 1 25 0
 465 0016 2671     		strb	r6, [r4, #4]
 466              	.L28:
  23:.\Client.cpp  ****   for (int i = 0; i < MAX_SOCK_NUM; i++) {
 467              		.loc 1 23 0
 468 0018 0135     		add	r5, r5, #1
 469              	.LVL41:
 470 001a 042D     		cmp	r5, #4
 471 001c F5D1     		bne	.L29
 472              	.LBE16:
  29:.\Client.cpp  ****   if (_sock == 255)
 473              		.loc 1 29 0
 474 001e 2079     		ldrb	r0, [r4, #4]
 475 0020 FF28     		cmp	r0, #255
 476 0022 01D1     		bne	.L30
 477              	.LVL42:
 478              	.L32:
  30:.\Client.cpp  ****     return 0;
 479              		.loc 1 30 0
 480 0024 0020     		mov	r0, #0
 481 0026 24E0     		b	.L31
 482              	.LVL43:
 483              	.L30:
  33:.\Client.cpp  ****   socket(_sock, Sn_MR_TCP, _port, 0);
 484              		.loc 1 33 0
 485 0028 A27A     		ldrb	r2, [r4, #10]
 486 002a 617A     		ldrb	r1, [r4, #9]
 487 002c 1202     		lsl	r2, r2, #8
 488 002e 0A43     		orr	r2, r1
 489 0030 0023     		mov	r3, #0
 490 0032 0121     		mov	r1, #1
 491 0034 FFF7FEFF 		bl	socket
 492              	.LVL44:
  35:.\Client.cpp  ****   if (!::connect(_sock, _ip, _port))
 493              		.loc 1 35 0
 494 0038 A579     		ldrb	r5, [r4, #6]
 495              	.LVL45:
 496 003a 6379     		ldrb	r3, [r4, #5]
 497 003c E679     		ldrb	r6, [r4, #7]
 498 003e 2902     		lsl	r1, r5, #8
 499 0040 3204     		lsl	r2, r6, #16
 500 0042 1943     		orr	r1, r3
 501 0044 1143     		orr	r1, r2
 502 0046 237A     		ldrb	r3, [r4, #8]
 503 0048 A27A     		ldrb	r2, [r4, #10]
 504 004a 667A     		ldrb	r6, [r4, #9]
 505 004c 1D06     		lsl	r5, r3, #24
 506 004e 1202     		lsl	r2, r2, #8
 507 0050 2079     		ldrb	r0, [r4, #4]
 508 0052 2943     		orr	r1, r5
 509 0054 3243     		orr	r2, r6
 510 0056 FFF7FEFF 		bl	connect
 511              	.LVL46:
ARM GAS  C:\Users\atsu\AppData\Local\Temp\ccC8yZ3x.s 			page 12


 512              	.L43:
  39:.\Client.cpp  ****     if (status() == SOCK_CLOSED)
 513              		.loc 1 39 0
 514 005a 0028     		cmp	r0, #0
 515 005c E2D0     		beq	.L32
 516              	.L42:
  38:.\Client.cpp  ****   while (status() != SOCK_ESTABLISHED) {
 517              		.loc 1 38 0
 518 005e 201C     		mov	r0, r4
 519 0060 FFF7FEFF 		bl	_ZN6Client6statusEv
 520              	.LVL47:
 521 0064 1728     		cmp	r0, #23
 522 0066 03D0     		beq	.L34
  39:.\Client.cpp  ****     if (status() == SOCK_CLOSED)
 523              		.loc 1 39 0
 524 0068 201C     		mov	r0, r4
 525 006a FFF7FEFF 		bl	_ZN6Client6statusEv
 526              	.LVL48:
 527 006e F4E7     		b	.L43
 528              	.L34:
  43:.\Client.cpp  ****   return 1;
 529              		.loc 1 43 0
 530 0070 0120     		mov	r0, #1
 531              	.L31:
 532              	.LBE17:
  44:.\Client.cpp  **** }
 533              		.loc 1 44 0
 534              		@ sp needed for prologue
 535              	.LVL49:
 536 0072 70BD     		pop	{r4, r5, r6, pc}
 537              		.cfi_endproc
 538              	.LFE9:
 539              		.fnend
 540              		.size	_ZN6Client7connectEv, .-_ZN6Client7connectEv
 541              		.section	.text._ZN6ClienteqEi,"ax",%progbits
 542              		.align	1
 543              		.global	_ZN6ClienteqEi
 544              		.code	16
 545              		.thumb_func
 546              		.type	_ZN6ClienteqEi, %function
 547              	_ZN6ClienteqEi:
 548              		.fnstart
 549              	.LFB17:
  81:.\Client.cpp  **** 
  82:.\Client.cpp  **** // the next three functions are a hack so we can compare the client returned
  83:.\Client.cpp  **** // by Server::available() to null, or use it as the condition in an
  84:.\Client.cpp  **** // if-statement.  this lets us stay compatible with the Processing network
  85:.\Client.cpp  **** // library.
  86:.\Client.cpp  **** 
  87:.\Client.cpp  **** uint8_t Client::operator==(int p) {
 550              		.loc 1 87 0
 551              		.cfi_startproc
 552              	.LVL50:
  88:.\Client.cpp  ****   return _sock == 255;
 553              		.loc 1 88 0
 554 0000 0079     		ldrb	r0, [r0, #4]
 555              	.LVL51:
ARM GAS  C:\Users\atsu\AppData\Local\Temp\ccC8yZ3x.s 			page 13


  89:.\Client.cpp  **** }
 556              		.loc 1 89 0
 557              		@ sp needed for prologue
  88:.\Client.cpp  ****   return _sock == 255;
 558              		.loc 1 88 0
 559 0002 FF38     		sub	r0, r0, #255
 560 0004 4342     		neg	r3, r0
 561 0006 5841     		adc	r0, r0, r3
 562              		.loc 1 89 0
 563 0008 7047     		bx	lr
 564              		.cfi_endproc
 565              	.LFE17:
 566              		.cantunwind
 567              		.fnend
 568              		.size	_ZN6ClienteqEi, .-_ZN6ClienteqEi
 569              		.section	.text._ZN6ClientneEi,"ax",%progbits
 570              		.align	1
 571              		.global	_ZN6ClientneEi
 572              		.code	16
 573              		.thumb_func
 574              		.type	_ZN6ClientneEi, %function
 575              	_ZN6ClientneEi:
 576              		.fnstart
 577              	.LFB18:
  90:.\Client.cpp  **** 
  91:.\Client.cpp  **** uint8_t Client::operator!=(int p) {
 578              		.loc 1 91 0
 579              		.cfi_startproc
 580              	.LVL52:
  92:.\Client.cpp  ****   return _sock != 255;
 581              		.loc 1 92 0
 582 0000 0079     		ldrb	r0, [r0, #4]
 583              	.LVL53:
  93:.\Client.cpp  **** }
 584              		.loc 1 93 0
 585              		@ sp needed for prologue
  92:.\Client.cpp  ****   return _sock != 255;
 586              		.loc 1 92 0
 587 0002 FF38     		sub	r0, r0, #255
 588 0004 431E     		sub	r3, r0, #1
 589 0006 9841     		sbc	r0, r0, r3
 590              		.loc 1 93 0
 591 0008 7047     		bx	lr
 592              		.cfi_endproc
 593              	.LFE18:
 594              		.cantunwind
 595              		.fnend
 596              		.size	_ZN6ClientneEi, .-_ZN6ClientneEi
 597              		.section	.text._ZN6ClientcvbEv,"ax",%progbits
 598              		.align	1
 599              		.global	_ZN6ClientcvbEv
 600              		.code	16
 601              		.thumb_func
 602              		.type	_ZN6ClientcvbEv, %function
 603              	_ZN6ClientcvbEv:
 604              		.fnstart
 605              	.LFB19:
ARM GAS  C:\Users\atsu\AppData\Local\Temp\ccC8yZ3x.s 			page 14


  94:.\Client.cpp  **** 
  95:.\Client.cpp  **** Client::operator bool() {
 606              		.loc 1 95 0
 607              		.cfi_startproc
 608              	.LVL54:
  96:.\Client.cpp  ****   return _sock != 255;
 609              		.loc 1 96 0
 610 0000 0079     		ldrb	r0, [r0, #4]
 611              	.LVL55:
  97:.\Client.cpp  **** }
 612              		.loc 1 97 0
 613              		@ sp needed for prologue
  96:.\Client.cpp  ****   return _sock != 255;
 614              		.loc 1 96 0
 615 0002 FF38     		sub	r0, r0, #255
 616 0004 431E     		sub	r3, r0, #1
 617 0006 9841     		sbc	r0, r0, r3
 618              		.loc 1 97 0
 619 0008 7047     		bx	lr
 620              		.cfi_endproc
 621              	.LFE19:
 622              		.cantunwind
 623              		.fnend
 624              		.size	_ZN6ClientcvbEv, .-_ZN6ClientcvbEv
 625              		.global	_ZTV6Client
 626              		.section	.rodata
 627              		.align	3
 628              		.set	.LANCHOR0,. + 0
 629              		.type	_ZTV6Client, %object
 630              		.size	_ZTV6Client, 12
 631              	_ZTV6Client:
 632 0000 00000000 		.word	0
 633 0004 00000000 		.word	0
 634 0008 00000000 		.word	_ZN6Client5writeEh
 635 000c 00000000 		.text
 636              	.Letext0:
 637              		.file 2 "c:\\program files (x86)\\cypress\\psoc creator\\3.0\\psoc creator\\import\\gnu_cs\\arm\\4
 638              		.file 3 "./Generated_Source/PSoC4/cytypes.h"
 639              		.file 4 ".\\w5100.h"
 640              		.file 5 ".\\Client.h"
 641              		.file 6 ".\\socket.h"
 642              		.file 7 ".\\Print.h"