ARM GAS  C:\Users\atsu\AppData\Local\Temp\cc7PaiZq.s 			page 1


   1              		.cpu cortex-m0
   2              		.fpu softvfp
   3              		.eabi_attribute 20, 1
   4              		.eabi_attribute 21, 1
   5              		.eabi_attribute 23, 3
   6              		.eabi_attribute 24, 1
   7              		.eabi_attribute 25, 1
   8              		.eabi_attribute 26, 1
   9              		.eabi_attribute 30, 4
  10              		.eabi_attribute 34, 0
  11              		.eabi_attribute 18, 4
  12              		.code	16
  13              		.file	"ether_svr.cpp"
  14              		.text
  15              	.Ltext0:
  16              		.cfi_sections	.debug_frame
  17              		.section	.text._Z5setupv,"ax",%progbits
  18              		.align	1
  19              		.global	_Z5setupv
  20              		.code	16
  21              		.thumb_func
  22              		.type	_Z5setupv, %function
  23              	_Z5setupv:
  24              		.fnstart
  25              	.LFB6:
  26              		.file 1 ".\\ether_svr.cpp"
   1:.\ether_svr.cpp **** // telnetクライアントで接続してください
   2:.\ether_svr.cpp **** // 入力をそのまま返します
   3:.\ether_svr.cpp **** 
   4:.\ether_svr.cpp **** extern "C" {
   5:.\ether_svr.cpp ****   #include "types.h"
   6:.\ether_svr.cpp **** }
   7:.\ether_svr.cpp **** 
   8:.\ether_svr.cpp **** #include "Ethernet.h"
   9:.\ether_svr.cpp **** 
  10:.\ether_svr.cpp **** #define byte uint8
  11:.\ether_svr.cpp **** 
  12:.\ether_svr.cpp **** // ネットワーク設定 gatewayとsubnetはオプション
  13:.\ether_svr.cpp **** byte mac[] = { 0xDE, 0xAD, 0xBE, 0xEF, 0xFE, 0xED };
  14:.\ether_svr.cpp **** byte ip[] = { 192, 168, 1, 247 };
  15:.\ether_svr.cpp **** 
  16:.\ether_svr.cpp **** // telnetのポート(23)を指定
  17:.\ether_svr.cpp **** Server server = Server(23);
  18:.\ether_svr.cpp **** 
  19:.\ether_svr.cpp **** void setup()
  20:.\ether_svr.cpp **** {
  27              		.loc 1 20 0
  28              		.cfi_startproc
  29 0000 08B5     		push	{r3, lr}
  30              		.save {r3, lr}
  31              	.LCFI0:
  32              		.cfi_def_cfa_offset 8
  33              		.cfi_offset 3, -8
  34              		.cfi_offset 14, -4
  21:.\ether_svr.cpp ****   // デバイスの初期化
  22:.\ether_svr.cpp ****   Ethernet.begin(mac, ip);
  35              		.loc 1 22 0
ARM GAS  C:\Users\atsu\AppData\Local\Temp\cc7PaiZq.s 			page 2


  36 0002 0449     		ldr	r1, .L2
  37 0004 0448     		ldr	r0, .L2+4
  38 0006 8A1D     		add	r2, r1, #6
  39 0008 FFF7FEFF 		bl	_ZN13EthernetClass5beginEPhS0_
  40              	.LVL0:
  23:.\ether_svr.cpp **** 
  24:.\ether_svr.cpp ****   // listenを始める
  25:.\ether_svr.cpp ****   server.begin();
  41              		.loc 1 25 0
  42 000c 0348     		ldr	r0, .L2+8
  43 000e FFF7FEFF 		bl	_ZN6Server5beginEv
  44              	.LVL1:
  26:.\ether_svr.cpp **** }
  45              		.loc 1 26 0
  46              		@ sp needed for prologue
  47 0012 08BD     		pop	{r3, pc}
  48              	.L3:
  49              		.align	2
  50              	.L2:
  51 0014 00000000 		.word	.LANCHOR0
  52 0018 00000000 		.word	Ethernet
  53 001c 00000000 		.word	.LANCHOR1
  54              		.cfi_endproc
  55              	.LFE6:
  56              		.fnend
  57              		.size	_Z5setupv, .-_Z5setupv
  58              		.section	.text.startup._GLOBAL__sub_I_mac,"ax",%progbits
  59              		.align	1
  60              		.code	16
  61              		.thumb_func
  62              		.type	_GLOBAL__sub_I_mac, %function
  63              	_GLOBAL__sub_I_mac:
  64              		.fnstart
  65              	.LFB13:
  27:.\ether_svr.cpp **** 
  28:.\ether_svr.cpp **** void loop()
  29:.\ether_svr.cpp **** {
  30:.\ether_svr.cpp ****   Client client = server.available();
  31:.\ether_svr.cpp ****   if (client) {
  32:.\ether_svr.cpp ****     server.write( client.read() );
  33:.\ether_svr.cpp ****   }
  34:.\ether_svr.cpp **** }
  35:.\ether_svr.cpp **** 
  36:.\ether_svr.cpp **** 
  37:.\ether_svr.cpp **** int main(void)
  38:.\ether_svr.cpp **** {
  39:.\ether_svr.cpp **** 	setup();
  40:.\ether_svr.cpp ****     
  41:.\ether_svr.cpp **** 	for (;;)
  42:.\ether_svr.cpp **** 		loop();
  43:.\ether_svr.cpp ****         
  44:.\ether_svr.cpp **** 	return 0;
  45:.\ether_svr.cpp **** }
  66              		.loc 1 45 0
  67              		.cfi_startproc
  68              	.LVL2:
  69 0000 08B5     		push	{r3, lr}
ARM GAS  C:\Users\atsu\AppData\Local\Temp\cc7PaiZq.s 			page 3


  70              	.LCFI1:
  71              		.cfi_def_cfa_offset 8
  72              		.cfi_offset 3, -8
  73              		.cfi_offset 14, -4
  74              	.LBB4:
  75              	.LBB5:
  17:.\ether_svr.cpp **** Server server = Server(23);
  76              		.loc 1 17 0
  77 0002 0248     		ldr	r0, .L5
  78 0004 1721     		mov	r1, #23
  79 0006 FFF7FEFF 		bl	_ZN6ServerC1Et
  80              	.LVL3:
  81              	.LBE5:
  82              	.LBE4:
  83              		.loc 1 45 0
  84              		@ sp needed for prologue
  85 000a 08BD     		pop	{r3, pc}
  86              	.L6:
  87              		.align	2
  88              	.L5:
  89 000c 00000000 		.word	.LANCHOR1
  90              		.cfi_endproc
  91              	.LFE13:
  92              		.cantunwind
  93              		.fnend
  94              		.size	_GLOBAL__sub_I_mac, .-_GLOBAL__sub_I_mac
  95              		.section	.init_array,"aw",%init_array
  96              		.align	2
  97 0000 00000000 		.word	_GLOBAL__sub_I_mac(target1)
  98              		.section	.text._Z4loopv,"ax",%progbits
  99              		.align	1
 100              		.global	_Z4loopv
 101              		.code	16
 102              		.thumb_func
 103              		.type	_Z4loopv, %function
 104              	_Z4loopv:
 105              		.fnstart
 106              	.LFB7:
  29:.\ether_svr.cpp **** {
 107              		.loc 1 29 0
 108              		.cfi_startproc
 109 0000 1FB5     		push	{r0, r1, r2, r3, r4, lr}
 110              		.save {r0, r1, r2, r3, r4, lr}
 111              	.LCFI2:
 112              		.cfi_def_cfa_offset 24
 113              		.cfi_offset 0, -24
 114              		.cfi_offset 1, -20
 115              		.cfi_offset 2, -16
 116              		.cfi_offset 3, -12
 117              		.cfi_offset 4, -8
 118              		.cfi_offset 14, -4
 119              	.LBB6:
  30:.\ether_svr.cpp ****   Client client = server.available();
 120              		.loc 1 30 0
 121 0002 094C     		ldr	r4, .L13
 122 0004 01A8     		add	r0, sp, #4
 123 0006 211C     		mov	r1, r4
ARM GAS  C:\Users\atsu\AppData\Local\Temp\cc7PaiZq.s 			page 4


 124 0008 FFF7FEFF 		bl	_ZN6Server9availableEv
 125              	.LVL4:
  31:.\ether_svr.cpp ****   if (client) {
 126              		.loc 1 31 0
 127 000c 01A8     		add	r0, sp, #4
 128 000e FFF7FEFF 		bl	_ZN6ClientcvbEv
 129              	.LVL5:
 130 0012 0028     		cmp	r0, #0
 131 0014 06D0     		beq	.L7
  32:.\ether_svr.cpp ****     server.write( client.read() );
 132              		.loc 1 32 0
 133 0016 01A8     		add	r0, sp, #4
 134 0018 FFF7FEFF 		bl	_ZN6Client4readEv
 135              	.LVL6:
 136 001c C1B2     		uxtb	r1, r0
 137 001e 201C     		mov	r0, r4
 138 0020 FFF7FEFF 		bl	_ZN6Server5writeEh
 139              	.LVL7:
 140              	.L7:
 141              	.LBE6:
  34:.\ether_svr.cpp **** }
 142              		.loc 1 34 0
 143              		@ sp needed for prologue
 144 0024 1FBD     		pop	{r0, r1, r2, r3, r4, pc}
 145              	.L14:
 146 0026 C046     		.align	2
 147              	.L13:
 148 0028 00000000 		.word	.LANCHOR1
 149              		.cfi_endproc
 150              	.LFE7:
 151              		.fnend
 152              		.size	_Z4loopv, .-_Z4loopv
 153              		.section	.text.startup.main,"ax",%progbits
 154              		.align	1
 155              		.global	main
 156              		.code	16
 157              		.thumb_func
 158              		.type	main, %function
 159              	main:
 160              		.fnstart
 161              	.LFB11:
  38:.\ether_svr.cpp **** {
 162              		.loc 1 38 0
 163              		.cfi_startproc
 164 0000 08B5     		push	{r3, lr}
 165              		.save {r3, lr}
 166              	.LCFI3:
 167              		.cfi_def_cfa_offset 8
 168              		.cfi_offset 3, -8
 169              		.cfi_offset 14, -4
  39:.\ether_svr.cpp **** 	setup();
 170              		.loc 1 39 0
 171 0002 FFF7FEFF 		bl	_Z5setupv
 172              	.LVL8:
 173              	.L16:
  42:.\ether_svr.cpp **** 		loop();
 174              		.loc 1 42 0 discriminator 1
ARM GAS  C:\Users\atsu\AppData\Local\Temp\cc7PaiZq.s 			page 5


 175 0006 FFF7FEFF 		bl	_Z4loopv
 176              	.LVL9:
 177 000a FCE7     		b	.L16
 178              		.cfi_endproc
 179              	.LFE11:
 180              		.fnend
 181              		.size	main, .-main
 182              		.global	server
 183              		.global	ip
 184              		.global	mac
 185              		.data
 186              		.set	.LANCHOR0,. + 0
 187              		.type	mac, %object
 188              		.size	mac, 6
 189              	mac:
 190 0000 DE       		.byte	-34
 191 0001 AD       		.byte	-83
 192 0002 BE       		.byte	-66
 193 0003 EF       		.byte	-17
 194 0004 FE       		.byte	-2
 195 0005 ED       		.byte	-19
 196              		.type	ip, %object
 197              		.size	ip, 4
 198              	ip:
 199 0006 C0       		.byte	-64
 200 0007 A8       		.byte	-88
 201 0008 01       		.byte	1
 202 0009 F7       		.byte	-9
 203              		.bss
 204              		.set	.LANCHOR1,. + 0
 205              		.type	server, %object
 206              		.size	server, 6
 207              	server:
 208 0000 00000000 		.space	6
 208      0000
 209              		.text
 210              	.Letext0:
 211              		.file 2 "c:\\program files (x86)\\cypress\\psoc creator\\3.0\\psoc creator\\import\\gnu_cs\\arm\\4
 212              		.file 3 "./Generated_Source/PSoC4/cytypes.h"
 213              		.file 4 ".\\Ethernet.h"
 214              		.file 5 ".\\Client.h"
 215              		.file 6 ".\\Server.h"