ARM GAS  C:\Users\atsu\AppData\Local\Temp\ccVhIrYd.s 			page 1


   1              		.cpu cortex-m0
   2              		.fpu softvfp
   3              		.eabi_attribute 20, 1
   4              		.eabi_attribute 21, 1
   5              		.eabi_attribute 23, 3
   6              		.eabi_attribute 24, 1
   7              		.eabi_attribute 25, 1
   8              		.eabi_attribute 26, 1
   9              		.eabi_attribute 30, 4
  10              		.eabi_attribute 34, 0
  11              		.eabi_attribute 18, 4
  12              		.code	16
  13              		.file	"Ethernet.cpp"
  14              		.text
  15              	.Ltext0:
  16              		.cfi_sections	.debug_frame
  17              		.section	.text._ZN13EthernetClass5beginEPhS0_S0_S0_,"ax",%progbits
  18              		.align	1
  19              		.global	_ZN13EthernetClass5beginEPhS0_S0_S0_
  20              		.code	16
  21              		.thumb_func
  22              		.type	_ZN13EthernetClass5beginEPhS0_S0_S0_, %function
  23              	_ZN13EthernetClass5beginEPhS0_S0_S0_:
  24              		.fnstart
  25              	.LFB2:
  26              		.file 1 ".\\Ethernet.cpp"
   1:.\Ethernet.cpp **** extern "C" {
   2:.\Ethernet.cpp ****   #include "types.h"
   3:.\Ethernet.cpp ****   #include "w5100.h"
   4:.\Ethernet.cpp **** }
   5:.\Ethernet.cpp ****   
   6:.\Ethernet.cpp **** #include "Ethernet.h"
   7:.\Ethernet.cpp **** 
   8:.\Ethernet.cpp **** // XXX: don't make assumptions about the value of MAX_SOCK_NUM.
   9:.\Ethernet.cpp **** uint8_t EthernetClass::_state[MAX_SOCK_NUM] = { 0, 0, 0, 0 };
  10:.\Ethernet.cpp **** uint16_t EthernetClass::_server_port[MAX_SOCK_NUM] = { 0, 0, 0, 0 };
  11:.\Ethernet.cpp **** 
  12:.\Ethernet.cpp **** void EthernetClass::begin(uint8_t *mac, uint8_t *ip)
  13:.\Ethernet.cpp **** {
  14:.\Ethernet.cpp ****   uint8_t gateway[4];
  15:.\Ethernet.cpp ****   gateway[0] = ip[0];
  16:.\Ethernet.cpp ****   gateway[1] = ip[1];
  17:.\Ethernet.cpp ****   gateway[2] = ip[2];
  18:.\Ethernet.cpp ****   gateway[3] = 1;
  19:.\Ethernet.cpp ****   begin(mac, ip, gateway);
  20:.\Ethernet.cpp **** }
  21:.\Ethernet.cpp **** 
  22:.\Ethernet.cpp **** void EthernetClass::begin(uint8_t *mac, uint8_t *ip, uint8_t *gateway)
  23:.\Ethernet.cpp **** {
  24:.\Ethernet.cpp ****   uint8_t subnet[] = { 255, 255, 255, 0 };
  25:.\Ethernet.cpp ****   begin(mac, ip, gateway, subnet);
  26:.\Ethernet.cpp **** }
  27:.\Ethernet.cpp **** 
  28:.\Ethernet.cpp **** void EthernetClass::begin(uint8_t *mac, uint8_t *ip, uint8_t *gateway, uint8_t *subnet)
  29:.\Ethernet.cpp **** {
  27              		.loc 1 29 0
  28              		.cfi_startproc
ARM GAS  C:\Users\atsu\AppData\Local\Temp\ccVhIrYd.s 			page 2


  29              	.LVL0:
  30 0000 70B5     		push	{r4, r5, r6, lr}
  31              		.save {r4, r5, r6, lr}
  32              	.LCFI0:
  33              		.cfi_def_cfa_offset 16
  34              		.cfi_offset 4, -16
  35              		.cfi_offset 5, -12
  36              		.cfi_offset 6, -8
  37              		.cfi_offset 14, -4
  38              		.loc 1 29 0
  39 0002 151C     		mov	r5, r2
  40 0004 1C1C     		mov	r4, r3
  41 0006 0E1C     		mov	r6, r1
  30:.\Ethernet.cpp **** 	iinchip_init();
  42              		.loc 1 30 0
  43 0008 FFF7FEFF 		bl	iinchip_init
  44              	.LVL1:
  31:.\Ethernet.cpp **** 	sysinit(0x55, 0x55);
  45              		.loc 1 31 0
  46 000c 5520     		mov	r0, #85
  47 000e 011C     		mov	r1, r0
  48 0010 FFF7FEFF 		bl	sysinit
  49              	.LVL2:
  32:.\Ethernet.cpp **** 	setSHAR(mac);
  50              		.loc 1 32 0
  51 0014 301C     		mov	r0, r6
  52 0016 FFF7FEFF 		bl	setSHAR
  53              	.LVL3:
  33:.\Ethernet.cpp **** 	setSIPR(ip);
  54              		.loc 1 33 0
  55 001a 281C     		mov	r0, r5
  56 001c FFF7FEFF 		bl	setSIPR
  57              	.LVL4:
  34:.\Ethernet.cpp ****   setGAR(gateway);
  58              		.loc 1 34 0
  59 0020 201C     		mov	r0, r4
  60 0022 FFF7FEFF 		bl	setGAR
  61              	.LVL5:
  35:.\Ethernet.cpp ****   setSUBR(subnet);
  62              		.loc 1 35 0
  63 0026 0498     		ldr	r0, [sp, #16]
  64 0028 FFF7FEFF 		bl	setSUBR
  65              	.LVL6:
  36:.\Ethernet.cpp **** }
  66              		.loc 1 36 0
  67              		@ sp needed for prologue
  68              	.LVL7:
  69              	.LVL8:
  70              	.LVL9:
  71 002c 70BD     		pop	{r4, r5, r6, pc}
  72              		.cfi_endproc
  73              	.LFE2:
  74              		.fnend
  75              		.size	_ZN13EthernetClass5beginEPhS0_S0_S0_, .-_ZN13EthernetClass5beginEPhS0_S0_S0_
  76              		.section	.text._ZN13EthernetClass5beginEPhS0_S0_,"ax",%progbits
  77              		.align	1
  78              		.global	_ZN13EthernetClass5beginEPhS0_S0_
ARM GAS  C:\Users\atsu\AppData\Local\Temp\ccVhIrYd.s 			page 3


  79              		.code	16
  80              		.thumb_func
  81              		.type	_ZN13EthernetClass5beginEPhS0_S0_, %function
  82              	_ZN13EthernetClass5beginEPhS0_S0_:
  83              		.fnstart
  84              	.LFB1:
  23:.\Ethernet.cpp **** {
  85              		.loc 1 23 0
  86              		.cfi_startproc
  87              	.LVL10:
  88 0000 F0B5     		push	{r4, r5, r6, r7, lr}
  89              		.save {r4, r5, r6, r7, lr}
  90              	.LCFI1:
  91              		.cfi_def_cfa_offset 20
  92              		.cfi_offset 4, -20
  93              		.cfi_offset 5, -16
  94              		.cfi_offset 6, -12
  95              		.cfi_offset 7, -8
  96              		.cfi_offset 14, -4
  97              		.pad #28
  98 0002 87B0     		sub	sp, sp, #28
  99              	.LCFI2:
 100              		.cfi_def_cfa_offset 48
 101              	.LBB2:
  24:.\Ethernet.cpp ****   uint8_t subnet[] = { 255, 255, 255, 0 };
 102              		.loc 1 24 0
 103 0004 05AC     		add	r4, sp, #20
 104              	.LBE2:
  23:.\Ethernet.cpp **** {
 105              		.loc 1 23 0
 106 0006 071C     		mov	r7, r0
 107 0008 0E1C     		mov	r6, r1
 108 000a 151C     		mov	r5, r2
 109              	.LBB3:
  24:.\Ethernet.cpp ****   uint8_t subnet[] = { 255, 255, 255, 0 };
 110              		.loc 1 24 0
 111 000c 201C     		mov	r0, r4
 112              	.LVL11:
 113 000e 0749     		ldr	r1, .L3
 114              	.LVL12:
 115 0010 0422     		mov	r2, #4
 116              	.LVL13:
 117              	.LBE3:
  23:.\Ethernet.cpp **** {
 118              		.loc 1 23 0
 119 0012 0393     		str	r3, [sp, #12]
 120              	.LBB4:
  24:.\Ethernet.cpp ****   uint8_t subnet[] = { 255, 255, 255, 0 };
 121              		.loc 1 24 0
 122 0014 FFF7FEFF 		bl	memcpy
 123              	.LVL14:
  25:.\Ethernet.cpp ****   begin(mac, ip, gateway, subnet);
 124              		.loc 1 25 0
 125 0018 0094     		str	r4, [sp]
 126 001a 381C     		mov	r0, r7
 127 001c 311C     		mov	r1, r6
 128 001e 2A1C     		mov	r2, r5
ARM GAS  C:\Users\atsu\AppData\Local\Temp\ccVhIrYd.s 			page 4


 129 0020 039B     		ldr	r3, [sp, #12]
 130 0022 FFF7FEFF 		bl	_ZN13EthernetClass5beginEPhS0_S0_S0_
 131              	.LVL15:
 132              	.LBE4:
  26:.\Ethernet.cpp **** }
 133              		.loc 1 26 0
 134 0026 07B0     		add	sp, sp, #28
 135              		@ sp needed for prologue
 136              	.LVL16:
 137              	.LVL17:
 138              	.LVL18:
 139 0028 F0BD     		pop	{r4, r5, r6, r7, pc}
 140              	.L4:
 141 002a C046     		.align	2
 142              	.L3:
 143 002c 00000000 		.word	.LANCHOR0
 144              		.cfi_endproc
 145              	.LFE1:
 146              		.fnend
 147              		.size	_ZN13EthernetClass5beginEPhS0_S0_, .-_ZN13EthernetClass5beginEPhS0_S0_
 148              		.section	.text._ZN13EthernetClass5beginEPhS0_,"ax",%progbits
 149              		.align	1
 150              		.global	_ZN13EthernetClass5beginEPhS0_
 151              		.code	16
 152              		.thumb_func
 153              		.type	_ZN13EthernetClass5beginEPhS0_, %function
 154              	_ZN13EthernetClass5beginEPhS0_:
 155              		.fnstart
 156              	.LFB0:
  13:.\Ethernet.cpp **** {
 157              		.loc 1 13 0
 158              		.cfi_startproc
 159              	.LVL19:
 160 0000 13B5     		push	{r0, r1, r4, lr}
 161              		.save {r0, r1, r4, lr}
 162              	.LCFI3:
 163              		.cfi_def_cfa_offset 16
 164              		.cfi_offset 0, -16
 165              		.cfi_offset 1, -12
 166              		.cfi_offset 4, -8
 167              		.cfi_offset 14, -4
 168              	.LBB5:
  15:.\Ethernet.cpp ****   gateway[0] = ip[0];
 169              		.loc 1 15 0
 170 0002 1478     		ldrb	r4, [r2]
 171 0004 01AB     		add	r3, sp, #4
 172 0006 1C70     		strb	r4, [r3]
  16:.\Ethernet.cpp ****   gateway[1] = ip[1];
 173              		.loc 1 16 0
 174 0008 5478     		ldrb	r4, [r2, #1]
 175              	.LBE5:
  20:.\Ethernet.cpp **** }
 176              		.loc 1 20 0
 177              		@ sp needed for prologue
 178              	.LBB6:
  16:.\Ethernet.cpp ****   gateway[1] = ip[1];
 179              		.loc 1 16 0
ARM GAS  C:\Users\atsu\AppData\Local\Temp\ccVhIrYd.s 			page 5


 180 000a 5C70     		strb	r4, [r3, #1]
  17:.\Ethernet.cpp ****   gateway[2] = ip[2];
 181              		.loc 1 17 0
 182 000c 9478     		ldrb	r4, [r2, #2]
 183 000e 9C70     		strb	r4, [r3, #2]
  18:.\Ethernet.cpp ****   gateway[3] = 1;
 184              		.loc 1 18 0
 185 0010 0124     		mov	r4, #1
 186 0012 DC70     		strb	r4, [r3, #3]
  19:.\Ethernet.cpp ****   begin(mac, ip, gateway);
 187              		.loc 1 19 0
 188 0014 FFF7FEFF 		bl	_ZN13EthernetClass5beginEPhS0_S0_
 189              	.LVL20:
 190              	.LBE6:
  20:.\Ethernet.cpp **** }
 191              		.loc 1 20 0
 192 0018 13BD     		pop	{r0, r1, r4, pc}
 193              		.cfi_endproc
 194              	.LFE0:
 195              		.fnend
 196              		.size	_ZN13EthernetClass5beginEPhS0_, .-_ZN13EthernetClass5beginEPhS0_
 197              		.global	Ethernet
 198              		.global	_ZN13EthernetClass12_server_portE
 199              		.global	_ZN13EthernetClass6_stateE
 200              		.section	.rodata
 201              		.set	.LANCHOR0,. + 0
 202              	.LC0:
 203 0000 FF       		.byte	-1
 204 0001 FF       		.byte	-1
 205 0002 FF       		.byte	-1
 206 0003 00       		.byte	0
 207              		.bss
 208              		.align	1
 209              		.type	Ethernet, %object
 210              		.size	Ethernet, 1
 211              	Ethernet:
 212 0000 00       		.space	1
 213 0001 00       		.space	1
 214              		.type	_ZN13EthernetClass12_server_portE, %object
 215              		.size	_ZN13EthernetClass12_server_portE, 8
 216              	_ZN13EthernetClass12_server_portE:
 217 0002 00000000 		.space	8
 217      00000000 
 218              		.type	_ZN13EthernetClass6_stateE, %object
 219              		.size	_ZN13EthernetClass6_stateE, 4
 220              	_ZN13EthernetClass6_stateE:
 221 000a 00000000 		.space	4
 222              		.text
 223              	.Letext0:
 224              		.file 2 "c:\\program files (x86)\\cypress\\psoc creator\\3.0\\psoc creator\\import\\gnu_cs\\arm\\4
 225              		.file 3 "./Generated_Source/PSoC4/cytypes.h"
 226              		.file 4 ".\\Ethernet.h"
 227              		.file 5 ".\\w5100.h"