ARM GAS  C:\Users\atsu\AppData\Local\Temp\ccoQdsVS.s 			page 1


   1              		.cpu cortex-m0
   2              		.fpu softvfp
   3              		.eabi_attribute 20, 1
   4              		.eabi_attribute 21, 1
   5              		.eabi_attribute 23, 3
   6              		.eabi_attribute 24, 1
   7              		.eabi_attribute 25, 1
   8              		.eabi_attribute 26, 1
   9              		.eabi_attribute 30, 4
  10              		.eabi_attribute 34, 0
  11              		.eabi_attribute 18, 4
  12              		.code	16
  13              		.file	"main.cpp"
  14              		.text
  15              	.Ltext0:
  16              		.cfi_sections	.debug_frame
  17              		.section	.text._Z5setupv,"ax",%progbits
  18              		.align	1
  19              		.global	_Z5setupv
  20              		.code	16
  21              		.thumb_func
  22              		.type	_Z5setupv, %function
  23              	_Z5setupv:
  24              		.fnstart
  25              	.LFB39:
  26              		.file 1 ".\\main.cpp"
   1:.\main.cpp    **** // telnet loop back
   2:.\main.cpp    **** 
   3:.\main.cpp    **** extern "C" {
   4:.\main.cpp    ****   #include "types.h"
   5:.\main.cpp    ****   #include <project.h>
   6:.\main.cpp    **** }
   7:.\main.cpp    **** #include "Ethernet.h"
   8:.\main.cpp    **** 
   9:.\main.cpp    **** // Network Settigs
  10:.\main.cpp    **** uint8 mac[] = { 0x90, 0xA2, 0xDA, 0x0E, 0xA0, 0x8A };
  11:.\main.cpp    **** uint8 ip[] = { 169, 254, 22, 31 };
  12:.\main.cpp    **** 
  13:.\main.cpp    **** // use port 23:Telnet
  14:.\main.cpp    **** Server server = Server(23);
  15:.\main.cpp    **** 
  16:.\main.cpp    **** void setup()
  17:.\main.cpp    **** {
  27              		.loc 1 17 0
  28              		.cfi_startproc
  29 0000 08B5     		push	{r3, lr}
  30              		.save {r3, lr}
  31              	.LCFI0:
  32              		.cfi_def_cfa_offset 8
  33              		.cfi_offset 3, -8
  34              		.cfi_offset 14, -4
  18:.\main.cpp    **** 	// Caution! UART in this Sample is not Arduino compatible layout(See Topesign.cysch) : RX=P4.0, TX
  19:.\main.cpp    **** 	UART_1_Start();
  35              		.loc 1 19 0
  36 0002 FFF7FEFF 		bl	UART_1_Start
  37              	.LVL0:
  20:.\main.cpp    **** 	UART_1_UartPutString("CY8CKIT-042 W5100 Test");
ARM GAS  C:\Users\atsu\AppData\Local\Temp\ccoQdsVS.s 			page 2


  38              		.loc 1 20 0
  39 0006 0648     		ldr	r0, .L2
  40 0008 FFF7FEFF 		bl	UART_1_UartPutString
  41              	.LVL1:
  21:.\main.cpp    **** 
  22:.\main.cpp    **** 	// initialize W5100
  23:.\main.cpp    **** 	Ethernet.begin(mac, ip);
  42              		.loc 1 23 0
  43 000c 0549     		ldr	r1, .L2+4
  44 000e 0648     		ldr	r0, .L2+8
  45 0010 8A1D     		add	r2, r1, #6
  46 0012 FFF7FEFF 		bl	_ZN13EthernetClass5beginEPhS0_
  47              	.LVL2:
  24:.\main.cpp    **** 	
  25:.\main.cpp    **** 	// listen
  26:.\main.cpp    **** 	server.begin();
  48              		.loc 1 26 0
  49 0016 0548     		ldr	r0, .L2+12
  50 0018 FFF7FEFF 		bl	_ZN6Server5beginEv
  51              	.LVL3:
  27:.\main.cpp    **** 	
  28:.\main.cpp    **** }
  52              		.loc 1 28 0
  53              		@ sp needed for prologue
  54 001c 08BD     		pop	{r3, pc}
  55              	.L3:
  56 001e C046     		.align	2
  57              	.L2:
  58 0020 00000000 		.word	.LC0
  59 0024 00000000 		.word	.LANCHOR0
  60 0028 00000000 		.word	Ethernet
  61 002c 00000000 		.word	.LANCHOR1
  62              		.cfi_endproc
  63              	.LFE39:
  64              		.fnend
  65              		.size	_Z5setupv, .-_Z5setupv
  66              		.section	.text.startup._GLOBAL__sub_I_mac,"ax",%progbits
  67              		.align	1
  68              		.code	16
  69              		.thumb_func
  70              		.type	_GLOBAL__sub_I_mac, %function
  71              	_GLOBAL__sub_I_mac:
  72              		.fnstart
  73              	.LFB46:
  29:.\main.cpp    **** 
  30:.\main.cpp    **** void loop()
  31:.\main.cpp    **** {
  32:.\main.cpp    ****   Client client = server.available();
  33:.\main.cpp    ****   if (client) {
  34:.\main.cpp    ****   	uint8 cc = client.read();
  35:.\main.cpp    ****   	if(cc == '?'){
  36:.\main.cpp    **** 	server.write('P');
  37:.\main.cpp    **** 	server.write('S');
  38:.\main.cpp    **** 	server.write('o');
  39:.\main.cpp    **** 	server.write('C');
  40:.\main.cpp    ****     }
  41:.\main.cpp    **** 	else server.write( cc );
ARM GAS  C:\Users\atsu\AppData\Local\Temp\ccoQdsVS.s 			page 3


  42:.\main.cpp    ****   }
  43:.\main.cpp    **** }
  44:.\main.cpp    **** 
  45:.\main.cpp    **** 
  46:.\main.cpp    **** int main(void)
  47:.\main.cpp    **** {
  48:.\main.cpp    **** 	setup();
  49:.\main.cpp    ****     SPI_CS_Write(1);
  50:.\main.cpp    **** 	
  51:.\main.cpp    **** 	for (;;)
  52:.\main.cpp    **** 		loop();
  53:.\main.cpp    ****         
  54:.\main.cpp    **** 	return 0;
  55:.\main.cpp    **** }
  74              		.loc 1 55 0
  75              		.cfi_startproc
  76              	.LVL4:
  77 0000 08B5     		push	{r3, lr}
  78              	.LCFI1:
  79              		.cfi_def_cfa_offset 8
  80              		.cfi_offset 3, -8
  81              		.cfi_offset 14, -4
  82              	.LBB4:
  83              	.LBB5:
  14:.\main.cpp    **** Server server = Server(23);
  84              		.loc 1 14 0
  85 0002 0248     		ldr	r0, .L5
  86 0004 1721     		mov	r1, #23
  87 0006 FFF7FEFF 		bl	_ZN6ServerC1Et
  88              	.LVL5:
  89              	.LBE5:
  90              	.LBE4:
  91              		.loc 1 55 0
  92              		@ sp needed for prologue
  93 000a 08BD     		pop	{r3, pc}
  94              	.L6:
  95              		.align	2
  96              	.L5:
  97 000c 00000000 		.word	.LANCHOR1
  98              		.cfi_endproc
  99              	.LFE46:
 100              		.cantunwind
 101              		.fnend
 102              		.size	_GLOBAL__sub_I_mac, .-_GLOBAL__sub_I_mac
 103              		.section	.init_array,"aw",%init_array
 104              		.align	2
 105 0000 00000000 		.word	_GLOBAL__sub_I_mac(target1)
 106              		.section	.text._Z4loopv,"ax",%progbits
 107              		.align	1
 108              		.global	_Z4loopv
 109              		.code	16
 110              		.thumb_func
 111              		.type	_Z4loopv, %function
 112              	_Z4loopv:
 113              		.fnstart
 114              	.LFB40:
  31:.\main.cpp    **** {
ARM GAS  C:\Users\atsu\AppData\Local\Temp\ccoQdsVS.s 			page 4


 115              		.loc 1 31 0
 116              		.cfi_startproc
 117 0000 1FB5     		push	{r0, r1, r2, r3, r4, lr}
 118              		.save {r0, r1, r2, r3, r4, lr}
 119              	.LCFI2:
 120              		.cfi_def_cfa_offset 24
 121              		.cfi_offset 0, -24
 122              		.cfi_offset 1, -20
 123              		.cfi_offset 2, -16
 124              		.cfi_offset 3, -12
 125              		.cfi_offset 4, -8
 126              		.cfi_offset 14, -4
 127              	.LBB6:
  32:.\main.cpp    ****   Client client = server.available();
 128              		.loc 1 32 0
 129 0002 104C     		ldr	r4, .L14
 130 0004 01A8     		add	r0, sp, #4
 131 0006 211C     		mov	r1, r4
 132 0008 FFF7FEFF 		bl	_ZN6Server9availableEv
 133              	.LVL6:
 134              	.LBB7:
  33:.\main.cpp    ****   if (client) {
 135              		.loc 1 33 0
 136 000c 01A8     		add	r0, sp, #4
 137 000e FFF7FEFF 		bl	_ZN6ClientcvbEv
 138              	.LVL7:
 139 0012 0028     		cmp	r0, #0
 140 0014 15D0     		beq	.L7
 141              	.LBB8:
  34:.\main.cpp    ****   	uint8 cc = client.read();
 142              		.loc 1 34 0
 143 0016 01A8     		add	r0, sp, #4
 144 0018 FFF7FEFF 		bl	_ZN6Client4readEv
 145              	.LVL8:
 146 001c C1B2     		uxtb	r1, r0
 147              	.LVL9:
  36:.\main.cpp    **** 	server.write('P');
 148              		.loc 1 36 0
 149 001e 201C     		mov	r0, r4
 150              	.LVL10:
  35:.\main.cpp    ****   	if(cc == '?'){
 151              		.loc 1 35 0
 152 0020 3F29     		cmp	r1, #63
 153 0022 0CD1     		bne	.L9
  36:.\main.cpp    **** 	server.write('P');
 154              		.loc 1 36 0
 155 0024 5021     		mov	r1, #80
 156              	.LVL11:
 157 0026 FFF7FEFF 		bl	_ZN6Server5writeEh
 158              	.LVL12:
  37:.\main.cpp    **** 	server.write('S');
 159              		.loc 1 37 0
 160 002a 201C     		mov	r0, r4
 161 002c 5321     		mov	r1, #83
 162 002e FFF7FEFF 		bl	_ZN6Server5writeEh
 163              	.LVL13:
  38:.\main.cpp    **** 	server.write('o');
ARM GAS  C:\Users\atsu\AppData\Local\Temp\ccoQdsVS.s 			page 5


 164              		.loc 1 38 0
 165 0032 201C     		mov	r0, r4
 166 0034 6F21     		mov	r1, #111
 167 0036 FFF7FEFF 		bl	_ZN6Server5writeEh
 168              	.LVL14:
  39:.\main.cpp    **** 	server.write('C');
 169              		.loc 1 39 0
 170 003a 201C     		mov	r0, r4
 171 003c 4321     		mov	r1, #67
 172              	.L9:
  41:.\main.cpp    **** 	else server.write( cc );
 173              		.loc 1 41 0
 174 003e FFF7FEFF 		bl	_ZN6Server5writeEh
 175              	.LVL15:
 176              	.L7:
 177              	.LBE8:
 178              	.LBE7:
 179              	.LBE6:
  43:.\main.cpp    **** }
 180              		.loc 1 43 0
 181              		@ sp needed for prologue
 182 0042 1FBD     		pop	{r0, r1, r2, r3, r4, pc}
 183              	.L15:
 184              		.align	2
 185              	.L14:
 186 0044 00000000 		.word	.LANCHOR1
 187              		.cfi_endproc
 188              	.LFE40:
 189              		.fnend
 190              		.size	_Z4loopv, .-_Z4loopv
 191              		.section	.text.startup.main,"ax",%progbits
 192              		.align	1
 193              		.global	main
 194              		.code	16
 195              		.thumb_func
 196              		.type	main, %function
 197              	main:
 198              		.fnstart
 199              	.LFB44:
  47:.\main.cpp    **** {
 200              		.loc 1 47 0
 201              		.cfi_startproc
 202 0000 08B5     		push	{r3, lr}
 203              		.save {r3, lr}
 204              	.LCFI3:
 205              		.cfi_def_cfa_offset 8
 206              		.cfi_offset 3, -8
 207              		.cfi_offset 14, -4
  48:.\main.cpp    **** 	setup();
 208              		.loc 1 48 0
 209 0002 FFF7FEFF 		bl	_Z5setupv
 210              	.LVL16:
  49:.\main.cpp    ****     SPI_CS_Write(1);
 211              		.loc 1 49 0
 212 0006 0120     		mov	r0, #1
 213 0008 FFF7FEFF 		bl	SPI_CS_Write
 214              	.LVL17:
ARM GAS  C:\Users\atsu\AppData\Local\Temp\ccoQdsVS.s 			page 6


 215              	.L17:
  52:.\main.cpp    **** 		loop();
 216              		.loc 1 52 0 discriminator 1
 217 000c FFF7FEFF 		bl	_Z4loopv
 218              	.LVL18:
 219 0010 FCE7     		b	.L17
 220              		.cfi_endproc
 221              	.LFE44:
 222              		.fnend
 223              		.size	main, .-main
 224              		.global	server
 225              		.global	ip
 226              		.global	mac
 227              		.section	.rodata.str1.1,"aMS",%progbits,1
 228              	.LC0:
 229 0000 43593843 		.ascii	"CY8CKIT-042 W5100 Test\000"
 229      4B49542D 
 229      30343220 
 229      57353130 
 229      30205465 
 230              		.data
 231              		.set	.LANCHOR0,. + 0
 232              		.type	mac, %object
 233              		.size	mac, 6
 234              	mac:
 235 0000 90       		.byte	-112
 236 0001 A2       		.byte	-94
 237 0002 DA       		.byte	-38
 238 0003 0E       		.byte	14
 239 0004 A0       		.byte	-96
 240 0005 8A       		.byte	-118
 241              		.type	ip, %object
 242              		.size	ip, 4
 243              	ip:
 244 0006 A9       		.byte	-87
 245 0007 FE       		.byte	-2
 246 0008 16       		.byte	22
 247 0009 1F       		.byte	31
 248              		.bss
 249              		.set	.LANCHOR1,. + 0
 250              		.type	server, %object
 251              		.size	server, 6
 252              	server:
 253 0000 00000000 		.space	6
 253      0000
 254              		.text
 255              	.Letext0:
 256              		.file 2 "c:\\program files (x86)\\cypress\\psoc creator\\3.0\\psoc creator\\import\\gnu_cs\\arm\\4
 257              		.file 3 "./Generated_Source/PSoC4/cytypes.h"
 258              		.file 4 ".\\Ethernet.h"
 259              		.file 5 ".\\Client.h"
 260              		.file 6 ".\\Server.h"
 261              		.file 7 "./Generated_Source/PSoC4/UART_1.h"
 262              		.file 8 "./Generated_Source/PSoC4/UART_1_SPI_UART.h"
 263              		.file 9 "./Generated_Source/PSoC4/SPI_CS.h"