ARM GAS  C:\Users\atsu\AppData\Local\Temp\ccQ4N1Kp.s 			page 1


   1              		.cpu cortex-m0
   2              		.fpu softvfp
   3              		.eabi_attribute 20, 1
   4              		.eabi_attribute 21, 1
   5              		.eabi_attribute 23, 3
   6              		.eabi_attribute 24, 1
   7              		.eabi_attribute 25, 1
   8              		.eabi_attribute 26, 1
   9              		.eabi_attribute 30, 4
  10              		.eabi_attribute 34, 0
  11              		.eabi_attribute 18, 4
  12              		.code	16
  13              		.file	"Print.cpp"
  14              		.text
  15              	.Ltext0:
  16              		.cfi_sections	.debug_frame
  17              		.section	.text._ZN5Print5printEh,"ax",%progbits
  18              		.align	1
  19              		.global	_ZN5Print5printEh
  20              		.code	16
  21              		.thumb_func
  22              		.type	_ZN5Print5printEh, %function
  23              	_ZN5Print5printEh:
  24              		.fnstart
  25              	.LFB0:
  26              		.file 1 ".\\Print.cpp"
   1:.\Print.cpp   **** /*
   2:.\Print.cpp   ****  HarwareSerial.cpp - Hardware serial library for Wiring
   3:.\Print.cpp   ****  Copyright (c) 2006 Nicholas Zambetti.  All right reserved.
   4:.\Print.cpp   ****  
   5:.\Print.cpp   ****  This library is free software; you can redistribute it and/or
   6:.\Print.cpp   ****  modify it under the terms of the GNU Lesser General Public
   7:.\Print.cpp   ****  License as published by the Free Software Foundation; either
   8:.\Print.cpp   ****  version 2.1 of the License, or (at your option) any later version.
   9:.\Print.cpp   ****  
  10:.\Print.cpp   ****  This library is distributed in the hope that it will be useful,
  11:.\Print.cpp   ****  but WITHOUT ANY WARRANTY; without even the implied warranty of
  12:.\Print.cpp   ****  MERCHANTABILITY or FITNESS FOR A PARTICULAR PURPOSE.  See the GNU
  13:.\Print.cpp   ****  Lesser General Public License for more details.
  14:.\Print.cpp   ****  
  15:.\Print.cpp   ****  You should have received a copy of the GNU Lesser General Public
  16:.\Print.cpp   ****  License along with this library; if not, write to the Free Software
  17:.\Print.cpp   ****  Foundation, Inc., 51 Franklin St, Fifth Floor, Boston, MA  02110-1301  USA
  18:.\Print.cpp   ****  
  19:.\Print.cpp   ****  Modified 23 November 2006 by David A. Mellis
  20:.\Print.cpp   ****  */
  21:.\Print.cpp   **** 
  22:.\Print.cpp   **** #include <stdio.h>
  23:.\Print.cpp   **** #include <string.h>
  24:.\Print.cpp   **** #include <inttypes.h>
  25:.\Print.cpp   **** //#include "wiring.h"
  26:.\Print.cpp   **** 
  27:.\Print.cpp   **** #include "Print.h"
  28:.\Print.cpp   **** 
  29:.\Print.cpp   **** // Public Methods //////////////////////////////////////////////////////////////
  30:.\Print.cpp   **** 
  31:.\Print.cpp   **** void Print::print(uint8_t b)
ARM GAS  C:\Users\atsu\AppData\Local\Temp\ccQ4N1Kp.s 			page 2


  32:.\Print.cpp   **** {
  27              		.loc 1 32 0
  28              		.cfi_startproc
  29              	.LVL0:
  30 0000 08B5     		push	{r3, lr}
  31              		.save {r3, lr}
  32              	.LCFI0:
  33              		.cfi_def_cfa_offset 8
  34              		.cfi_offset 3, -8
  35              		.cfi_offset 14, -4
  33:.\Print.cpp   ****   write(b);
  36              		.loc 1 33 0
  37 0002 4378     		ldrb	r3, [r0, #1]
  38 0004 0278     		ldrb	r2, [r0]
  39 0006 1B02     		lsl	r3, r3, #8
  40 0008 1343     		orr	r3, r2
  41 000a 8278     		ldrb	r2, [r0, #2]
  34:.\Print.cpp   **** }
  42              		.loc 1 34 0
  43              		@ sp needed for prologue
  33:.\Print.cpp   ****   write(b);
  44              		.loc 1 33 0
  45 000c 1204     		lsl	r2, r2, #16
  46 000e 1343     		orr	r3, r2
  47 0010 C278     		ldrb	r2, [r0, #3]
  48 0012 1206     		lsl	r2, r2, #24
  49 0014 1343     		orr	r3, r2
  50 0016 1B68     		ldr	r3, [r3]
  51 0018 9847     		blx	r3
  52              	.LVL1:
  53              		.loc 1 34 0
  54 001a 08BD     		pop	{r3, pc}
  55              		.cfi_endproc
  56              	.LFE0:
  57              		.fnend
  58              		.size	_ZN5Print5printEh, .-_ZN5Print5printEh
  59              		.section	.text._ZN5Print5printEc,"ax",%progbits
  60              		.align	1
  61              		.global	_ZN5Print5printEc
  62              		.code	16
  63              		.thumb_func
  64              		.type	_ZN5Print5printEc, %function
  65              	_ZN5Print5printEc:
  66              		.fnstart
  67              	.LFB1:
  35:.\Print.cpp   **** 
  36:.\Print.cpp   **** void Print::print(char c)
  37:.\Print.cpp   **** {
  68              		.loc 1 37 0
  69              		.cfi_startproc
  70              	.LVL2:
  71 0000 00B5     		push	{lr}
  72              	.LCFI1:
  73              		.cfi_def_cfa_offset 4
  74              		.cfi_offset 14, -4
  75              	.L3:
  76 0002 FEE7     		b	.L3
ARM GAS  C:\Users\atsu\AppData\Local\Temp\ccQ4N1Kp.s 			page 3


  77              		.cfi_endproc
  78              	.LFE1:
  79              		.cantunwind
  80              		.fnend
  81              		.size	_ZN5Print5printEc, .-_ZN5Print5printEc
  82              		.section	.text._ZN5Print5printEPKc,"ax",%progbits
  83              		.align	1
  84              		.global	_ZN5Print5printEPKc
  85              		.code	16
  86              		.thumb_func
  87              		.type	_ZN5Print5printEPKc, %function
  88              	_ZN5Print5printEPKc:
  89              		.fnstart
  90              	.LFB2:
  38:.\Print.cpp   **** //  print((byte) c);
  39:.\Print.cpp   ****     print((char) c);
  40:.\Print.cpp   **** }
  41:.\Print.cpp   **** 
  42:.\Print.cpp   **** void Print::print(const char c[])
  43:.\Print.cpp   **** {
  91              		.loc 1 43 0
  92              		.cfi_startproc
  93              	.LVL3:
  44:.\Print.cpp   ****   while (*c)
  94              		.loc 1 44 0
  95 0000 0B78     		ldrb	r3, [r1]
  43:.\Print.cpp   **** {
  96              		.loc 1 43 0
  97 0002 00B5     		push	{lr}
  98              	.LCFI2:
  99              		.cfi_def_cfa_offset 4
 100              		.cfi_offset 14, -4
 101              		.loc 1 44 0
 102 0004 002B     		cmp	r3, #0
 103 0006 00D0     		beq	.L5
 104              	.L8:
 105 0008 FEE7     		b	.L8
 106              	.L5:
  45:.\Print.cpp   ****     print(*c++);
  46:.\Print.cpp   **** }
 107              		.loc 1 46 0
 108              		@ sp needed for prologue
 109 000a 00BD     		pop	{pc}
 110              		.cfi_endproc
 111              	.LFE2:
 112              		.cantunwind
 113              		.fnend
 114              		.size	_ZN5Print5printEPKc, .-_ZN5Print5printEPKc
 115              		.section	.text._ZN5Print7printlnEv,"ax",%progbits
 116              		.align	1
 117              		.global	_ZN5Print7printlnEv
 118              		.code	16
 119              		.thumb_func
 120              		.type	_ZN5Print7printlnEv, %function
 121              	_ZN5Print7printlnEv:
 122              		.fnstart
 123              	.LFB8:
ARM GAS  C:\Users\atsu\AppData\Local\Temp\ccQ4N1Kp.s 			page 4


  47:.\Print.cpp   **** 
  48:.\Print.cpp   **** void Print::print(int n)
  49:.\Print.cpp   **** {
  50:.\Print.cpp   ****   print((long) n);
  51:.\Print.cpp   **** }
  52:.\Print.cpp   **** 
  53:.\Print.cpp   **** void Print::print(unsigned int n)
  54:.\Print.cpp   **** {
  55:.\Print.cpp   ****   print((unsigned long) n);
  56:.\Print.cpp   **** }
  57:.\Print.cpp   **** 
  58:.\Print.cpp   **** void Print::print(long n)
  59:.\Print.cpp   **** {
  60:.\Print.cpp   ****   if (n < 0) {
  61:.\Print.cpp   ****     print('-');
  62:.\Print.cpp   ****     n = -n;
  63:.\Print.cpp   ****   }
  64:.\Print.cpp   ****   printNumber(n, 10);
  65:.\Print.cpp   **** }
  66:.\Print.cpp   **** 
  67:.\Print.cpp   **** void Print::print(unsigned long n)
  68:.\Print.cpp   **** {
  69:.\Print.cpp   ****   printNumber(n, 10);
  70:.\Print.cpp   **** }
  71:.\Print.cpp   **** 
  72:.\Print.cpp   **** void Print::print(long n, int base)
  73:.\Print.cpp   **** {
  74:.\Print.cpp   ****   if (base == 0)
  75:.\Print.cpp   ****     print((char) n);
  76:.\Print.cpp   ****   else if (base == 10)
  77:.\Print.cpp   ****     print(n);
  78:.\Print.cpp   ****   else
  79:.\Print.cpp   ****     printNumber(n, base);
  80:.\Print.cpp   **** }
  81:.\Print.cpp   **** 
  82:.\Print.cpp   **** void Print::println(void)
  83:.\Print.cpp   **** {
 124              		.loc 1 83 0
 125              		.cfi_startproc
 126              	.LVL4:
 127 0000 00B5     		push	{lr}
 128              	.LCFI3:
 129              		.cfi_def_cfa_offset 4
 130              		.cfi_offset 14, -4
 131              	.L10:
 132 0002 FEE7     		b	.L10
 133              		.cfi_endproc
 134              	.LFE8:
 135              		.cantunwind
 136              		.fnend
 137              		.size	_ZN5Print7printlnEv, .-_ZN5Print7printlnEv
 138              		.section	.text._ZN5Print7printlnEc,"ax",%progbits
 139              		.align	1
 140              		.global	_ZN5Print7printlnEc
 141              		.code	16
 142              		.thumb_func
 143              		.type	_ZN5Print7printlnEc, %function
ARM GAS  C:\Users\atsu\AppData\Local\Temp\ccQ4N1Kp.s 			page 5


 144              	_ZN5Print7printlnEc:
 145              		.fnstart
 146              	.LFB9:
  84:.\Print.cpp   ****   print('\r');
  85:.\Print.cpp   ****   print('\n');  
  86:.\Print.cpp   **** }
  87:.\Print.cpp   **** 
  88:.\Print.cpp   **** void Print::println(char c)
  89:.\Print.cpp   **** {
 147              		.loc 1 89 0
 148              		.cfi_startproc
 149              	.LVL5:
 150              		.loc 1 89 0
 151 0000 00B5     		push	{lr}
 152              	.LCFI4:
 153              		.cfi_def_cfa_offset 4
 154              		.cfi_offset 14, -4
 155              	.L12:
 156 0002 FEE7     		b	.L12
 157              		.cfi_endproc
 158              	.LFE9:
 159              		.cantunwind
 160              		.fnend
 161              		.size	_ZN5Print7printlnEc, .-_ZN5Print7printlnEc
 162              		.section	.text._ZN5Print7printlnEPKc,"ax",%progbits
 163              		.align	1
 164              		.global	_ZN5Print7printlnEPKc
 165              		.code	16
 166              		.thumb_func
 167              		.type	_ZN5Print7printlnEPKc, %function
 168              	_ZN5Print7printlnEPKc:
 169              		.fnstart
 170              	.LFB10:
  90:.\Print.cpp   ****   print(c);
  91:.\Print.cpp   ****   println();  
  92:.\Print.cpp   **** }
  93:.\Print.cpp   **** 
  94:.\Print.cpp   **** void Print::println(const char c[])
  95:.\Print.cpp   **** {
 171              		.loc 1 95 0
 172              		.cfi_startproc
 173              	.LVL6:
 174              	.LBB44:
 175              	.LBB45:
  44:.\Print.cpp   ****   while (*c)
 176              		.loc 1 44 0
 177 0000 0B78     		ldrb	r3, [r1]
 178              	.LBE45:
 179              	.LBE44:
 180              		.loc 1 95 0
 181 0002 00B5     		push	{lr}
 182              	.LCFI5:
 183              		.cfi_def_cfa_offset 4
 184              		.cfi_offset 14, -4
 185              	.LBB47:
 186              	.LBB46:
  44:.\Print.cpp   ****   while (*c)
ARM GAS  C:\Users\atsu\AppData\Local\Temp\ccQ4N1Kp.s 			page 6


 187              		.loc 1 44 0
 188 0004 002B     		cmp	r3, #0
 189 0006 00D0     		beq	.L14
 190              	.L18:
 191 0008 FEE7     		b	.L18
 192              	.L14:
 193 000a FEE7     		b	.L14
 194              	.LBE46:
 195              	.LBE47:
 196              		.cfi_endproc
 197              	.LFE10:
 198              		.cantunwind
 199              		.fnend
 200              		.size	_ZN5Print7printlnEPKc, .-_ZN5Print7printlnEPKc
 201              		.section	.text._ZN5Print7printlnEh,"ax",%progbits
 202              		.align	1
 203              		.global	_ZN5Print7printlnEh
 204              		.code	16
 205              		.thumb_func
 206              		.type	_ZN5Print7printlnEh, %function
 207              	_ZN5Print7printlnEh:
 208              		.fnstart
 209              	.LFB11:
  96:.\Print.cpp   ****   print(c);
  97:.\Print.cpp   ****   println();
  98:.\Print.cpp   **** }
  99:.\Print.cpp   **** 
 100:.\Print.cpp   **** void Print::println(uint8_t b)
 101:.\Print.cpp   **** {
 210              		.loc 1 101 0
 211              		.cfi_startproc
 212              	.LVL7:
 213 0000 08B5     		push	{r3, lr}
 214              		.save {r3, lr}
 215              	.LCFI6:
 216              		.cfi_def_cfa_offset 8
 217              		.cfi_offset 3, -8
 218              		.cfi_offset 14, -4
 102:.\Print.cpp   ****   print(b);
 219              		.loc 1 102 0
 220 0002 FFF7FEFF 		bl	_ZN5Print5printEh
 221              	.LVL8:
 222              	.L20:
 223 0006 FEE7     		b	.L20
 224              		.cfi_endproc
 225              	.LFE11:
 226              		.fnend
 227              		.size	_ZN5Print7printlnEh, .-_ZN5Print7printlnEh
 228              		.global	__aeabi_uidiv
 229              		.section	.text._ZN5Print11printNumberEmh,"ax",%progbits
 230              		.align	1
 231              		.global	_ZN5Print11printNumberEmh
 232              		.code	16
 233              		.thumb_func
 234              		.type	_ZN5Print11printNumberEmh, %function
 235              	_ZN5Print11printNumberEmh:
 236              		.fnstart
ARM GAS  C:\Users\atsu\AppData\Local\Temp\ccQ4N1Kp.s 			page 7


 237              	.LFB17:
 103:.\Print.cpp   ****   println();
 104:.\Print.cpp   **** }
 105:.\Print.cpp   **** 
 106:.\Print.cpp   **** void Print::println(int n)
 107:.\Print.cpp   **** {
 108:.\Print.cpp   ****   print(n);
 109:.\Print.cpp   ****   println();
 110:.\Print.cpp   **** }
 111:.\Print.cpp   **** 
 112:.\Print.cpp   **** void Print::println(unsigned int n)
 113:.\Print.cpp   **** {
 114:.\Print.cpp   ****   print(n);
 115:.\Print.cpp   ****   println();
 116:.\Print.cpp   **** }
 117:.\Print.cpp   **** 
 118:.\Print.cpp   **** void Print::println(long n)
 119:.\Print.cpp   **** {
 120:.\Print.cpp   ****   print(n);
 121:.\Print.cpp   ****   println();  
 122:.\Print.cpp   **** }
 123:.\Print.cpp   **** 
 124:.\Print.cpp   **** void Print::println(unsigned long n)
 125:.\Print.cpp   **** {
 126:.\Print.cpp   ****   print(n);
 127:.\Print.cpp   ****   println();  
 128:.\Print.cpp   **** }
 129:.\Print.cpp   **** 
 130:.\Print.cpp   **** void Print::println(long n, int base)
 131:.\Print.cpp   **** {
 132:.\Print.cpp   ****   print(n, base);
 133:.\Print.cpp   ****   println();
 134:.\Print.cpp   **** }
 135:.\Print.cpp   **** 
 136:.\Print.cpp   **** // Private Methods /////////////////////////////////////////////////////////////
 137:.\Print.cpp   **** 
 138:.\Print.cpp   **** void Print::printNumber(unsigned long n, uint8_t base)
 139:.\Print.cpp   **** {
 238              		.loc 1 139 0
 239              		.cfi_startproc
 240              	.LVL9:
 241 0000 38B5     		push	{r3, r4, r5, lr}
 242              	.LCFI7:
 243              		.cfi_def_cfa_offset 16
 244              		.cfi_offset 3, -16
 245              		.cfi_offset 4, -12
 246              		.cfi_offset 5, -8
 247              		.cfi_offset 14, -4
 248              		.loc 1 139 0
 249 0002 081C     		mov	r0, r1
 250              	.LVL10:
 251 0004 151C     		mov	r5, r2
 252              	.LBB48:
 140:.\Print.cpp   ****   unsigned char buf[8 * sizeof(long)]; // Assumes 8-bit chars. 
 141:.\Print.cpp   ****   unsigned long i = 0;
 142:.\Print.cpp   **** 
 143:.\Print.cpp   ****   if (n == 0) {
ARM GAS  C:\Users\atsu\AppData\Local\Temp\ccQ4N1Kp.s 			page 8


 253              		.loc 1 143 0
 254 0006 0029     		cmp	r1, #0
 255 0008 00D1     		bne	.L22
 256              	.L23:
 257 000a FEE7     		b	.L23
 258              	.L22:
 259 000c 0024     		mov	r4, #0
 260              	.LVL11:
 261              	.L24:
 144:.\Print.cpp   ****     print('0');
 145:.\Print.cpp   ****     return;
 146:.\Print.cpp   ****   } 
 147:.\Print.cpp   **** 
 148:.\Print.cpp   ****   while (n > 0) {
 149:.\Print.cpp   ****     buf[i++] = n % base;
 150:.\Print.cpp   ****     n /= base;
 262              		.loc 1 150 0
 263 000e 291C     		mov	r1, r5
 149:.\Print.cpp   ****     buf[i++] = n % base;
 264              		.loc 1 149 0
 265 0010 0134     		add	r4, r4, #1
 266              	.LVL12:
 267              		.loc 1 150 0
 268 0012 FFF7FEFF 		bl	__aeabi_uidiv
 269              	.LVL13:
 148:.\Print.cpp   ****   while (n > 0) {
 270              		.loc 1 148 0
 271 0016 0028     		cmp	r0, #0
 272 0018 F9D1     		bne	.L24
 151:.\Print.cpp   ****   }
 152:.\Print.cpp   **** 
 153:.\Print.cpp   ****   for (; i > 0; i--)
 273              		.loc 1 153 0 discriminator 1
 274 001a 002C     		cmp	r4, #0
 275 001c 00D0     		beq	.L30
 276              	.L28:
 277 001e FEE7     		b	.L28
 278              	.L30:
 279              	.LBE48:
 154:.\Print.cpp   ****     print((char) (buf[i - 1] < 10 ?
 155:.\Print.cpp   ****       '0' + buf[i - 1] :
 156:.\Print.cpp   ****       'A' + buf[i - 1] - 10));
 157:.\Print.cpp   **** }
 280              		.loc 1 157 0
 281              		@ sp needed for prologue
 282              	.LVL14:
 283 0020 38BD     		pop	{r3, r4, r5, pc}
 284              		.cfi_endproc
 285              	.LFE17:
 286              		.cantunwind
 287              		.fnend
 288              		.size	_ZN5Print11printNumberEmh, .-_ZN5Print11printNumberEmh
 289              		.section	.text._ZN5Print5printEm,"ax",%progbits
 290              		.align	1
 291              		.global	_ZN5Print5printEm
 292              		.code	16
 293              		.thumb_func
ARM GAS  C:\Users\atsu\AppData\Local\Temp\ccQ4N1Kp.s 			page 9


 294              		.type	_ZN5Print5printEm, %function
 295              	_ZN5Print5printEm:
 296              		.fnstart
 297              	.LFB6:
  68:.\Print.cpp   **** {
 298              		.loc 1 68 0
 299              		.cfi_startproc
 300              	.LVL15:
 301 0000 08B5     		push	{r3, lr}
 302              	.LCFI8:
 303              		.cfi_def_cfa_offset 8
 304              		.cfi_offset 3, -8
 305              		.cfi_offset 14, -4
  69:.\Print.cpp   ****   printNumber(n, 10);
 306              		.loc 1 69 0
 307 0002 0A22     		mov	r2, #10
 308 0004 FFF7FEFF 		bl	_ZN5Print11printNumberEmh
 309              	.LVL16:
  70:.\Print.cpp   **** }
 310              		.loc 1 70 0
 311              		@ sp needed for prologue
 312 0008 08BD     		pop	{r3, pc}
 313              		.cfi_endproc
 314              	.LFE6:
 315              		.cantunwind
 316              		.fnend
 317              		.size	_ZN5Print5printEm, .-_ZN5Print5printEm
 318              		.section	.text._ZN5Print7printlnEm,"ax",%progbits
 319              		.align	1
 320              		.global	_ZN5Print7printlnEm
 321              		.code	16
 322              		.thumb_func
 323              		.type	_ZN5Print7printlnEm, %function
 324              	_ZN5Print7printlnEm:
 325              		.fnstart
 326              	.LFB15:
 125:.\Print.cpp   **** {
 327              		.loc 1 125 0
 328              		.cfi_startproc
 329              	.LVL17:
 330 0000 08B5     		push	{r3, lr}
 331              	.LCFI9:
 332              		.cfi_def_cfa_offset 8
 333              		.cfi_offset 3, -8
 334              		.cfi_offset 14, -4
 126:.\Print.cpp   ****   print(n);
 335              		.loc 1 126 0
 336 0002 FFF7FEFF 		bl	_ZN5Print5printEm
 337              	.LVL18:
 338              	.L33:
 339 0006 FEE7     		b	.L33
 340              		.cfi_endproc
 341              	.LFE15:
 342              		.cantunwind
 343              		.fnend
 344              		.size	_ZN5Print7printlnEm, .-_ZN5Print7printlnEm
 345              		.section	.text._ZN5Print5printEj,"ax",%progbits
ARM GAS  C:\Users\atsu\AppData\Local\Temp\ccQ4N1Kp.s 			page 10


 346              		.align	1
 347              		.global	_ZN5Print5printEj
 348              		.code	16
 349              		.thumb_func
 350              		.type	_ZN5Print5printEj, %function
 351              	_ZN5Print5printEj:
 352              		.fnstart
 353              	.LFB4:
  54:.\Print.cpp   **** {
 354              		.loc 1 54 0
 355              		.cfi_startproc
 356              	.LVL19:
 357 0000 08B5     		push	{r3, lr}
 358              	.LCFI10:
 359              		.cfi_def_cfa_offset 8
 360              		.cfi_offset 3, -8
 361              		.cfi_offset 14, -4
  55:.\Print.cpp   ****   print((unsigned long) n);
 362              		.loc 1 55 0
 363 0002 FFF7FEFF 		bl	_ZN5Print5printEm
 364              	.LVL20:
  56:.\Print.cpp   **** }
 365              		.loc 1 56 0
 366              		@ sp needed for prologue
 367 0006 08BD     		pop	{r3, pc}
 368              		.cfi_endproc
 369              	.LFE4:
 370              		.cantunwind
 371              		.fnend
 372              		.size	_ZN5Print5printEj, .-_ZN5Print5printEj
 373              		.section	.text._ZN5Print7printlnEj,"ax",%progbits
 374              		.align	1
 375              		.global	_ZN5Print7printlnEj
 376              		.code	16
 377              		.thumb_func
 378              		.type	_ZN5Print7printlnEj, %function
 379              	_ZN5Print7printlnEj:
 380              		.fnstart
 381              	.LFB13:
 113:.\Print.cpp   **** {
 382              		.loc 1 113 0
 383              		.cfi_startproc
 384              	.LVL21:
 385 0000 08B5     		push	{r3, lr}
 386              	.LCFI11:
 387              		.cfi_def_cfa_offset 8
 388              		.cfi_offset 3, -8
 389              		.cfi_offset 14, -4
 390              	.LBB49:
 391              	.LBB50:
  55:.\Print.cpp   ****   print((unsigned long) n);
 392              		.loc 1 55 0
 393 0002 FFF7FEFF 		bl	_ZN5Print5printEm
 394              	.LVL22:
 395              	.L36:
 396 0006 FEE7     		b	.L36
 397              	.LBE50:
ARM GAS  C:\Users\atsu\AppData\Local\Temp\ccQ4N1Kp.s 			page 11


 398              	.LBE49:
 399              		.cfi_endproc
 400              	.LFE13:
 401              		.cantunwind
 402              		.fnend
 403              		.size	_ZN5Print7printlnEj, .-_ZN5Print7printlnEj
 404              		.section	.text._ZN5Print5printEl,"ax",%progbits
 405              		.align	1
 406              		.global	_ZN5Print5printEl
 407              		.code	16
 408              		.thumb_func
 409              		.type	_ZN5Print5printEl, %function
 410              	_ZN5Print5printEl:
 411              		.fnstart
 412              	.LFB5:
  59:.\Print.cpp   **** {
 413              		.loc 1 59 0
 414              		.cfi_startproc
 415              	.LVL23:
 416 0000 08B5     		push	{r3, lr}
 417              	.LCFI12:
 418              		.cfi_def_cfa_offset 8
 419              		.cfi_offset 3, -8
 420              		.cfi_offset 14, -4
  60:.\Print.cpp   ****   if (n < 0) {
 421              		.loc 1 60 0
 422 0002 0029     		cmp	r1, #0
 423 0004 00DA     		bge	.L38
 424              	.L40:
 425 0006 FEE7     		b	.L40
 426              	.L38:
  64:.\Print.cpp   ****   printNumber(n, 10);
 427              		.loc 1 64 0
 428 0008 0A22     		mov	r2, #10
 429 000a FFF7FEFF 		bl	_ZN5Print11printNumberEmh
 430              	.LVL24:
  65:.\Print.cpp   **** }
 431              		.loc 1 65 0
 432              		@ sp needed for prologue
 433 000e 08BD     		pop	{r3, pc}
 434              		.cfi_endproc
 435              	.LFE5:
 436              		.cantunwind
 437              		.fnend
 438              		.size	_ZN5Print5printEl, .-_ZN5Print5printEl
 439              		.section	.text._ZN5Print7printlnEl,"ax",%progbits
 440              		.align	1
 441              		.global	_ZN5Print7printlnEl
 442              		.code	16
 443              		.thumb_func
 444              		.type	_ZN5Print7printlnEl, %function
 445              	_ZN5Print7printlnEl:
 446              		.fnstart
 447              	.LFB14:
 119:.\Print.cpp   **** {
 448              		.loc 1 119 0
 449              		.cfi_startproc
ARM GAS  C:\Users\atsu\AppData\Local\Temp\ccQ4N1Kp.s 			page 12


 450              	.LVL25:
 451 0000 08B5     		push	{r3, lr}
 452              	.LCFI13:
 453              		.cfi_def_cfa_offset 8
 454              		.cfi_offset 3, -8
 455              		.cfi_offset 14, -4
 120:.\Print.cpp   ****   print(n);
 456              		.loc 1 120 0
 457 0002 FFF7FEFF 		bl	_ZN5Print5printEl
 458              	.LVL26:
 459              	.L42:
 460 0006 FEE7     		b	.L42
 461              		.cfi_endproc
 462              	.LFE14:
 463              		.cantunwind
 464              		.fnend
 465              		.size	_ZN5Print7printlnEl, .-_ZN5Print7printlnEl
 466              		.section	.text._ZN5Print5printEi,"ax",%progbits
 467              		.align	1
 468              		.global	_ZN5Print5printEi
 469              		.code	16
 470              		.thumb_func
 471              		.type	_ZN5Print5printEi, %function
 472              	_ZN5Print5printEi:
 473              		.fnstart
 474              	.LFB3:
  49:.\Print.cpp   **** {
 475              		.loc 1 49 0
 476              		.cfi_startproc
 477              	.LVL27:
 478 0000 08B5     		push	{r3, lr}
 479              	.LCFI14:
 480              		.cfi_def_cfa_offset 8
 481              		.cfi_offset 3, -8
 482              		.cfi_offset 14, -4
  50:.\Print.cpp   ****   print((long) n);
 483              		.loc 1 50 0
 484 0002 FFF7FEFF 		bl	_ZN5Print5printEl
 485              	.LVL28:
  51:.\Print.cpp   **** }
 486              		.loc 1 51 0
 487              		@ sp needed for prologue
 488 0006 08BD     		pop	{r3, pc}
 489              		.cfi_endproc
 490              	.LFE3:
 491              		.cantunwind
 492              		.fnend
 493              		.size	_ZN5Print5printEi, .-_ZN5Print5printEi
 494              		.section	.text._ZN5Print7printlnEi,"ax",%progbits
 495              		.align	1
 496              		.global	_ZN5Print7printlnEi
 497              		.code	16
 498              		.thumb_func
 499              		.type	_ZN5Print7printlnEi, %function
 500              	_ZN5Print7printlnEi:
 501              		.fnstart
 502              	.LFB12:
ARM GAS  C:\Users\atsu\AppData\Local\Temp\ccQ4N1Kp.s 			page 13


 107:.\Print.cpp   **** {
 503              		.loc 1 107 0
 504              		.cfi_startproc
 505              	.LVL29:
 506 0000 08B5     		push	{r3, lr}
 507              	.LCFI15:
 508              		.cfi_def_cfa_offset 8
 509              		.cfi_offset 3, -8
 510              		.cfi_offset 14, -4
 511              	.LBB51:
 512              	.LBB52:
  50:.\Print.cpp   ****   print((long) n);
 513              		.loc 1 50 0
 514 0002 FFF7FEFF 		bl	_ZN5Print5printEl
 515              	.LVL30:
 516              	.L45:
 517 0006 FEE7     		b	.L45
 518              	.LBE52:
 519              	.LBE51:
 520              		.cfi_endproc
 521              	.LFE12:
 522              		.cantunwind
 523              		.fnend
 524              		.size	_ZN5Print7printlnEi, .-_ZN5Print7printlnEi
 525              		.section	.text._ZN5Print5printEli,"ax",%progbits
 526              		.align	1
 527              		.global	_ZN5Print5printEli
 528              		.code	16
 529              		.thumb_func
 530              		.type	_ZN5Print5printEli, %function
 531              	_ZN5Print5printEli:
 532              		.fnstart
 533              	.LFB7:
  73:.\Print.cpp   **** {
 534              		.loc 1 73 0
 535              		.cfi_startproc
 536              	.LVL31:
 537 0000 08B5     		push	{r3, lr}
 538              	.LCFI16:
 539              		.cfi_def_cfa_offset 8
 540              		.cfi_offset 3, -8
 541              		.cfi_offset 14, -4
  74:.\Print.cpp   ****   if (base == 0)
 542              		.loc 1 74 0
 543 0002 002A     		cmp	r2, #0
 544 0004 00D1     		bne	.L47
 545              	.L48:
 546 0006 FEE7     		b	.L48
 547              	.L47:
  76:.\Print.cpp   ****   else if (base == 10)
 548              		.loc 1 76 0
 549 0008 0A2A     		cmp	r2, #10
 550 000a 02D1     		bne	.L49
  77:.\Print.cpp   ****     print(n);
 551              		.loc 1 77 0
 552 000c FFF7FEFF 		bl	_ZN5Print5printEl
 553              	.LVL32:
ARM GAS  C:\Users\atsu\AppData\Local\Temp\ccQ4N1Kp.s 			page 14


 554 0010 02E0     		b	.L46
 555              	.LVL33:
 556              	.L49:
  79:.\Print.cpp   ****     printNumber(n, base);
 557              		.loc 1 79 0
 558 0012 D2B2     		uxtb	r2, r2
 559              	.LVL34:
 560 0014 FFF7FEFF 		bl	_ZN5Print11printNumberEmh
 561              	.LVL35:
 562              	.L46:
  80:.\Print.cpp   **** }
 563              		.loc 1 80 0
 564              		@ sp needed for prologue
 565 0018 08BD     		pop	{r3, pc}
 566              		.cfi_endproc
 567              	.LFE7:
 568              		.cantunwind
 569              		.fnend
 570              		.size	_ZN5Print5printEli, .-_ZN5Print5printEli
 571              		.section	.text._ZN5Print7printlnEli,"ax",%progbits
 572              		.align	1
 573              		.global	_ZN5Print7printlnEli
 574              		.code	16
 575              		.thumb_func
 576              		.type	_ZN5Print7printlnEli, %function
 577              	_ZN5Print7printlnEli:
 578              		.fnstart
 579              	.LFB16:
 131:.\Print.cpp   **** {
 580              		.loc 1 131 0
 581              		.cfi_startproc
 582              	.LVL36:
 583 0000 08B5     		push	{r3, lr}
 584              	.LCFI17:
 585              		.cfi_def_cfa_offset 8
 586              		.cfi_offset 3, -8
 587              		.cfi_offset 14, -4
 132:.\Print.cpp   ****   print(n, base);
 588              		.loc 1 132 0
 589 0002 FFF7FEFF 		bl	_ZN5Print5printEli
 590              	.LVL37:
 591              	.L52:
 592 0006 FEE7     		b	.L52
 593              		.cfi_endproc
 594              	.LFE16:
 595              		.cantunwind
 596              		.fnend
 597              		.size	_ZN5Print7printlnEli, .-_ZN5Print7printlnEli
 598              		.text
 599              	.Letext0:
 600              		.file 2 "c:\\program files (x86)\\cypress\\psoc creator\\3.0\\psoc creator\\import\\gnu_cs\\arm\\4