ARM GAS  C:\Users\atsu\AppData\Local\Temp\ccHqmdVY.s 			page 1


   1              		.cpu cortex-m0
   2              		.fpu softvfp
   3              		.eabi_attribute 20, 1
   4              		.eabi_attribute 21, 1
   5              		.eabi_attribute 23, 3
   6              		.eabi_attribute 24, 1
   7              		.eabi_attribute 25, 1
   8              		.eabi_attribute 26, 1
   9              		.eabi_attribute 30, 4
  10              		.eabi_attribute 34, 0
  11              		.eabi_attribute 18, 4
  12              		.code	16
  13              		.file	"Server.cpp"
  14              		.text
  15              	.Ltext0:
  16              		.cfi_sections	.debug_frame
  17              		.section	.text._ZN6ServerC2Et,"ax",%progbits
  18              		.align	1
  19              		.global	_ZN6ServerC2Et
  20              		.code	16
  21              		.thumb_func
  22              		.type	_ZN6ServerC2Et, %function
  23              	_ZN6ServerC2Et:
  24              		.fnstart
  25              	.LFB4:
  26              		.file 1 ".\\Server.cpp"
   1:.\Server.cpp  **** extern "C" {
   2:.\Server.cpp  ****   #include "types.h"
   3:.\Server.cpp  ****   #include "w5100.h"
   4:.\Server.cpp  ****   #include "socket.h"
   5:.\Server.cpp  **** }
   6:.\Server.cpp  **** 
   7:.\Server.cpp  **** #include "Ethernet.h"
   8:.\Server.cpp  **** #include "Client.h"
   9:.\Server.cpp  **** #include "Server.h"
  10:.\Server.cpp  **** 
  11:.\Server.cpp  **** Server::Server(uint16_t port)
  27              		.loc 1 11 0
  28              		.cfi_startproc
  29              	.LVL0:
  30              	.LBB10:
  31              		.loc 1 11 0
  32 0000 064B     		ldr	r3, .L2
  12:.\Server.cpp  **** {
  13:.\Server.cpp  ****   _port = port;
  33              		.loc 1 13 0
  34 0002 0171     		strb	r1, [r0, #4]
  11:.\Server.cpp  **** Server::Server(uint16_t port)
  35              		.loc 1 11 0
  36 0004 0833     		add	r3, r3, #8
  37 0006 1A0A     		lsr	r2, r3, #8
  38 0008 0370     		strb	r3, [r0]
  39 000a 4270     		strb	r2, [r0, #1]
  40              		.loc 1 13 0
  41 000c 090A     		lsr	r1, r1, #8
  42              	.LVL1:
  11:.\Server.cpp  **** Server::Server(uint16_t port)
ARM GAS  C:\Users\atsu\AppData\Local\Temp\ccHqmdVY.s 			page 2


  43              		.loc 1 11 0
  44 000e 1A0C     		lsr	r2, r3, #16
  45 0010 1B0E     		lsr	r3, r3, #24
  46 0012 8270     		strb	r2, [r0, #2]
  47 0014 C370     		strb	r3, [r0, #3]
  48              		.loc 1 13 0
  49 0016 4171     		strb	r1, [r0, #5]
  50              	.LBE10:
  14:.\Server.cpp  **** }
  51              		.loc 1 14 0
  52              		@ sp needed for prologue
  53 0018 7047     		bx	lr
  54              	.L3:
  55 001a C046     		.align	2
  56              	.L2:
  57 001c 00000000 		.word	.LANCHOR0
  58              		.cfi_endproc
  59              	.LFE4:
  60              		.cantunwind
  61              		.fnend
  62              		.size	_ZN6ServerC2Et, .-_ZN6ServerC2Et
  63              		.global	_ZN6ServerC1Et
  64              		.thumb_set _ZN6ServerC1Et,_ZN6ServerC2Et
  65              		.section	.text._ZN6Server5beginEv,"ax",%progbits
  66              		.align	1
  67              		.global	_ZN6Server5beginEv
  68              		.code	16
  69              		.thumb_func
  70              		.type	_ZN6Server5beginEv, %function
  71              	_ZN6Server5beginEv:
  72              		.fnstart
  73              	.LFB6:
  15:.\Server.cpp  **** 
  16:.\Server.cpp  **** void Server::begin()
  17:.\Server.cpp  **** {
  74              		.loc 1 17 0
  75              		.cfi_startproc
  76              	.LVL2:
  77 0000 7FB5     		push	{r0, r1, r2, r3, r4, r5, r6, lr}
  78              		.save {r0, r1, r2, r3, r4, r5, r6, lr}
  79              	.LCFI0:
  80              		.cfi_def_cfa_offset 32
  81              		.cfi_offset 0, -32
  82              		.cfi_offset 1, -28
  83              		.cfi_offset 2, -24
  84              		.cfi_offset 3, -20
  85              		.cfi_offset 4, -16
  86              		.cfi_offset 5, -12
  87              		.cfi_offset 6, -8
  88              		.cfi_offset 14, -4
  89              		.loc 1 17 0
  90 0002 051C     		mov	r5, r0
  18:.\Server.cpp  ****   for (int sock = 0; sock < MAX_SOCK_NUM; sock++) {
  91              		.loc 1 18 0
  92 0004 0024     		mov	r4, #0
  93              	.LVL3:
  94              	.L7:
ARM GAS  C:\Users\atsu\AppData\Local\Temp\ccHqmdVY.s 			page 3


  95              	.LBB11:
  96              	.LBB12:
  19:.\Server.cpp  ****     Client client(sock);
  97              		.loc 1 19 0
  98 0006 E6B2     		uxtb	r6, r4
  99 0008 311C     		mov	r1, r6
 100 000a 01A8     		add	r0, sp, #4
 101 000c FFF7FEFF 		bl	_ZN6ClientC1Eh
 102              	.LVL4:
  20:.\Server.cpp  ****     if (client.status() == SOCK_CLOSED) {
 103              		.loc 1 20 0
 104 0010 01A8     		add	r0, sp, #4
 105 0012 FFF7FEFF 		bl	_ZN6Client6statusEv
 106              	.LVL5:
 107 0016 031E     		sub	r3, r0, #0
 108 0018 12D1     		bne	.L5
  21:.\Server.cpp  ****       socket(sock, Sn_MR_TCP, _port, 0);
 109              		.loc 1 21 0
 110 001a 6A79     		ldrb	r2, [r5, #5]
 111 001c 2979     		ldrb	r1, [r5, #4]
 112 001e 1202     		lsl	r2, r2, #8
 113 0020 0A43     		orr	r2, r1
 114 0022 301C     		mov	r0, r6
 115 0024 0121     		mov	r1, #1
 116 0026 FFF7FEFF 		bl	socket
 117              	.LVL6:
  22:.\Server.cpp  ****       listen(sock);
 118              		.loc 1 22 0
 119 002a 301C     		mov	r0, r6
 120 002c FFF7FEFF 		bl	listen
 121              	.LVL7:
  23:.\Server.cpp  ****       EthernetClass::_server_port[sock] = _port;
 122              		.loc 1 23 0
 123 0030 6879     		ldrb	r0, [r5, #5]
 124 0032 2B79     		ldrb	r3, [r5, #4]
 125 0034 044E     		ldr	r6, .L10
 126 0036 0502     		lsl	r5, r0, #8
 127              	.LVL8:
 128 0038 1D43     		orr	r5, r3
 129 003a 6400     		lsl	r4, r4, #1
 130 003c A553     		strh	r5, [r4, r6]
 131 003e 02E0     		b	.L4
 132              	.LVL9:
 133              	.L5:
 134              	.LBE12:
  18:.\Server.cpp  ****   for (int sock = 0; sock < MAX_SOCK_NUM; sock++) {
 135              		.loc 1 18 0
 136 0040 0134     		add	r4, r4, #1
 137              	.LVL10:
 138 0042 042C     		cmp	r4, #4
 139 0044 DFD1     		bne	.L7
 140              	.LVL11:
 141              	.L4:
 142              	.LBE11:
  24:.\Server.cpp  ****       break;
  25:.\Server.cpp  ****     }
  26:.\Server.cpp  ****   }  
ARM GAS  C:\Users\atsu\AppData\Local\Temp\ccHqmdVY.s 			page 4


  27:.\Server.cpp  **** }
 143              		.loc 1 27 0
 144              		@ sp needed for prologue
 145 0046 7FBD     		pop	{r0, r1, r2, r3, r4, r5, r6, pc}
 146              	.L11:
 147              		.align	2
 148              	.L10:
 149 0048 00000000 		.word	_ZN13EthernetClass12_server_portE
 150              		.cfi_endproc
 151              	.LFE6:
 152              		.fnend
 153              		.size	_ZN6Server5beginEv, .-_ZN6Server5beginEv
 154              		.section	.text._ZN6Server6acceptEv,"ax",%progbits
 155              		.align	1
 156              		.global	_ZN6Server6acceptEv
 157              		.code	16
 158              		.thumb_func
 159              		.type	_ZN6Server6acceptEv, %function
 160              	_ZN6Server6acceptEv:
 161              		.fnstart
 162              	.LFB7:
  28:.\Server.cpp  **** 
  29:.\Server.cpp  **** void Server::accept()
  30:.\Server.cpp  **** {
 163              		.loc 1 30 0
 164              		.cfi_startproc
 165              	.LVL12:
 166 0000 7FB5     		push	{r0, r1, r2, r3, r4, r5, r6, lr}
 167              		.save {r0, r1, r2, r3, r4, r5, r6, lr}
 168              	.LCFI1:
 169              		.cfi_def_cfa_offset 32
 170              		.cfi_offset 0, -32
 171              		.cfi_offset 1, -28
 172              		.cfi_offset 2, -24
 173              		.cfi_offset 3, -20
 174              		.cfi_offset 4, -16
 175              		.cfi_offset 5, -12
 176              		.cfi_offset 6, -8
 177              		.cfi_offset 14, -4
  31:.\Server.cpp  ****   int listening = 0;
  32:.\Server.cpp  ****   
  33:.\Server.cpp  ****   for (int sock = 0; sock < MAX_SOCK_NUM; sock++) {
 178              		.loc 1 33 0
 179 0002 0024     		mov	r4, #0
  30:.\Server.cpp  **** {
 180              		.loc 1 30 0
 181 0004 051C     		mov	r5, r0
  31:.\Server.cpp  ****   int listening = 0;
 182              		.loc 1 31 0
 183 0006 261C     		mov	r6, r4
 184              	.LVL13:
 185              	.L16:
 186              	.LBB13:
 187              	.LBB14:
 188              	.LBB15:
  34:.\Server.cpp  ****     Client client(sock);
 189              		.loc 1 34 0
ARM GAS  C:\Users\atsu\AppData\Local\Temp\ccHqmdVY.s 			page 5


 190 0008 E1B2     		uxtb	r1, r4
 191 000a 01A8     		add	r0, sp, #4
 192 000c FFF7FEFF 		bl	_ZN6ClientC1Eh
 193              	.LVL14:
  35:.\Server.cpp  ****     
  36:.\Server.cpp  ****     if (EthernetClass::_server_port[sock] == _port) {
 194              		.loc 1 36 0
 195 0010 1348     		ldr	r0, .L20
  29:.\Server.cpp  **** void Server::accept()
 196              		.loc 1 29 0
 197 0012 6200     		lsl	r2, r4, #1
 198              		.loc 1 36 0
 199 0014 6B79     		ldrb	r3, [r5, #5]
 200 0016 2979     		ldrb	r1, [r5, #4]
 201 0018 825A     		ldrh	r2, [r0, r2]
 202 001a 1B02     		lsl	r3, r3, #8
 203 001c 0B43     		orr	r3, r1
 204 001e 9A42     		cmp	r2, r3
 205 0020 10D1     		bne	.L13
  37:.\Server.cpp  ****       if (client.status() == SOCK_LISTEN) {
 206              		.loc 1 37 0
 207 0022 01A8     		add	r0, sp, #4
 208 0024 FFF7FEFF 		bl	_ZN6Client6statusEv
 209              	.LVL15:
 210 0028 1428     		cmp	r0, #20
 211 002a 0AD0     		beq	.L18
  38:.\Server.cpp  ****         listening = 1;
  39:.\Server.cpp  ****       } else if (client.status() == SOCK_CLOSE_WAIT && !client.available()) {
 212              		.loc 1 39 0
 213 002c 01A8     		add	r0, sp, #4
 214 002e FFF7FEFF 		bl	_ZN6Client6statusEv
 215              	.LVL16:
 216 0032 1C28     		cmp	r0, #28
 217 0034 06D1     		bne	.L13
 218              		.loc 1 39 0 is_stmt 0 discriminator 1
 219 0036 01A8     		add	r0, sp, #4
 220 0038 FFF7FEFF 		bl	_ZN6Client9availableEv
 221              	.LVL17:
 222 003c 0028     		cmp	r0, #0
 223 003e 0AD0     		beq	.L15
 224 0040 00E0     		b	.L13
 225              	.L18:
  38:.\Server.cpp  ****         listening = 1;
 226              		.loc 1 38 0 is_stmt 1
 227 0042 0126     		mov	r6, #1
 228              	.L13:
 229              	.LBE15:
  33:.\Server.cpp  ****   for (int sock = 0; sock < MAX_SOCK_NUM; sock++) {
 230              		.loc 1 33 0
 231 0044 0134     		add	r4, r4, #1
 232              	.LVL18:
 233 0046 042C     		cmp	r4, #4
 234 0048 DED1     		bne	.L16
 235              	.LBE14:
  40:.\Server.cpp  ****         client.stop();
  41:.\Server.cpp  ****       }
  42:.\Server.cpp  ****     } 
ARM GAS  C:\Users\atsu\AppData\Local\Temp\ccHqmdVY.s 			page 6


  43:.\Server.cpp  ****   }
  44:.\Server.cpp  ****   
  45:.\Server.cpp  ****   if (!listening) {
 236              		.loc 1 45 0
 237 004a 002E     		cmp	r6, #0
 238 004c 07D1     		bne	.L12
  46:.\Server.cpp  ****     begin();
 239              		.loc 1 46 0
 240 004e 281C     		mov	r0, r5
 241 0050 FFF7FEFF 		bl	_ZN6Server5beginEv
 242              	.LVL19:
 243 0054 03E0     		b	.L12
 244              	.LVL20:
 245              	.L15:
 246              	.LBB17:
 247              	.LBB16:
  40:.\Server.cpp  ****         client.stop();
 248              		.loc 1 40 0
 249 0056 01A8     		add	r0, sp, #4
 250 0058 FFF7FEFF 		bl	_ZN6Client4stopEv
 251              	.LVL21:
 252 005c F2E7     		b	.L13
 253              	.LVL22:
 254              	.L12:
 255              	.LBE16:
 256              	.LBE17:
 257              	.LBE13:
  47:.\Server.cpp  ****   }
  48:.\Server.cpp  **** }
 258              		.loc 1 48 0
 259              		@ sp needed for prologue
 260              	.LVL23:
 261              	.LVL24:
 262 005e 7FBD     		pop	{r0, r1, r2, r3, r4, r5, r6, pc}
 263              	.L21:
 264              		.align	2
 265              	.L20:
 266 0060 00000000 		.word	_ZN13EthernetClass12_server_portE
 267              		.cfi_endproc
 268              	.LFE7:
 269              		.fnend
 270              		.size	_ZN6Server6acceptEv, .-_ZN6Server6acceptEv
 271              		.section	.text._ZN6Server9availableEv,"ax",%progbits
 272              		.align	1
 273              		.global	_ZN6Server9availableEv
 274              		.code	16
 275              		.thumb_func
 276              		.type	_ZN6Server9availableEv, %function
 277              	_ZN6Server9availableEv:
 278              		.fnstart
 279              	.LFB8:
  49:.\Server.cpp  **** 
  50:.\Server.cpp  **** Client Server::available()
  51:.\Server.cpp  **** {
 280              		.loc 1 51 0
 281              		.cfi_startproc
 282              	.LVL25:
ARM GAS  C:\Users\atsu\AppData\Local\Temp\ccHqmdVY.s 			page 7


 283 0000 F0B5     		push	{r4, r5, r6, r7, lr}
 284              		.save {r4, r5, r6, r7, lr}
 285              	.LCFI2:
 286              		.cfi_def_cfa_offset 20
 287              		.cfi_offset 4, -20
 288              		.cfi_offset 5, -16
 289              		.cfi_offset 6, -12
 290              		.cfi_offset 7, -8
 291              		.cfi_offset 14, -4
 292 0002 041C     		mov	r4, r0
 293              		.pad #20
 294 0004 85B0     		sub	sp, sp, #20
 295              	.LCFI3:
 296              		.cfi_def_cfa_offset 40
 297              	.LBB26:
  52:.\Server.cpp  ****   accept();
 298              		.loc 1 52 0
 299 0006 081C     		mov	r0, r1
 300              	.LVL26:
 301              	.LBE26:
  51:.\Server.cpp  **** {
 302              		.loc 1 51 0
 303 0008 0F1C     		mov	r7, r1
 304              	.LBB33:
 305              		.loc 1 52 0
 306 000a FFF7FEFF 		bl	_ZN6Server6acceptEv
 307              	.LVL27:
  53:.\Server.cpp  ****   
  54:.\Server.cpp  ****   for (int sock = 0; sock < MAX_SOCK_NUM; sock++) {
 308              		.loc 1 54 0
 309 000e 0026     		mov	r6, #0
 310              	.LVL28:
 311              	.L26:
 312              	.LBB27:
 313              	.LBB28:
  55:.\Server.cpp  ****     Client client(sock);
 314              		.loc 1 55 0
 315 0010 01AD     		add	r5, sp, #4
 316 0012 F1B2     		uxtb	r1, r6
 317 0014 281C     		mov	r0, r5
 318 0016 FFF7FEFF 		bl	_ZN6ClientC1Eh
 319              	.LVL29:
  56:.\Server.cpp  ****     if (EthernetClass::_server_port[sock] == _port &&
 320              		.loc 1 56 0
 321 001a 1D48     		ldr	r0, .L31
  50:.\Server.cpp  **** Client Server::available()
 322              		.loc 1 50 0
 323 001c 7200     		lsl	r2, r6, #1
 324              		.loc 1 56 0
 325 001e 7B79     		ldrb	r3, [r7, #5]
 326 0020 3979     		ldrb	r1, [r7, #4]
 327 0022 825A     		ldrh	r2, [r0, r2]
 328 0024 1B02     		lsl	r3, r3, #8
 329 0026 0B43     		orr	r3, r1
 330 0028 9A42     		cmp	r2, r3
 331 002a 04D1     		bne	.L28
  57:.\Server.cpp  ****         client.status() == SOCK_ESTABLISHED) {
ARM GAS  C:\Users\atsu\AppData\Local\Temp\ccHqmdVY.s 			page 8


 332              		.loc 1 57 0
 333 002c 281C     		mov	r0, r5
 334 002e FFF7FEFF 		bl	_ZN6Client6statusEv
 335              	.LVL30:
  56:.\Server.cpp  ****     if (EthernetClass::_server_port[sock] == _port &&
 336              		.loc 1 56 0
 337 0032 1728     		cmp	r0, #23
 338 0034 07D0     		beq	.L30
 339              	.L28:
 340              	.LBE28:
  54:.\Server.cpp  ****   for (int sock = 0; sock < MAX_SOCK_NUM; sock++) {
 341              		.loc 1 54 0
 342 0036 0136     		add	r6, r6, #1
 343              	.LVL31:
 344 0038 042E     		cmp	r6, #4
 345 003a E9D1     		bne	.L26
 346              	.LBE27:
  58:.\Server.cpp  ****       if (client.available()) {
  59:.\Server.cpp  ****         // XXX: don't always pick the lowest numbered socket.
  60:.\Server.cpp  ****         return client;
  61:.\Server.cpp  ****       }
  62:.\Server.cpp  ****     }
  63:.\Server.cpp  ****   }
  64:.\Server.cpp  ****   
  65:.\Server.cpp  ****   return Client(255);
 347              		.loc 1 65 0
 348 003c 201C     		mov	r0, r4
 349 003e FF21     		mov	r1, #255
 350 0040 FFF7FEFF 		bl	_ZN6ClientC1Eh
 351              	.LVL32:
 352 0044 20E0     		b	.L22
 353              	.LVL33:
 354              	.L30:
 355              	.LBB32:
 356              	.LBB31:
  58:.\Server.cpp  ****       if (client.available()) {
 357              		.loc 1 58 0
 358 0046 281C     		mov	r0, r5
 359 0048 FFF7FEFF 		bl	_ZN6Client9availableEv
 360              	.LVL34:
 361 004c 0028     		cmp	r0, #0
 362 004e F2D0     		beq	.L28
 363              	.LVL35:
 364              	.LBB29:
 365              	.LBB30:
 366              		.file 2 ".\\Client.h"
   1:.\Client.h    **** #ifndef Client_h
   2:.\Client.h    **** #define Client_h
   3:.\Client.h    **** 
   4:.\Client.h    **** #include "Print.h"
   5:.\Client.h    **** 
   6:.\Client.h    **** class Client : public Print {
 367              		.loc 2 6 0
 368 0050 104F     		ldr	r7, .L31+4
 369              	.LVL36:
 370 0052 3E0A     		lsr	r6, r7, #8
 371 0054 390C     		lsr	r1, r7, #16
ARM GAS  C:\Users\atsu\AppData\Local\Temp\ccHqmdVY.s 			page 9


 372 0056 3B0E     		lsr	r3, r7, #24
 373 0058 2770     		strb	r7, [r4]
 374 005a A170     		strb	r1, [r4, #2]
 375 005c E370     		strb	r3, [r4, #3]
 376 005e 6670     		strb	r6, [r4, #1]
 377 0060 2879     		ldrb	r0, [r5, #4]
 378 0062 2071     		strb	r0, [r4, #4]
 379 0064 6A68     		ldr	r2, [r5, #4]
 380 0066 2E7A     		ldrb	r6, [r5, #8]
 381 0068 170A     		lsr	r7, r2, #8
 382 006a 3106     		lsl	r1, r6, #24
 383 006c 3943     		orr	r1, r7
 384 006e 0B0A     		lsr	r3, r1, #8
 385 0070 080C     		lsr	r0, r1, #16
 386 0072 0A0E     		lsr	r2, r1, #24
 387 0074 6171     		strb	r1, [r4, #5]
 388 0076 A371     		strb	r3, [r4, #6]
 389 0078 E071     		strb	r0, [r4, #7]
 390 007a 2272     		strb	r2, [r4, #8]
 391 007c AD68     		ldr	r5, [r5, #8]
 392              	.LVL37:
 393 007e 2F02     		lsl	r7, r5, #8
 394 0080 3E0C     		lsr	r6, r7, #16
 395 0082 310A     		lsr	r1, r6, #8
 396 0084 6672     		strb	r6, [r4, #9]
 397 0086 A172     		strb	r1, [r4, #10]
 398              	.LVL38:
 399              	.L22:
 400              	.LBE30:
 401              	.LBE29:
 402              	.LBE31:
 403              	.LBE32:
 404              	.LBE33:
  66:.\Server.cpp  **** }
 405              		.loc 1 66 0
 406 0088 201C     		mov	r0, r4
 407 008a 05B0     		add	sp, sp, #20
 408              		@ sp needed for prologue
 409              	.LVL39:
 410 008c F0BD     		pop	{r4, r5, r6, r7, pc}
 411              	.L32:
 412 008e C046     		.align	2
 413              	.L31:
 414 0090 00000000 		.word	_ZN13EthernetClass12_server_portE
 415 0094 08000000 		.word	_ZTV6Client+8
 416              		.cfi_endproc
 417              	.LFE8:
 418              		.fnend
 419              		.size	_ZN6Server9availableEv, .-_ZN6Server9availableEv
 420              		.section	.text._ZN6Server5writeEh,"ax",%progbits
 421              		.align	1
 422              		.global	_ZN6Server5writeEh
 423              		.code	16
 424              		.thumb_func
 425              		.type	_ZN6Server5writeEh, %function
 426              	_ZN6Server5writeEh:
 427              		.fnstart
ARM GAS  C:\Users\atsu\AppData\Local\Temp\ccHqmdVY.s 			page 10


 428              	.LFB15:
  67:.\Server.cpp  **** 
  68:.\Server.cpp  **** void Server::write(uint8_t b) 
  69:.\Server.cpp  **** {
 429              		.loc 1 69 0
 430              		.cfi_startproc
 431              	.LVL40:
 432 0000 7FB5     		push	{r0, r1, r2, r3, r4, r5, r6, lr}
 433              		.save {r0, r1, r2, r3, r4, r5, r6, lr}
 434              	.LCFI4:
 435              		.cfi_def_cfa_offset 32
 436              		.cfi_offset 0, -32
 437              		.cfi_offset 1, -28
 438              		.cfi_offset 2, -24
 439              		.cfi_offset 3, -20
 440              		.cfi_offset 4, -16
 441              		.cfi_offset 5, -12
 442              		.cfi_offset 6, -8
 443              		.cfi_offset 14, -4
 444              		.loc 1 69 0
 445 0002 051C     		mov	r5, r0
 446 0004 0E1C     		mov	r6, r1
 447              	.LBB34:
  70:.\Server.cpp  ****   accept();
 448              		.loc 1 70 0
 449 0006 FFF7FEFF 		bl	_ZN6Server6acceptEv
 450              	.LVL41:
  71:.\Server.cpp  ****   
  72:.\Server.cpp  ****   for (int sock = 0; sock < MAX_SOCK_NUM; sock++) {
 451              		.loc 1 72 0
 452 000a 0024     		mov	r4, #0
 453              	.LVL42:
 454              	.L36:
 455              	.LBB35:
 456              	.LBB36:
  73:.\Server.cpp  ****     Client client(sock);
 457              		.loc 1 73 0
 458 000c E1B2     		uxtb	r1, r4
 459 000e 01A8     		add	r0, sp, #4
 460 0010 FFF7FEFF 		bl	_ZN6ClientC1Eh
 461              	.LVL43:
  74:.\Server.cpp  ****     
  75:.\Server.cpp  ****     if (EthernetClass::_server_port[sock] == _port &&
 462              		.loc 1 75 0
 463 0014 0B48     		ldr	r0, .L40
  68:.\Server.cpp  **** void Server::write(uint8_t b) 
 464              		.loc 1 68 0
 465 0016 6200     		lsl	r2, r4, #1
 466              		.loc 1 75 0
 467 0018 6B79     		ldrb	r3, [r5, #5]
 468 001a 2979     		ldrb	r1, [r5, #4]
 469 001c 825A     		ldrh	r2, [r0, r2]
 470 001e 1B02     		lsl	r3, r3, #8
 471 0020 0B43     		orr	r3, r1
 472 0022 9A42     		cmp	r2, r3
 473 0024 04D1     		bne	.L37
  76:.\Server.cpp  ****         client.status() == SOCK_ESTABLISHED) {
ARM GAS  C:\Users\atsu\AppData\Local\Temp\ccHqmdVY.s 			page 11


 474              		.loc 1 76 0
 475 0026 01A8     		add	r0, sp, #4
 476 0028 FFF7FEFF 		bl	_ZN6Client6statusEv
 477              	.LVL44:
  75:.\Server.cpp  ****     if (EthernetClass::_server_port[sock] == _port &&
 478              		.loc 1 75 0
 479 002c 1728     		cmp	r0, #23
 480 002e 03D0     		beq	.L35
 481              	.L37:
 482              	.LBE36:
  72:.\Server.cpp  ****   for (int sock = 0; sock < MAX_SOCK_NUM; sock++) {
 483              		.loc 1 72 0
 484 0030 0134     		add	r4, r4, #1
 485              	.LVL45:
 486 0032 042C     		cmp	r4, #4
 487 0034 EAD1     		bne	.L36
 488              	.LBE35:
 489              	.LBE34:
  77:.\Server.cpp  ****       client.write(b);
  78:.\Server.cpp  ****     }
  79:.\Server.cpp  ****   }
  80:.\Server.cpp  **** }...
 490              		.loc 1 80 0
 491              		@ sp needed for prologue
 492              	.LVL46:
 493              	.LVL47:
 494 0036 7FBD     		pop	{r0, r1, r2, r3, r4, r5, r6, pc}
 495              	.LVL48:
 496              	.L35:
 497              	.LBB39:
 498              	.LBB38:
 499              	.LBB37:
  77:.\Server.cpp  ****       client.write(b);
 500              		.loc 1 77 0
 501 0038 01A8     		add	r0, sp, #4
 502 003a 311C     		mov	r1, r6
 503 003c FFF7FEFF 		bl	_ZN6Client5writeEh
 504              	.LVL49:
 505 0040 F6E7     		b	.L37
 506              	.L41:
 507 0042 C046     		.align	2
 508              	.L40:
 509 0044 00000000 		.word	_ZN13EthernetClass12_server_portE
 510              	.LBE37:
 511              	.LBE38:
 512              	.LBE39:
 513              		.cfi_endproc
 514              	.LFE15:
 515              		.fnend
 516              		.size	_ZN6Server5writeEh, .-_ZN6Server5writeEh
 517              		.global	_ZTV6Server
 518              		.section	.rodata
 519              		.align	3
 520              		.set	.LANCHOR0,. + 0
 521              		.type	_ZTV6Server, %object
 522              		.size	_ZTV6Server, 12
 523              	_ZTV6Server:
ARM GAS  C:\Users\atsu\AppData\Local\Temp\ccHqmdVY.s 			page 12


 524 0000 00000000 		.word	0
 525 0004 00000000 		.word	0
 526 0008 00000000 		.word	_ZN6Server5writeEh
 527 000c 00000000 		.text
 528              	.Letext0:
 529              		.file 3 "c:\\program files (x86)\\cypress\\psoc creator\\3.0\\psoc creator\\import\\gnu_cs\\arm\\4
 530              		.file 4 "./Generated_Source/PSoC4/cytypes.h"
 531              		.file 5 ".\\w5100.h"
 532              		.file 6 ".\\Print.h"
 533              		.file 7 ".\\Server.h"
 534              		.file 8 ".\\socket.h"