ARM GAS  C:\Users\atsu\AppData\Local\Temp\ccE1EndV.s 			page 1


   1              		.cpu cortex-m0
   2              		.fpu softvfp
   3              		.eabi_attribute 20, 1
   4              		.eabi_attribute 21, 1
   5              		.eabi_attribute 23, 3
   6              		.eabi_attribute 24, 1
   7              		.eabi_attribute 25, 1
   8              		.eabi_attribute 26, 1
   9              		.eabi_attribute 30, 4
  10              		.eabi_attribute 34, 0
  11              		.eabi_attribute 18, 4
  12              		.code	16
  13              		.file	"socket.c"
  14              		.text
  15              	.Ltext0:
  16              		.cfi_sections	.debug_frame
  17              		.section	.text.close,"ax",%progbits
  18              		.align	1
  19              		.global	close
  20              		.code	16
  21              		.thumb_func
  22              		.type	close, %function
  23              	close:
  24              	.LFB1:
  25              		.file 1 ".\\socket.c"
   1:.\socket.c    **** /*
   2:.\socket.c    **** *
   3:.\socket.c    **** @file		socket.c
   4:.\socket.c    **** @brief	setting chip register for socket
   5:.\socket.c    **** 		last update : 2008. Jan
   6:.\socket.c    **** *
   7:.\socket.c    **** */
   8:.\socket.c    **** 
   9:.\socket.c    **** #include "types.h"
  10:.\socket.c    **** #include "w5100.h"
  11:.\socket.c    **** #include "socket.h"
  12:.\socket.c    **** 
  13:.\socket.c    **** static uint16_t local_port;
  14:.\socket.c    **** 
  15:.\socket.c    **** 
  16:.\socket.c    **** /**
  17:.\socket.c    **** @brief	This Socket function initialize the channel in perticular mode, and set the port and wait fo
  18:.\socket.c    **** @return 	1 for sucess else 0.
  19:.\socket.c    **** */  
  20:.\socket.c    **** uint8 socket(
  21:.\socket.c    **** 	SOCKET s, 		/**< for socket number */
  22:.\socket.c    **** 	uint8 protocol, 	/**< for socket protocol */
  23:.\socket.c    **** 	uint16 port, 		/**< the source port for the socket */
  24:.\socket.c    **** 	uint8 flag		/**< the option for the socket */
  25:.\socket.c    **** 	)
  26:.\socket.c    **** {
  27:.\socket.c    **** 	uint8 ret;
  28:.\socket.c    **** #ifdef __DEF_IINCHIP_DBG__
  29:.\socket.c    **** 	printf("socket()\r\n");
  30:.\socket.c    **** #endif
  31:.\socket.c    **** 	if ((protocol == Sn_MR_TCP) || (protocol == Sn_MR_UDP) || (protocol == Sn_MR_IPRAW) || (protocol =
  32:.\socket.c    **** 	{
ARM GAS  C:\Users\atsu\AppData\Local\Temp\ccE1EndV.s 			page 2


  33:.\socket.c    **** 		close(s);
  34:.\socket.c    **** 		IINCHIP_WRITE(Sn_MR(s),protocol | flag);
  35:.\socket.c    **** 		if (port != 0) {
  36:.\socket.c    **** 			IINCHIP_WRITE(Sn_PORT0(s),(uint8)((port & 0xff00) >> 8));
  37:.\socket.c    **** 			IINCHIP_WRITE((Sn_PORT0(s) + 1),(uint8)(port & 0x00ff));
  38:.\socket.c    **** 		} else {
  39:.\socket.c    **** 			local_port++; // if don't set the source port, set local_port number.
  40:.\socket.c    **** 			IINCHIP_WRITE(Sn_PORT0(s),(uint8)((local_port & 0xff00) >> 8));
  41:.\socket.c    **** 			IINCHIP_WRITE((Sn_PORT0(s) + 1),(uint8)(local_port & 0x00ff));
  42:.\socket.c    **** 		}
  43:.\socket.c    **** 		IINCHIP_WRITE(Sn_CR(s),Sn_CR_OPEN); // run sockinit Sn_CR
  44:.\socket.c    **** 
  45:.\socket.c    **** 		/* +20071122[chungs]:wait to process the command... */
  46:.\socket.c    **** 		while( IINCHIP_READ(Sn_CR(s)) ) 
  47:.\socket.c    **** 			;
  48:.\socket.c    **** 		/* ------- */
  49:.\socket.c    **** 		ret = 1;
  50:.\socket.c    **** 	}
  51:.\socket.c    **** 	else
  52:.\socket.c    **** 	{
  53:.\socket.c    **** 		ret = 0;
  54:.\socket.c    **** 	}
  55:.\socket.c    **** #ifdef __DEF_IINCHIP_DBG__
  56:.\socket.c    **** 	printf("Sn_SR = %.2x , Protocol = %.2x\r\n", IINCHIP_READ(Sn_SR(s)), IINCHIP_READ(Sn_MR(s)));
  57:.\socket.c    **** #endif
  58:.\socket.c    **** 	return ret;
  59:.\socket.c    **** }
  60:.\socket.c    **** 
  61:.\socket.c    **** 
  62:.\socket.c    **** /**
  63:.\socket.c    **** @brief	This function close the socket and parameter is "s" which represent the socket number
  64:.\socket.c    **** */ 
  65:.\socket.c    **** void close(SOCKET s)
  66:.\socket.c    **** {
  26              		.loc 1 66 0
  27              		.cfi_startproc
  28              	.LVL0:
  29 0000 38B5     		push	{r3, r4, r5, lr}
  30              	.LCFI0:
  31              		.cfi_def_cfa_offset 16
  32              		.cfi_offset 3, -16
  33              		.cfi_offset 4, -12
  34              		.cfi_offset 5, -8
  35              		.cfi_offset 14, -4
  67:.\socket.c    **** #ifdef __DEF_IINCHIP_DBG__
  68:.\socket.c    **** 	printf("close()\r\n");
  69:.\socket.c    **** #endif
  70:.\socket.c    **** 	
  71:.\socket.c    **** 	IINCHIP_WRITE(Sn_CR(s),Sn_CR_CLOSE);
  36              		.loc 1 71 0
  37 0002 041D     		add	r4, r0, #4
  38 0004 2002     		lsl	r0, r4, #8
  39              	.LVL1:
  40 0006 84B2     		uxth	r4, r0
  41 0008 651C     		add	r5, r4, #1
  42 000a ADB2     		uxth	r5, r5
  43 000c 281C     		mov	r0, r5
ARM GAS  C:\Users\atsu\AppData\Local\Temp\ccE1EndV.s 			page 3


  44 000e 1021     		mov	r1, #16
  45 0010 FFF7FEFF 		bl	IINCHIP_WRITE
  46              	.LVL2:
  47              	.L2:
  72:.\socket.c    **** 
  73:.\socket.c    **** 	/* +20071122[chungs]:wait to process the command... */
  74:.\socket.c    **** 	while( IINCHIP_READ(Sn_CR(s)) ) 
  48              		.loc 1 74 0 discriminator 1
  49 0014 281C     		mov	r0, r5
  50 0016 FFF7FEFF 		bl	IINCHIP_READ
  51              	.LVL3:
  52 001a 0028     		cmp	r0, #0
  53 001c FAD1     		bne	.L2
  75:.\socket.c    **** 		;
  76:.\socket.c    **** 	/* ------- */
  77:.\socket.c    **** 
  78:.\socket.c    **** 	/* +2008.01 [hwkim]: clear interrupt */	
  79:.\socket.c    **** 	#ifdef __DEF_IINCHIP_INT__
  80:.\socket.c    ****       /* m2008.01 [bj] : all clear */
  81:.\socket.c    **** 	       putISR(s, 0x00);
  82:.\socket.c    **** 	#else
  83:.\socket.c    ****       /* m2008.01 [bj] : all clear */
  84:.\socket.c    **** 		IINCHIP_WRITE(Sn_IR(s), 0xFF);
  54              		.loc 1 84 0
  55 001e 0234     		add	r4, r4, #2
  56 0020 A0B2     		uxth	r0, r4
  57 0022 FF21     		mov	r1, #255
  58 0024 FFF7FEFF 		bl	IINCHIP_WRITE
  59              	.LVL4:
  85:.\socket.c    **** 	#endif
  86:.\socket.c    **** }
  60              		.loc 1 86 0
  61              		@ sp needed for prologue
  62 0028 38BD     		pop	{r3, r4, r5, pc}
  63              		.cfi_endproc
  64              	.LFE1:
  65              		.size	close, .-close
  66              		.section	.text.socket,"ax",%progbits
  67              		.align	1
  68              		.global	socket
  69              		.code	16
  70              		.thumb_func
  71              		.type	socket, %function
  72              	socket:
  73              	.LFB0:
  26:.\socket.c    **** {
  74              		.loc 1 26 0
  75              		.cfi_startproc
  76              	.LVL5:
  77 0000 F8B5     		push	{r3, r4, r5, r6, r7, lr}
  78              	.LCFI1:
  79              		.cfi_def_cfa_offset 24
  80              		.cfi_offset 3, -24
  81              		.cfi_offset 4, -20
  82              		.cfi_offset 5, -16
  83              		.cfi_offset 6, -12
  84              		.cfi_offset 7, -8
ARM GAS  C:\Users\atsu\AppData\Local\Temp\ccE1EndV.s 			page 4


  85              		.cfi_offset 14, -4
  26:.\socket.c    **** {
  86              		.loc 1 26 0
  87 0002 1F1C     		mov	r7, r3
  31:.\socket.c    **** 	if ((protocol == Sn_MR_TCP) || (protocol == Sn_MR_UDP) || (protocol == Sn_MR_IPRAW) || (protocol =
  88              		.loc 1 31 0
  89 0004 4B1E     		sub	r3, r1, #1
  90              	.LVL6:
  26:.\socket.c    **** {
  91              		.loc 1 26 0
  92 0006 041C     		mov	r4, r0
  93 0008 0E1C     		mov	r6, r1
  94 000a 151C     		mov	r5, r2
  53:.\socket.c    **** 		ret = 0;
  95              		.loc 1 53 0
  96 000c 0020     		mov	r0, #0
  97              	.LVL7:
  31:.\socket.c    **** 	if ((protocol == Sn_MR_TCP) || (protocol == Sn_MR_UDP) || (protocol == Sn_MR_IPRAW) || (protocol =
  98              		.loc 1 31 0
  99 000e 042B     		cmp	r3, #4
 100 0010 2ED8     		bhi	.L6
  33:.\socket.c    **** 		close(s);
 101              		.loc 1 33 0
 102 0012 201C     		mov	r0, r4
  34:.\socket.c    **** 		IINCHIP_WRITE(Sn_MR(s),protocol | flag);
 103              		.loc 1 34 0
 104 0014 0434     		add	r4, r4, #4
  33:.\socket.c    **** 		close(s);
 105              		.loc 1 33 0
 106 0016 FFF7FEFF 		bl	close
 107              	.LVL8:
  34:.\socket.c    **** 		IINCHIP_WRITE(Sn_MR(s),protocol | flag);
 108              		.loc 1 34 0
 109 001a 2002     		lsl	r0, r4, #8
 110 001c 84B2     		uxth	r4, r0
 111 001e 391C     		mov	r1, r7
 112 0020 3143     		orr	r1, r6
 113 0022 201C     		mov	r0, r4
 114 0024 FFF7FEFF 		bl	IINCHIP_WRITE
 115              	.LVL9:
 116 0028 661D     		add	r6, r4, #5
 117 002a 221D     		add	r2, r4, #4
  35:.\socket.c    **** 		if (port != 0) {
 118              		.loc 1 35 0
 119 002c 002D     		cmp	r5, #0
 120 002e 06D0     		beq	.L7
  36:.\socket.c    **** 			IINCHIP_WRITE(Sn_PORT0(s),(uint8)((port & 0xff00) >> 8));
 121              		.loc 1 36 0
 122 0030 290A     		lsr	r1, r5, #8
 123 0032 90B2     		uxth	r0, r2
 124 0034 FFF7FEFF 		bl	IINCHIP_WRITE
 125              	.LVL10:
  37:.\socket.c    **** 			IINCHIP_WRITE((Sn_PORT0(s) + 1),(uint8)(port & 0x00ff));
 126              		.loc 1 37 0
 127 0038 B0B2     		uxth	r0, r6
 128 003a E9B2     		uxtb	r1, r5
 129 003c 0AE0     		b	.L12
ARM GAS  C:\Users\atsu\AppData\Local\Temp\ccE1EndV.s 			page 5


 130              	.L7:
  39:.\socket.c    **** 			local_port++; // if don't set the source port, set local_port number.
 131              		.loc 1 39 0
 132 003e 0D4D     		ldr	r5, .L13
  40:.\socket.c    **** 			IINCHIP_WRITE(Sn_PORT0(s),(uint8)((local_port & 0xff00) >> 8));
 133              		.loc 1 40 0
 134 0040 90B2     		uxth	r0, r2
  39:.\socket.c    **** 			local_port++; // if don't set the source port, set local_port number.
 135              		.loc 1 39 0
 136 0042 2988     		ldrh	r1, [r5]
 137 0044 0131     		add	r1, r1, #1
 138 0046 8FB2     		uxth	r7, r1
  40:.\socket.c    **** 			IINCHIP_WRITE(Sn_PORT0(s),(uint8)((local_port & 0xff00) >> 8));
 139              		.loc 1 40 0
 140 0048 390A     		lsr	r1, r7, #8
  39:.\socket.c    **** 			local_port++; // if don't set the source port, set local_port number.
 141              		.loc 1 39 0
 142 004a 2F80     		strh	r7, [r5]
  40:.\socket.c    **** 			IINCHIP_WRITE(Sn_PORT0(s),(uint8)((local_port & 0xff00) >> 8));
 143              		.loc 1 40 0
 144 004c FFF7FEFF 		bl	IINCHIP_WRITE
 145              	.LVL11:
  41:.\socket.c    **** 			IINCHIP_WRITE((Sn_PORT0(s) + 1),(uint8)(local_port & 0x00ff));
 146              		.loc 1 41 0
 147 0050 2978     		ldrb	r1, [r5]
 148 0052 B0B2     		uxth	r0, r6
 149              	.L12:
  43:.\socket.c    **** 		IINCHIP_WRITE(Sn_CR(s),Sn_CR_OPEN); // run sockinit Sn_CR
 150              		.loc 1 43 0
 151 0054 0134     		add	r4, r4, #1
 152 0056 A4B2     		uxth	r4, r4
  41:.\socket.c    **** 			IINCHIP_WRITE((Sn_PORT0(s) + 1),(uint8)(local_port & 0x00ff));
 153              		.loc 1 41 0
 154 0058 FFF7FEFF 		bl	IINCHIP_WRITE
 155              	.LVL12:
  43:.\socket.c    **** 		IINCHIP_WRITE(Sn_CR(s),Sn_CR_OPEN); // run sockinit Sn_CR
 156              		.loc 1 43 0
 157 005c 201C     		mov	r0, r4
 158 005e 0121     		mov	r1, #1
 159 0060 FFF7FEFF 		bl	IINCHIP_WRITE
 160              	.LVL13:
 161              	.L9:
  46:.\socket.c    **** 		while( IINCHIP_READ(Sn_CR(s)) ) 
 162              		.loc 1 46 0 discriminator 1
 163 0064 201C     		mov	r0, r4
 164 0066 FFF7FEFF 		bl	IINCHIP_READ
 165              	.LVL14:
 166 006a 0028     		cmp	r0, #0
 167 006c FAD1     		bne	.L9
  49:.\socket.c    **** 		ret = 1;
 168              		.loc 1 49 0
 169 006e 0120     		mov	r0, #1
 170              	.L6:
 171              	.LVL15:
  59:.\socket.c    **** }
 172              		.loc 1 59 0
 173              		@ sp needed for prologue
ARM GAS  C:\Users\atsu\AppData\Local\Temp\ccE1EndV.s 			page 6


 174 0070 F8BD     		pop	{r3, r4, r5, r6, r7, pc}
 175              	.L14:
 176 0072 C046     		.align	2
 177              	.L13:
 178 0074 00000000 		.word	.LANCHOR0
 179              		.cfi_endproc
 180              	.LFE0:
 181              		.size	socket, .-socket
 182              		.section	.text.listen,"ax",%progbits
 183              		.align	1
 184              		.global	listen
 185              		.code	16
 186              		.thumb_func
 187              		.type	listen, %function
 188              	listen:
 189              	.LFB2:
  87:.\socket.c    **** 
  88:.\socket.c    **** 
  89:.\socket.c    **** /**
  90:.\socket.c    **** @brief	This function established  the connection for the channel in passive (server) mode. This fun
  91:.\socket.c    **** @return	1 for success else 0.
  92:.\socket.c    **** */ 
  93:.\socket.c    **** uint8 listen(
  94:.\socket.c    **** 	SOCKET s	/**< the socket number */
  95:.\socket.c    **** 	)
  96:.\socket.c    **** {
 190              		.loc 1 96 0
 191              		.cfi_startproc
 192              	.LVL16:
 193 0000 10B5     		push	{r4, lr}
 194              	.LCFI2:
 195              		.cfi_def_cfa_offset 8
 196              		.cfi_offset 4, -8
 197              		.cfi_offset 14, -4
  97:.\socket.c    **** 	uint8 ret;
  98:.\socket.c    **** #ifdef __DEF_IINCHIP_DBG__
  99:.\socket.c    **** 	printf("listen()\r\n");
 100:.\socket.c    **** #endif
 101:.\socket.c    **** 	if (IINCHIP_READ(Sn_SR(s)) == SOCK_INIT)
 198              		.loc 1 101 0
 199 0002 041D     		add	r4, r0, #4
 200 0004 2002     		lsl	r0, r4, #8
 201              	.LVL17:
 202 0006 84B2     		uxth	r4, r0
 203 0008 E11C     		add	r1, r4, #3
 204 000a 88B2     		uxth	r0, r1
 205 000c FFF7FEFF 		bl	IINCHIP_READ
 206              	.LVL18:
 102:.\socket.c    **** 	{
 103:.\socket.c    **** 		IINCHIP_WRITE(Sn_CR(s),Sn_CR_LISTEN);
 104:.\socket.c    **** 		/* +20071122[chungs]:wait to process the command... */
 105:.\socket.c    **** 		while( IINCHIP_READ(Sn_CR(s)) ) 
 106:.\socket.c    **** 			;
 107:.\socket.c    **** 		/* ------- */
 108:.\socket.c    **** 		ret = 1;
 109:.\socket.c    **** 	}
 110:.\socket.c    **** 	else
ARM GAS  C:\Users\atsu\AppData\Local\Temp\ccE1EndV.s 			page 7


 111:.\socket.c    **** 	{
 112:.\socket.c    **** 		ret = 0;
 207              		.loc 1 112 0
 208 0010 0023     		mov	r3, #0
 101:.\socket.c    **** 	if (IINCHIP_READ(Sn_SR(s)) == SOCK_INIT)
 209              		.loc 1 101 0
 210 0012 1328     		cmp	r0, #19
 211 0014 0BD1     		bne	.L16
 103:.\socket.c    **** 		IINCHIP_WRITE(Sn_CR(s),Sn_CR_LISTEN);
 212              		.loc 1 103 0
 213 0016 0134     		add	r4, r4, #1
 214 0018 A4B2     		uxth	r4, r4
 215 001a 201C     		mov	r0, r4
 216 001c 0221     		mov	r1, #2
 217 001e FFF7FEFF 		bl	IINCHIP_WRITE
 218              	.LVL19:
 219              	.L17:
 105:.\socket.c    **** 		while( IINCHIP_READ(Sn_CR(s)) ) 
 220              		.loc 1 105 0 discriminator 1
 221 0022 201C     		mov	r0, r4
 222 0024 FFF7FEFF 		bl	IINCHIP_READ
 223              	.LVL20:
 224 0028 0028     		cmp	r0, #0
 225 002a FAD1     		bne	.L17
 108:.\socket.c    **** 		ret = 1;
 226              		.loc 1 108 0
 227 002c 0123     		mov	r3, #1
 228              	.L16:
 229              	.LVL21:
 113:.\socket.c    **** #ifdef __DEF_IINCHIP_DBG__
 114:.\socket.c    **** 	printf("Fail[invalid ip,port]\r\n");
 115:.\socket.c    **** #endif
 116:.\socket.c    **** 	}
 117:.\socket.c    **** 	return ret;
 118:.\socket.c    **** }
 230              		.loc 1 118 0
 231 002e 181C     		mov	r0, r3
 232              		@ sp needed for prologue
 233 0030 10BD     		pop	{r4, pc}
 234              		.cfi_endproc
 235              	.LFE2:
 236              		.size	listen, .-listen
 237              		.section	.text.connect,"ax",%progbits
 238              		.align	1
 239              		.global	connect
 240              		.code	16
 241              		.thumb_func
 242              		.type	connect, %function
 243              	connect:
 244              	.LFB3:
 119:.\socket.c    **** 
 120:.\socket.c    **** 
 121:.\socket.c    **** /**
 122:.\socket.c    **** @brief	This function established  the connection for the channel in Active (client) mode. 
 123:.\socket.c    **** 		This function waits for the untill the connection is established.
 124:.\socket.c    **** 		
 125:.\socket.c    **** @return	1 for success else 0.
ARM GAS  C:\Users\atsu\AppData\Local\Temp\ccE1EndV.s 			page 8


 126:.\socket.c    **** */ 
 127:.\socket.c    **** uint8 connect(SOCKET s, uint8 * addr, uint16 port)
 128:.\socket.c    **** {
 245              		.loc 1 128 0
 246              		.cfi_startproc
 247              	.LVL22:
 248 0000 70B5     		push	{r4, r5, r6, lr}
 249              	.LCFI3:
 250              		.cfi_def_cfa_offset 16
 251              		.cfi_offset 4, -16
 252              		.cfi_offset 5, -12
 253              		.cfi_offset 6, -8
 254              		.cfi_offset 14, -4
 255              		.loc 1 128 0
 256 0002 0C1C     		mov	r4, r1
 129:.\socket.c    **** 	uint8 ret;
 130:.\socket.c    **** #ifdef __DEF_IINCHIP_DBG__
 131:.\socket.c    **** 	printf("connect()\r\n");
 132:.\socket.c    **** #endif
 133:.\socket.c    **** 	if 
 134:.\socket.c    **** 		(
 135:.\socket.c    **** 			((addr[0] == 0xFF) && (addr[1] == 0xFF) && (addr[2] == 0xFF) && (addr[3] == 0xFF)) ||
 257              		.loc 1 135 0
 258 0004 0978     		ldrb	r1, [r1]
 259              	.LVL23:
 128:.\socket.c    **** {
 260              		.loc 1 128 0
 261 0006 161C     		mov	r6, r2
 134:.\socket.c    **** 		(
 262              		.loc 1 134 0
 263 0008 FF29     		cmp	r1, #255
 264 000a 09D1     		bne	.L21
 265              		.loc 1 135 0
 266 000c 6378     		ldrb	r3, [r4, #1]
 267 000e FF2B     		cmp	r3, #255
 268 0010 12D1     		bne	.L22
 269              		.loc 1 135 0 is_stmt 0 discriminator 1
 270 0012 A278     		ldrb	r2, [r4, #2]
 271              	.LVL24:
 272 0014 FF2A     		cmp	r2, #255
 273 0016 0FD1     		bne	.L22
 274 0018 E578     		ldrb	r5, [r4, #3]
 275 001a FF2D     		cmp	r5, #255
 276 001c 0CD1     		bne	.L22
 277 001e 41E0     		b	.L31
 278              	.LVL25:
 279              	.L21:
 280              		.loc 1 135 0 discriminator 2
 281 0020 0029     		cmp	r1, #0
 282 0022 09D1     		bne	.L22
 136:.\socket.c    **** 		 	((addr[0] == 0x00) && (addr[1] == 0x00) && (addr[2] == 0x00) && (addr[3] == 0x00)) ||
 283              		.loc 1 136 0 is_stmt 1
 284 0024 6378     		ldrb	r3, [r4, #1]
 285 0026 002B     		cmp	r3, #0
 286 0028 06D1     		bne	.L22
 287              		.loc 1 136 0 is_stmt 0 discriminator 1
 288 002a A278     		ldrb	r2, [r4, #2]
ARM GAS  C:\Users\atsu\AppData\Local\Temp\ccE1EndV.s 			page 9


 289              	.LVL26:
 290 002c 002A     		cmp	r2, #0
 291 002e 03D1     		bne	.L22
 292 0030 E578     		ldrb	r5, [r4, #3]
 137:.\socket.c    **** 		 	(port == 0x00) 
 138:.\socket.c    **** 		) 
 139:.\socket.c    ****  	{
 140:.\socket.c    ****  		ret = 0;
 293              		.loc 1 140 0 is_stmt 1 discriminator 1
 294 0032 0B1C     		mov	r3, r1
 136:.\socket.c    **** 		 	((addr[0] == 0x00) && (addr[1] == 0x00) && (addr[2] == 0x00) && (addr[3] == 0x00)) ||
 295              		.loc 1 136 0 discriminator 1
 296 0034 002D     		cmp	r5, #0
 297 0036 36D0     		beq	.L23
 298              	.L22:
 299              		.loc 1 140 0 discriminator 2
 300 0038 0023     		mov	r3, #0
 136:.\socket.c    **** 		 	((addr[0] == 0x00) && (addr[1] == 0x00) && (addr[2] == 0x00) && (addr[3] == 0x00)) ||
 301              		.loc 1 136 0 discriminator 2
 302 003a 9E42     		cmp	r6, r3
 303 003c 33D0     		beq	.L23
 304              	.LVL27:
 141:.\socket.c    **** #ifdef __DEF_IINCHIP_DBG__
 142:.\socket.c    **** 	printf("Fail[invalid ip,port]\r\n");
 143:.\socket.c    **** #endif
 144:.\socket.c    **** 	}
 145:.\socket.c    **** 	else
 146:.\socket.c    **** 	{
 147:.\socket.c    **** 		ret = 1;
 148:.\socket.c    **** 		// set destination IP
 149:.\socket.c    **** 		IINCHIP_WRITE(Sn_DIPR0(s),addr[0]);
 305              		.loc 1 149 0
 306 003e 0430     		add	r0, r0, #4
 307              	.LVL28:
 308 0040 0302     		lsl	r3, r0, #8
 309 0042 9DB2     		uxth	r5, r3
 310 0044 2A1C     		mov	r2, r5
 311 0046 0C32     		add	r2, r2, #12
 312 0048 90B2     		uxth	r0, r2
 313 004a FFF7FEFF 		bl	IINCHIP_WRITE
 314              	.LVL29:
 150:.\socket.c    **** 		IINCHIP_WRITE((Sn_DIPR0(s) + 1),addr[1]);
 315              		.loc 1 150 0
 316 004e 291C     		mov	r1, r5
 317 0050 0D31     		add	r1, r1, #13
 318 0052 88B2     		uxth	r0, r1
 319 0054 6178     		ldrb	r1, [r4, #1]
 320 0056 FFF7FEFF 		bl	IINCHIP_WRITE
 321              	.LVL30:
 151:.\socket.c    **** 		IINCHIP_WRITE((Sn_DIPR0(s) + 2),addr[2]);
 322              		.loc 1 151 0
 323 005a 281C     		mov	r0, r5
 324 005c 0E30     		add	r0, r0, #14
 325 005e A178     		ldrb	r1, [r4, #2]
 326 0060 80B2     		uxth	r0, r0
 327 0062 FFF7FEFF 		bl	IINCHIP_WRITE
 328              	.LVL31:
ARM GAS  C:\Users\atsu\AppData\Local\Temp\ccE1EndV.s 			page 10


 152:.\socket.c    **** 		IINCHIP_WRITE((Sn_DIPR0(s) + 3),addr[3]);
 329              		.loc 1 152 0
 330 0066 2B1C     		mov	r3, r5
 331 0068 0F33     		add	r3, r3, #15
 332 006a E178     		ldrb	r1, [r4, #3]
 153:.\socket.c    **** 		IINCHIP_WRITE(Sn_DPORT0(s),(uint8)((port & 0xff00) >> 8));
 333              		.loc 1 153 0
 334 006c 2C1C     		mov	r4, r5
 335              	.LVL32:
 152:.\socket.c    **** 		IINCHIP_WRITE((Sn_DIPR0(s) + 3),addr[3]);
 336              		.loc 1 152 0
 337 006e 98B2     		uxth	r0, r3
 338              		.loc 1 153 0
 339 0070 1034     		add	r4, r4, #16
 152:.\socket.c    **** 		IINCHIP_WRITE((Sn_DIPR0(s) + 3),addr[3]);
 340              		.loc 1 152 0
 341 0072 FFF7FEFF 		bl	IINCHIP_WRITE
 342              	.LVL33:
 343              		.loc 1 153 0
 344 0076 310A     		lsr	r1, r6, #8
 345 0078 A0B2     		uxth	r0, r4
 346 007a FFF7FEFF 		bl	IINCHIP_WRITE
 347              	.LVL34:
 154:.\socket.c    **** 		IINCHIP_WRITE((Sn_DPORT0(s) + 1),(uint8)(port & 0x00ff));
 348              		.loc 1 154 0
 349 007e 2A1C     		mov	r2, r5
 350 0080 1132     		add	r2, r2, #17
 155:.\socket.c    **** 		IINCHIP_WRITE(Sn_CR(s),Sn_CR_CONNECT);
 351              		.loc 1 155 0
 352 0082 0135     		add	r5, r5, #1
 154:.\socket.c    **** 		IINCHIP_WRITE((Sn_DPORT0(s) + 1),(uint8)(port & 0x00ff));
 353              		.loc 1 154 0
 354 0084 F1B2     		uxtb	r1, r6
 355 0086 90B2     		uxth	r0, r2
 356              		.loc 1 155 0
 357 0088 AEB2     		uxth	r6, r5
 154:.\socket.c    **** 		IINCHIP_WRITE((Sn_DPORT0(s) + 1),(uint8)(port & 0x00ff));
 358              		.loc 1 154 0
 359 008a FFF7FEFF 		bl	IINCHIP_WRITE
 360              	.LVL35:
 361              		.loc 1 155 0
 362 008e 301C     		mov	r0, r6
 363 0090 0421     		mov	r1, #4
 364 0092 FFF7FEFF 		bl	IINCHIP_WRITE
 365              	.LVL36:
 366              	.L24:
 156:.\socket.c    ****       /* m2008.01 [bj] :  wait for completion */
 157:.\socket.c    **** 		while ( IINCHIP_READ(Sn_CR(s)) ) ;
 367              		.loc 1 157 0 discriminator 1
 368 0096 301C     		mov	r0, r6
 369 0098 FFF7FEFF 		bl	IINCHIP_READ
 370              	.LVL37:
 371 009c 0028     		cmp	r0, #0
 372 009e FAD1     		bne	.L24
 147:.\socket.c    **** 		ret = 1;
 373              		.loc 1 147 0
 374 00a0 0123     		mov	r3, #1
ARM GAS  C:\Users\atsu\AppData\Local\Temp\ccE1EndV.s 			page 11


 375 00a2 00E0     		b	.L23
 376              	.LVL38:
 377              	.L31:
 140:.\socket.c    ****  		ret = 0;
 378              		.loc 1 140 0
 379 00a4 0023     		mov	r3, #0
 380              	.LVL39:
 381              	.L23:
 158:.\socket.c    **** 
 159:.\socket.c    **** 	}
 160:.\socket.c    **** 
 161:.\socket.c    **** 	return ret;
 162:.\socket.c    **** }
 382              		.loc 1 162 0
 383 00a6 181C     		mov	r0, r3
 384              		@ sp needed for prologue
 385 00a8 70BD     		pop	{r4, r5, r6, pc}
 386              		.cfi_endproc
 387              	.LFE3:
 388              		.size	connect, .-connect
 389              		.section	.text.disconnect,"ax",%progbits
 390              		.align	1
 391              		.global	disconnect
 392              		.code	16
 393              		.thumb_func
 394              		.type	disconnect, %function
 395              	disconnect:
 396              	.LFB4:
 163:.\socket.c    **** 
 164:.\socket.c    **** 
 165:.\socket.c    **** 
 166:.\socket.c    **** /**
 167:.\socket.c    **** @brief	This function used for disconnect the socket and parameter is "s" which represent the socket
 168:.\socket.c    **** @return	1 for success else 0.
 169:.\socket.c    **** */ 
 170:.\socket.c    **** void disconnect(SOCKET s)
 171:.\socket.c    **** {
 397              		.loc 1 171 0
 398              		.cfi_startproc
 399              	.LVL40:
 172:.\socket.c    **** #ifdef __DEF_IINCHIP_DBG__
 173:.\socket.c    **** 	printf("disconnect()\r\n");
 174:.\socket.c    **** #endif
 175:.\socket.c    **** 	IINCHIP_WRITE(Sn_CR(s),Sn_CR_DISCON);
 400              		.loc 1 175 0
 401 0000 074B     		ldr	r3, .L35
 171:.\socket.c    **** {
 402              		.loc 1 171 0
 403 0002 10B5     		push	{r4, lr}
 404              	.LCFI4:
 405              		.cfi_def_cfa_offset 8
 406              		.cfi_offset 4, -8
 407              		.cfi_offset 14, -4
 408              		.loc 1 175 0
 409 0004 0402     		lsl	r4, r0, #8
 410 0006 E018     		add	r0, r4, r3
 411              	.LVL41:
ARM GAS  C:\Users\atsu\AppData\Local\Temp\ccE1EndV.s 			page 12


 412 0008 84B2     		uxth	r4, r0
 413 000a 201C     		mov	r0, r4
 414 000c 0821     		mov	r1, #8
 415 000e FFF7FEFF 		bl	IINCHIP_WRITE
 416              	.LVL42:
 417              	.L33:
 176:.\socket.c    **** 
 177:.\socket.c    **** 	/* +20071122[chungs]:wait to process the command... */
 178:.\socket.c    **** 	while( IINCHIP_READ(Sn_CR(s)) ) 
 418              		.loc 1 178 0 discriminator 1
 419 0012 201C     		mov	r0, r4
 420 0014 FFF7FEFF 		bl	IINCHIP_READ
 421              	.LVL43:
 422 0018 0028     		cmp	r0, #0
 423 001a FAD1     		bne	.L33
 179:.\socket.c    **** 		;
 180:.\socket.c    **** 	/* ------- */
 181:.\socket.c    **** }
 424              		.loc 1 181 0
 425              		@ sp needed for prologue
 426 001c 10BD     		pop	{r4, pc}
 427              	.L36:
 428 001e C046     		.align	2
 429              	.L35:
 430 0020 01040000 		.word	1025
 431              		.cfi_endproc
 432              	.LFE4:
 433              		.size	disconnect, .-disconnect
 434              		.section	.text.send,"ax",%progbits
 435              		.align	1
 436              		.global	send
 437              		.code	16
 438              		.thumb_func
 439              		.type	send, %function
 440              	send:
 441              	.LFB5:
 182:.\socket.c    **** 
 183:.\socket.c    **** 
 184:.\socket.c    **** /**
 185:.\socket.c    **** @brief	This function used to send the data in TCP mode
 186:.\socket.c    **** @return	1 for success else 0.
 187:.\socket.c    **** */ 
 188:.\socket.c    **** uint16 send(
 189:.\socket.c    **** 	SOCKET s, 		/**< the socket index */
 190:.\socket.c    **** 	const uint8 * buf, 	/**< a pointer to data */
 191:.\socket.c    **** 	uint16 len		/**< the data size to be send */
 192:.\socket.c    **** 	)
 193:.\socket.c    **** {
 442              		.loc 1 193 0
 443              		.cfi_startproc
 444              	.LVL44:
 445 0000 F7B5     		push	{r0, r1, r2, r4, r5, r6, r7, lr}
 446              	.LCFI5:
 447              		.cfi_def_cfa_offset 32
 448              		.cfi_offset 0, -32
 449              		.cfi_offset 1, -28
 450              		.cfi_offset 2, -24
ARM GAS  C:\Users\atsu\AppData\Local\Temp\ccE1EndV.s 			page 13


 451              		.cfi_offset 4, -20
 452              		.cfi_offset 5, -16
 453              		.cfi_offset 6, -12
 454              		.cfi_offset 7, -8
 455              		.cfi_offset 14, -4
 456              		.loc 1 193 0
 457 0002 141C     		mov	r4, r2
 458 0004 051C     		mov	r5, r0
 459 0006 0191     		str	r1, [sp, #4]
 194:.\socket.c    **** 	uint8 status=0;
 195:.\socket.c    **** 	uint16 ret=0;
 196:.\socket.c    **** 	uint16 freesize=0;
 197:.\socket.c    **** #ifdef __DEF_IINCHIP_DBG__
 198:.\socket.c    **** 	printf("send()\r\n");
 199:.\socket.c    **** #endif
 200:.\socket.c    **** 
 201:.\socket.c    ****    if (len > getIINCHIP_TxMAX(s)) ret = getIINCHIP_TxMAX(s); // check size not to exceed MAX size.
 460              		.loc 1 201 0
 461 0008 FFF7FEFF 		bl	getIINCHIP_TxMAX
 462              	.LVL45:
 463 000c 8442     		cmp	r4, r0
 464 000e 03D9     		bls	.L38
 465              		.loc 1 201 0 is_stmt 0 discriminator 1
 466 0010 281C     		mov	r0, r5
 467 0012 FFF7FEFF 		bl	getIINCHIP_TxMAX
 468              	.LVL46:
 469 0016 041C     		mov	r4, r0
 470              	.LVL47:
 471              	.L38:
 202:.\socket.c    ****    else ret = len;
 203:.\socket.c    **** 
 204:.\socket.c    ****    // if freebuf is available, start.
 205:.\socket.c    **** 	do 
 206:.\socket.c    **** 	{
 207:.\socket.c    **** 		freesize = getSn_TX_FSR(s);
 208:.\socket.c    **** 		status = IINCHIP_READ(Sn_SR(s));
 472              		.loc 1 208 0 is_stmt 1
 473 0018 2E1D     		add	r6, r5, #4
 474 001a 3002     		lsl	r0, r6, #8
 475 001c 86B2     		uxth	r6, r0
 476 001e F31C     		add	r3, r6, #3
 477 0020 99B2     		uxth	r1, r3
 478 0022 0091     		str	r1, [sp]
 479              	.LVL48:
 480              	.L41:
 207:.\socket.c    **** 		freesize = getSn_TX_FSR(s);
 481              		.loc 1 207 0
 482 0024 281C     		mov	r0, r5
 483 0026 FFF7FEFF 		bl	getSn_TX_FSR
 484              	.LVL49:
 485 002a 071C     		mov	r7, r0
 486              	.LVL50:
 487              		.loc 1 208 0
 488 002c 0098     		ldr	r0, [sp]
 489              	.LVL51:
 490 002e FFF7FEFF 		bl	IINCHIP_READ
 491              	.LVL52:
ARM GAS  C:\Users\atsu\AppData\Local\Temp\ccE1EndV.s 			page 14


 209:.\socket.c    **** 		if ((status != SOCK_ESTABLISHED) && (status != SOCK_CLOSE_WAIT))
 492              		.loc 1 209 0
 493 0032 1728     		cmp	r0, #23
 494 0034 01D0     		beq	.L39
 495              		.loc 1 209 0 is_stmt 0 discriminator 1
 496 0036 1C28     		cmp	r0, #28
 497 0038 02D1     		bne	.L47
 498              	.L39:
 210:.\socket.c    **** 		{
 211:.\socket.c    **** 			ret = 0; 
 212:.\socket.c    **** 			break;
 213:.\socket.c    **** 		}
 214:.\socket.c    **** #ifdef __DEF_IINCHIP_DBG__
 215:.\socket.c    **** 		printf("socket %d freesize(%d) empty or error\r\n", s, freesize);
 216:.\socket.c    **** #endif
 217:.\socket.c    **** 	} while (freesize < ret);
 499              		.loc 1 217 0 is_stmt 1
 500 003a A742     		cmp	r7, r4
 501 003c F2D3     		bcc	.L41
 502 003e 00E0     		b	.L40
 503              	.L47:
 211:.\socket.c    **** 			ret = 0; 
 504              		.loc 1 211 0
 505 0040 0024     		mov	r4, #0
 506              	.L40:
 507              	.LVL53:
 218:.\socket.c    **** 
 219:.\socket.c    ****       // copy data
 220:.\socket.c    **** 	send_data_processing(s, (uint8 *)buf, ret);
 508              		.loc 1 220 0
 509 0042 281C     		mov	r0, r5
 510              	.LVL54:
 511 0044 0199     		ldr	r1, [sp, #4]
 512 0046 221C     		mov	r2, r4
 513 0048 FFF7FEFF 		bl	send_data_processing
 514              	.LVL55:
 221:.\socket.c    **** 	IINCHIP_WRITE(Sn_CR(s),Sn_CR_SEND);
 515              		.loc 1 221 0
 516 004c 721C     		add	r2, r6, #1
 517 004e 97B2     		uxth	r7, r2
 518              	.LVL56:
 519 0050 381C     		mov	r0, r7
 520 0052 2021     		mov	r1, #32
 521 0054 FFF7FEFF 		bl	IINCHIP_WRITE
 522              	.LVL57:
 523              	.L42:
 222:.\socket.c    **** 
 223:.\socket.c    **** 	/* +20071122[chungs]:wait to process the command... */
 224:.\socket.c    **** 	while( IINCHIP_READ(Sn_CR(s)) ) 
 524              		.loc 1 224 0 discriminator 1
 525 0058 381C     		mov	r0, r7
 526 005a FFF7FEFF 		bl	IINCHIP_READ
 527              	.LVL58:
 528 005e 0028     		cmp	r0, #0
 529 0060 FAD1     		bne	.L42
 530              	.L50:
 225:.\socket.c    **** 		;
ARM GAS  C:\Users\atsu\AppData\Local\Temp\ccE1EndV.s 			page 15


 226:.\socket.c    **** 	/* ------- */
 227:.\socket.c    **** 
 228:.\socket.c    **** /* +2008.01 bj */	
 229:.\socket.c    **** #ifdef __DEF_IINCHIP_INT__
 230:.\socket.c    **** 	while ( (getISR(s) & Sn_IR_SEND_OK) != Sn_IR_SEND_OK ) 
 231:.\socket.c    **** #else
 232:.\socket.c    **** 	while ( (IINCHIP_READ(Sn_IR(s)) & Sn_IR_SEND_OK) != Sn_IR_SEND_OK ) 
 531              		.loc 1 232 0
 532 0062 B01C     		add	r0, r6, #2
 533 0064 87B2     		uxth	r7, r0
 534 0066 381C     		mov	r0, r7
 535 0068 FFF7FEFF 		bl	IINCHIP_READ
 536              	.LVL59:
 537 006c 1021     		mov	r1, #16
 538 006e 0842     		tst	r0, r1
 539 0070 09D1     		bne	.L55
 540              	.L45:
 233:.\socket.c    **** #endif
 234:.\socket.c    **** 	{
 235:.\socket.c    **** 		/* m2008.01 [bj] : reduce code */
 236:.\socket.c    **** 		if ( IINCHIP_READ(Sn_SR(s)) == SOCK_CLOSED )
 541              		.loc 1 236 0
 542 0072 0098     		ldr	r0, [sp]
 543 0074 FFF7FEFF 		bl	IINCHIP_READ
 544              	.LVL60:
 545 0078 071E     		sub	r7, r0, #0
 546 007a F2D1     		bne	.L50
 237:.\socket.c    **** 		{
 238:.\socket.c    **** #ifdef __DEF_IINCHIP_DBG__
 239:.\socket.c    **** 			printf("SOCK_CLOSED.\r\n");
 240:.\socket.c    **** #endif
 241:.\socket.c    **** 			close(s);
 547              		.loc 1 241 0
 548 007c 281C     		mov	r0, r5
 549 007e FFF7FEFF 		bl	close
 550              	.LVL61:
 242:.\socket.c    **** 			return 0;
 551              		.loc 1 242 0
 552 0082 3C1C     		mov	r4, r7
 553              	.LVL62:
 554 0084 02E0     		b	.L44
 555              	.LVL63:
 556              	.L55:
 243:.\socket.c    **** 		}
 244:.\socket.c    ****   	}
 245:.\socket.c    **** /* +2008.01 bj */	
 246:.\socket.c    **** #ifdef __DEF_IINCHIP_INT__
 247:.\socket.c    ****   	putISR(s, getISR(s) & (~Sn_IR_SEND_OK));
 248:.\socket.c    **** #else
 249:.\socket.c    **** 	IINCHIP_WRITE(Sn_IR(s), Sn_IR_SEND_OK);
 557              		.loc 1 249 0
 558 0086 381C     		mov	r0, r7
 559 0088 FFF7FEFF 		bl	IINCHIP_WRITE
 560              	.LVL64:
 561              	.L44:
 250:.\socket.c    **** #endif
 251:.\socket.c    ****   	return ret;
ARM GAS  C:\Users\atsu\AppData\Local\Temp\ccE1EndV.s 			page 16


 252:.\socket.c    **** }
 562              		.loc 1 252 0
 563 008c 201C     		mov	r0, r4
 564              		@ sp needed for prologue
 565 008e FEBD     		pop	{r1, r2, r3, r4, r5, r6, r7, pc}
 566              		.cfi_endproc
 567              	.LFE5:
 568              		.size	send, .-send
 569              		.section	.text.recv,"ax",%progbits
 570              		.align	1
 571              		.global	recv
 572              		.code	16
 573              		.thumb_func
 574              		.type	recv, %function
 575              	recv:
 576              	.LFB6:
 253:.\socket.c    **** 
 254:.\socket.c    **** 
 255:.\socket.c    **** /**
 256:.\socket.c    **** @brief	This function is an application I/F function which is used to receive the data in TCP mode.
 257:.\socket.c    **** 		It continues to wait for data as much as the application wants to receive.
 258:.\socket.c    **** 		
 259:.\socket.c    **** @return	received data size for success else -1.
 260:.\socket.c    **** */ 
 261:.\socket.c    **** uint16 recv(
 262:.\socket.c    **** 	SOCKET s, 	/**< socket index */
 263:.\socket.c    **** 	uint8 * buf, 	/**< a pointer to copy the data to be received */
 264:.\socket.c    **** 	uint16 len	/**< the data size to be read */
 265:.\socket.c    **** 	)
 266:.\socket.c    **** {
 577              		.loc 1 266 0
 578              		.cfi_startproc
 579              	.LVL65:
 580 0000 38B5     		push	{r3, r4, r5, lr}
 581              	.LCFI6:
 582              		.cfi_def_cfa_offset 16
 583              		.cfi_offset 3, -16
 584              		.cfi_offset 4, -12
 585              		.cfi_offset 5, -8
 586              		.cfi_offset 14, -4
 587              		.loc 1 266 0
 588 0002 051C     		mov	r5, r0
 589 0004 141E     		sub	r4, r2, #0
 267:.\socket.c    **** 	uint16 ret=0;
 268:.\socket.c    **** #ifdef __DEF_IINCHIP_DBG__
 269:.\socket.c    **** 	printf("recv()\r\n");
 270:.\socket.c    **** #endif
 271:.\socket.c    **** 
 272:.\socket.c    **** 
 273:.\socket.c    **** 	if ( len > 0 )
 590              		.loc 1 273 0
 591 0006 0ED0     		beq	.L57
 274:.\socket.c    **** 	{
 275:.\socket.c    **** 		recv_data_processing(s, buf, len);
 592              		.loc 1 275 0
 593 0008 FFF7FEFF 		bl	recv_data_processing
 594              	.LVL66:
ARM GAS  C:\Users\atsu\AppData\Local\Temp\ccE1EndV.s 			page 17


 276:.\socket.c    **** 		IINCHIP_WRITE(Sn_CR(s),Sn_CR_RECV);
 595              		.loc 1 276 0
 596 000c 074B     		ldr	r3, .L62
 597 000e 2802     		lsl	r0, r5, #8
 598 0010 C118     		add	r1, r0, r3
 599 0012 8DB2     		uxth	r5, r1
 600 0014 281C     		mov	r0, r5
 601 0016 4021     		mov	r1, #64
 602 0018 FFF7FEFF 		bl	IINCHIP_WRITE
 603              	.LVL67:
 604              	.L58:
 277:.\socket.c    **** 
 278:.\socket.c    **** 		/* +20071122[chungs]:wait to process the command... */
 279:.\socket.c    **** 		while( IINCHIP_READ(Sn_CR(s)) ) 
 605              		.loc 1 279 0 discriminator 1
 606 001c 281C     		mov	r0, r5
 607 001e FFF7FEFF 		bl	IINCHIP_READ
 608              	.LVL68:
 609 0022 0028     		cmp	r0, #0
 610 0024 FAD1     		bne	.L58
 611              	.L57:
 612              	.LVL69:
 280:.\socket.c    **** 			;
 281:.\socket.c    **** 		/* ------- */
 282:.\socket.c    **** 		ret = len;
 283:.\socket.c    **** 	}
 284:.\socket.c    **** 	return ret;
 285:.\socket.c    **** }
 613              		.loc 1 285 0
 614 0026 201C     		mov	r0, r4
 615              		@ sp needed for prologue
 616              	.LVL70:
 617 0028 38BD     		pop	{r3, r4, r5, pc}
 618              	.L63:
 619 002a C046     		.align	2
 620              	.L62:
 621 002c 01040000 		.word	1025
 622              		.cfi_endproc
 623              	.LFE6:
 624              		.size	recv, .-recv
 625              		.section	.text.sendto,"ax",%progbits
 626              		.align	1
 627              		.global	sendto
 628              		.code	16
 629              		.thumb_func
 630              		.type	sendto, %function
 631              	sendto:
 632              	.LFB7:
 286:.\socket.c    **** 
 287:.\socket.c    **** 
 288:.\socket.c    **** /**
 289:.\socket.c    **** @brief	This function is an application I/F function which is used to send the data for other then T
 290:.\socket.c    **** 		Unlike TCP transmission, The peer's destination address and the port is needed.
 291:.\socket.c    **** 		
 292:.\socket.c    **** @return	This function return send data size for success else -1.
 293:.\socket.c    **** */ 
 294:.\socket.c    **** uint16 sendto(
ARM GAS  C:\Users\atsu\AppData\Local\Temp\ccE1EndV.s 			page 18


 295:.\socket.c    **** 	SOCKET s, 		/**< socket index */
 296:.\socket.c    **** 	const uint8 * buf, 	/**< a pointer to the data */
 297:.\socket.c    **** 	uint16 len, 		/**< the data size to send */
 298:.\socket.c    **** 	uint8 * addr, 		/**< the peer's Destination IP address */
 299:.\socket.c    **** 	uint16 port		/**< the peer's destination port number */
 300:.\socket.c    **** 	)
 301:.\socket.c    **** {
 633              		.loc 1 301 0
 634              		.cfi_startproc
 635              	.LVL71:
 636 0000 F7B5     		push	{r0, r1, r2, r4, r5, r6, r7, lr}
 637              	.LCFI7:
 638              		.cfi_def_cfa_offset 32
 639              		.cfi_offset 0, -32
 640              		.cfi_offset 1, -28
 641              		.cfi_offset 2, -24
 642              		.cfi_offset 4, -20
 643              		.cfi_offset 5, -16
 644              		.cfi_offset 6, -12
 645              		.cfi_offset 7, -8
 646              		.cfi_offset 14, -4
 647              		.loc 1 301 0
 648 0002 1E1C     		mov	r6, r3
 649 0004 08AB     		add	r3, sp, #32
 650              	.LVL72:
 651 0006 071C     		mov	r7, r0
 652 0008 1888     		ldrh	r0, [r3]
 653              	.LVL73:
 654 000a 141C     		mov	r4, r2
 655 000c 0090     		str	r0, [sp]
 302:.\socket.c    **** //	uint8 status=0;
 303:.\socket.c    **** //	uint8 isr=0;
 304:.\socket.c    **** 	uint16 ret=0;
 305:.\socket.c    **** 	
 306:.\socket.c    **** #ifdef __DEF_IINCHIP_DBG__
 307:.\socket.c    **** 	printf("sendto()\r\n");
 308:.\socket.c    **** #endif
 309:.\socket.c    ****    if (len > getIINCHIP_TxMAX(s)) ret = getIINCHIP_TxMAX(s); // check size not to exceed MAX size.
 656              		.loc 1 309 0
 657 000e 381C     		mov	r0, r7
 301:.\socket.c    **** {
 658              		.loc 1 301 0
 659 0010 0191     		str	r1, [sp, #4]
 660              		.loc 1 309 0
 661 0012 FFF7FEFF 		bl	getIINCHIP_TxMAX
 662              	.LVL74:
 663 0016 8442     		cmp	r4, r0
 664 0018 03D9     		bls	.L65
 665              		.loc 1 309 0 is_stmt 0 discriminator 1
 666 001a 381C     		mov	r0, r7
 667 001c FFF7FEFF 		bl	getIINCHIP_TxMAX
 668              	.LVL75:
 669 0020 041C     		mov	r4, r0
 670              	.LVL76:
 671              	.L65:
 310:.\socket.c    ****    else ret = len;
 311:.\socket.c    **** 
ARM GAS  C:\Users\atsu\AppData\Local\Temp\ccE1EndV.s 			page 19


 312:.\socket.c    **** 	if
 313:.\socket.c    **** 		(
 314:.\socket.c    **** 		 	((addr[0] == 0x00) && (addr[1] == 0x00) && (addr[2] == 0x00) && (addr[3] == 0x00)) ||
 672              		.loc 1 314 0 is_stmt 1
 673 0022 3178     		ldrb	r1, [r6]
 313:.\socket.c    **** 		(
 674              		.loc 1 313 0
 675 0024 0029     		cmp	r1, #0
 676 0026 08D1     		bne	.L66
 677              		.loc 1 314 0
 678 0028 7278     		ldrb	r2, [r6, #1]
 679 002a 002A     		cmp	r2, #0
 680 002c 05D1     		bne	.L66
 681              		.loc 1 314 0 is_stmt 0 discriminator 1
 682 002e B578     		ldrb	r5, [r6, #2]
 683 0030 002D     		cmp	r5, #0
 684 0032 02D1     		bne	.L66
 685 0034 F378     		ldrb	r3, [r6, #3]
 686 0036 002B     		cmp	r3, #0
 687 0038 54D0     		beq	.L72
 688              	.L66:
 689              		.loc 1 314 0 discriminator 2
 690 003a 0098     		ldr	r0, [sp]
 691 003c 0028     		cmp	r0, #0
 692 003e 53D0     		beq	.L73
 315:.\socket.c    **** 		 	((port == 0x00)) ||(ret == 0)
 693              		.loc 1 315 0 is_stmt 1
 694 0040 002C     		cmp	r4, #0
 695 0042 52D0     		beq	.L67
 316:.\socket.c    **** 		) 
 317:.\socket.c    ****  	{
 318:.\socket.c    ****  	   /* +2008.01 [bj] : added return value */
 319:.\socket.c    ****  	   ret = 0;
 320:.\socket.c    **** #ifdef __DEF_IINCHIP_DBG__
 321:.\socket.c    **** 	printf("%d Fail[%.2x.%.2x.%.2x.%.2x, %.d, %d]\r\n",s, addr[0], addr[1], addr[2], addr[3] , port, l
 322:.\socket.c    **** 	printf("Fail[invalid ip,port]\r\n");
 323:.\socket.c    **** #endif
 324:.\socket.c    **** 	}
 325:.\socket.c    **** 	else
 326:.\socket.c    **** 	{
 327:.\socket.c    **** 		IINCHIP_WRITE(Sn_DIPR0(s),addr[0]);
 696              		.loc 1 327 0
 697 0044 3A1D     		add	r2, r7, #4
 698 0046 1502     		lsl	r5, r2, #8
 699 0048 ADB2     		uxth	r5, r5
 700 004a 2B1C     		mov	r3, r5
 701 004c 0C33     		add	r3, r3, #12
 702 004e 98B2     		uxth	r0, r3
 703 0050 FFF7FEFF 		bl	IINCHIP_WRITE
 704              	.LVL77:
 328:.\socket.c    **** 		IINCHIP_WRITE((Sn_DIPR0(s) + 1),addr[1]);
 705              		.loc 1 328 0
 706 0054 291C     		mov	r1, r5
 707 0056 0D31     		add	r1, r1, #13
 708 0058 88B2     		uxth	r0, r1
 709 005a 7178     		ldrb	r1, [r6, #1]
 710 005c FFF7FEFF 		bl	IINCHIP_WRITE
ARM GAS  C:\Users\atsu\AppData\Local\Temp\ccE1EndV.s 			page 20


 711              	.LVL78:
 329:.\socket.c    **** 		IINCHIP_WRITE((Sn_DIPR0(s) + 2),addr[2]);
 712              		.loc 1 329 0
 713 0060 281C     		mov	r0, r5
 714 0062 0E30     		add	r0, r0, #14
 715 0064 B178     		ldrb	r1, [r6, #2]
 716 0066 80B2     		uxth	r0, r0
 717 0068 FFF7FEFF 		bl	IINCHIP_WRITE
 718              	.LVL79:
 330:.\socket.c    **** 		IINCHIP_WRITE((Sn_DIPR0(s) + 3),addr[3]);
 719              		.loc 1 330 0
 720 006c 2A1C     		mov	r2, r5
 721 006e 0F32     		add	r2, r2, #15
 722 0070 90B2     		uxth	r0, r2
 723 0072 F178     		ldrb	r1, [r6, #3]
 724 0074 FFF7FEFF 		bl	IINCHIP_WRITE
 725              	.LVL80:
 331:.\socket.c    **** 		IINCHIP_WRITE(Sn_DPORT0(s),(uint8)((port & 0xff00) >> 8));
 726              		.loc 1 331 0
 727 0078 2E1C     		mov	r6, r5
 728              	.LVL81:
 729 007a 009B     		ldr	r3, [sp]
 730 007c 1036     		add	r6, r6, #16
 731 007e 190A     		lsr	r1, r3, #8
 732 0080 B0B2     		uxth	r0, r6
 733 0082 FFF7FEFF 		bl	IINCHIP_WRITE
 734              	.LVL82:
 332:.\socket.c    **** 		IINCHIP_WRITE((Sn_DPORT0(s) + 1),(uint8)(port & 0x00ff));
 735              		.loc 1 332 0
 736 0086 291C     		mov	r1, r5
 737 0088 6A46     		mov	r2, sp
 738 008a 1131     		add	r1, r1, #17
 739 008c 88B2     		uxth	r0, r1
 740 008e 1178     		ldrb	r1, [r2]
 741 0090 FFF7FEFF 		bl	IINCHIP_WRITE
 742              	.LVL83:
 333:.\socket.c    **** 
 334:.\socket.c    ****   		// copy data
 335:.\socket.c    ****   		send_data_processing(s, (uint8 *)buf, ret);
 743              		.loc 1 335 0
 744 0094 381C     		mov	r0, r7
 336:.\socket.c    **** 		IINCHIP_WRITE(Sn_CR(s),Sn_CR_SEND);
 745              		.loc 1 336 0
 746 0096 6F1C     		add	r7, r5, #1
 335:.\socket.c    ****   		send_data_processing(s, (uint8 *)buf, ret);
 747              		.loc 1 335 0
 748 0098 0199     		ldr	r1, [sp, #4]
 749 009a 221C     		mov	r2, r4
 750              		.loc 1 336 0
 751 009c BEB2     		uxth	r6, r7
 335:.\socket.c    ****   		send_data_processing(s, (uint8 *)buf, ret);
 752              		.loc 1 335 0
 753 009e FFF7FEFF 		bl	send_data_processing
 754              	.LVL84:
 755              		.loc 1 336 0
 756 00a2 301C     		mov	r0, r6
 757 00a4 2021     		mov	r1, #32
ARM GAS  C:\Users\atsu\AppData\Local\Temp\ccE1EndV.s 			page 21


 758 00a6 FFF7FEFF 		bl	IINCHIP_WRITE
 759              	.LVL85:
 760              	.L68:
 337:.\socket.c    **** 
 338:.\socket.c    **** 		/* +20071122[chungs]:wait to process the command... */
 339:.\socket.c    **** 		while( IINCHIP_READ(Sn_CR(s)) ) 
 761              		.loc 1 339 0 discriminator 1
 762 00aa 301C     		mov	r0, r6
 763 00ac FFF7FEFF 		bl	IINCHIP_READ
 764              	.LVL86:
 765 00b0 0028     		cmp	r0, #0
 766 00b2 FAD1     		bne	.L68
 767              	.L78:
 340:.\socket.c    **** 			;
 341:.\socket.c    **** 		/* ------- */
 342:.\socket.c    **** 		
 343:.\socket.c    **** /* +2008.01 bj */	
 344:.\socket.c    **** #ifdef __DEF_IINCHIP_INT__
 345:.\socket.c    ****    	while ( (getISR(s) & Sn_IR_SEND_OK) != Sn_IR_SEND_OK ) 
 346:.\socket.c    **** #else
 347:.\socket.c    **** 	   while ( (IINCHIP_READ(Sn_IR(s)) & Sn_IR_SEND_OK) != Sn_IR_SEND_OK ) 
 768              		.loc 1 347 0
 769 00b4 A81C     		add	r0, r5, #2
 770 00b6 86B2     		uxth	r6, r0
 771 00b8 301C     		mov	r0, r6
 772 00ba FFF7FEFF 		bl	IINCHIP_READ
 773              	.LVL87:
 774 00be 1021     		mov	r1, #16
 775 00c0 071C     		mov	r7, r0
 776 00c2 0F40     		and	r7, r1
 348:.\socket.c    **** #endif
 349:.\socket.c    **** 		{
 350:.\socket.c    **** #ifdef __DEF_IINCHIP_INT__
 351:.\socket.c    ****       	if (getISR(s) & Sn_IR_TIMEOUT)
 352:.\socket.c    **** #else
 353:.\socket.c    **** 	      if (IINCHIP_READ(Sn_IR(s)) & Sn_IR_TIMEOUT)
 777              		.loc 1 353 0
 778 00c4 301C     		mov	r0, r6
 347:.\socket.c    **** 	   while ( (IINCHIP_READ(Sn_IR(s)) & Sn_IR_SEND_OK) != Sn_IR_SEND_OK ) 
 779              		.loc 1 347 0
 780 00c6 002F     		cmp	r7, #0
 781 00c8 09D1     		bne	.L83
 782              	.L70:
 783              		.loc 1 353 0
 784 00ca FFF7FEFF 		bl	IINCHIP_READ
 785              	.LVL88:
 786 00ce 0307     		lsl	r3, r0, #28
 787 00d0 F0D5     		bpl	.L78
 354:.\socket.c    **** #endif
 355:.\socket.c    **** 			{
 356:.\socket.c    **** #ifdef __DEF_IINCHIP_DBG__
 357:.\socket.c    **** 				printf("send fail.\r\n");
 358:.\socket.c    **** #endif
 359:.\socket.c    **** /* +2008.01 [bj]: clear interrupt */
 360:.\socket.c    **** #ifdef __DEF_IINCHIP_INT__
 361:.\socket.c    ****          	putISR(s, getISR(s) & ~(Sn_IR_SEND_OK | Sn_IR_TIMEOUT));  /* clear SEND_OK & TIMEOUT */
 362:.\socket.c    **** #else
ARM GAS  C:\Users\atsu\AppData\Local\Temp\ccE1EndV.s 			page 22


 363:.\socket.c    ****          	IINCHIP_WRITE(Sn_IR(s), (Sn_IR_SEND_OK | Sn_IR_TIMEOUT)); /* clear SEND_OK & TIMEOUT */
 788              		.loc 1 363 0
 789 00d2 301C     		mov	r0, r6
 790 00d4 1821     		mov	r1, #24
 791 00d6 FFF7FEFF 		bl	IINCHIP_WRITE
 792              	.LVL89:
 364:.\socket.c    **** #endif
 365:.\socket.c    **** 			return 0;
 793              		.loc 1 365 0
 794 00da 3C1C     		mov	r4, r7
 795              	.LVL90:
 796 00dc 05E0     		b	.L67
 797              	.LVL91:
 798              	.L83:
 366:.\socket.c    **** 			}
 367:.\socket.c    **** 		}
 368:.\socket.c    **** 
 369:.\socket.c    **** /* +2008.01 bj */	
 370:.\socket.c    **** #ifdef __DEF_IINCHIP_INT__
 371:.\socket.c    ****      	putISR(s, getISR(s) & (~Sn_IR_SEND_OK));
 372:.\socket.c    **** #else
 373:.\socket.c    **** 	   IINCHIP_WRITE(Sn_IR(s), Sn_IR_SEND_OK);
 799              		.loc 1 373 0
 800 00de FFF7FEFF 		bl	IINCHIP_WRITE
 801              	.LVL92:
 802 00e2 02E0     		b	.L67
 803              	.LVL93:
 804              	.L72:
 319:.\socket.c    ****  	   ret = 0;
 805              		.loc 1 319 0
 806 00e4 1C1C     		mov	r4, r3
 807              	.LVL94:
 808 00e6 00E0     		b	.L67
 809              	.LVL95:
 810              	.L73:
 811 00e8 009C     		ldr	r4, [sp]
 812              	.LVL96:
 813              	.L67:
 374:.\socket.c    **** #endif
 375:.\socket.c    **** 
 376:.\socket.c    **** 	}
 377:.\socket.c    **** 	return ret;
 378:.\socket.c    **** }
 814              		.loc 1 378 0
 815 00ea 201C     		mov	r0, r4
 816              		@ sp needed for prologue
 817 00ec FEBD     		pop	{r1, r2, r3, r4, r5, r6, r7, pc}
 818              		.cfi_endproc
 819              	.LFE7:
 820              		.size	sendto, .-sendto
 821              		.section	.text.recvfrom,"ax",%progbits
 822              		.align	1
 823              		.global	recvfrom
 824              		.code	16
 825              		.thumb_func
 826              		.type	recvfrom, %function
 827              	recvfrom:
ARM GAS  C:\Users\atsu\AppData\Local\Temp\ccE1EndV.s 			page 23


 828              	.LFB8:
 379:.\socket.c    **** 
 380:.\socket.c    **** 
 381:.\socket.c    **** /**
 382:.\socket.c    **** @brief	This function is an application I/F function which is used to receive the data in other then
 383:.\socket.c    **** 	TCP mode. This function is used to receive UDP, IP_RAW and MAC_RAW mode, and handle the header as 
 384:.\socket.c    **** 	
 385:.\socket.c    **** @return	This function return received data size for success else -1.
 386:.\socket.c    **** */ 
 387:.\socket.c    **** uint16 recvfrom(
 388:.\socket.c    **** 	SOCKET s, 	/**< the socket number */
 389:.\socket.c    **** 	uint8 * buf, 	/**< a pointer to copy the data to be received */
 390:.\socket.c    **** 	uint16 len, 	/**< the data size to read */
 391:.\socket.c    **** 	uint8 * addr, 	/**< a pointer to store the peer's IP address */
 392:.\socket.c    **** 	uint16 *port	/**< a pointer to store the peer's port number. */
 393:.\socket.c    **** 	)
 394:.\socket.c    **** {
 829              		.loc 1 394 0
 830              		.cfi_startproc
 831              	.LVL97:
 832 0000 F0B5     		push	{r4, r5, r6, r7, lr}
 833              	.LCFI8:
 834              		.cfi_def_cfa_offset 20
 835              		.cfi_offset 4, -20
 836              		.cfi_offset 5, -16
 837              		.cfi_offset 6, -12
 838              		.cfi_offset 7, -8
 839              		.cfi_offset 14, -4
 395:.\socket.c    **** 	uint8 head[8];
 396:.\socket.c    **** 	uint16 data_len=0;
 840              		.loc 1 396 0
 841 0002 0024     		mov	r4, #0
 394:.\socket.c    **** {
 842              		.loc 1 394 0
 843 0004 87B0     		sub	sp, sp, #28
 844              	.LCFI9:
 845              		.cfi_def_cfa_offset 48
 394:.\socket.c    **** {
 846              		.loc 1 394 0
 847 0006 061C     		mov	r6, r0
 848 0008 0391     		str	r1, [sp, #12]
 849 000a 1D1C     		mov	r5, r3
 397:.\socket.c    **** 	uint16 ptr=0;
 398:.\socket.c    **** #ifdef __DEF_IINCHIP_DBG__
 399:.\socket.c    **** 	printf("recvfrom()\r\n");
 400:.\socket.c    **** #endif
 401:.\socket.c    **** 
 402:.\socket.c    **** 	if ( len > 0 )
 850              		.loc 1 402 0
 851 000c A242     		cmp	r2, r4
 852 000e 79D0     		beq	.L85
 403:.\socket.c    **** 	{
 404:.\socket.c    ****    	ptr = IINCHIP_READ(Sn_RX_RD0(s));
 853              		.loc 1 404 0
 854 0010 031D     		add	r3, r0, #4
 855              	.LVL98:
 856 0012 1802     		lsl	r0, r3, #8
ARM GAS  C:\Users\atsu\AppData\Local\Temp\ccE1EndV.s 			page 24


 857              	.LVL99:
 858 0014 81B2     		uxth	r1, r0
 859              	.LVL100:
 860 0016 0091     		str	r1, [sp]
 861 0018 2831     		add	r1, r1, #40
 862 001a 8AB2     		uxth	r2, r1
 863              	.LVL101:
 864 001c 101C     		mov	r0, r2
 865 001e 0192     		str	r2, [sp, #4]
 866 0020 FFF7FEFF 		bl	IINCHIP_READ
 867              	.LVL102:
 405:.\socket.c    ****    	ptr = ((ptr & 0x00ff) << 8) + IINCHIP_READ(Sn_RX_RD0(s) + 1);
 868              		.loc 1 405 0
 869 0024 009B     		ldr	r3, [sp]
 404:.\socket.c    ****    	ptr = IINCHIP_READ(Sn_RX_RD0(s));
 870              		.loc 1 404 0
 871 0026 071C     		mov	r7, r0
 872              	.LVL103:
 873              		.loc 1 405 0
 874 0028 2933     		add	r3, r3, #41
 875 002a 98B2     		uxth	r0, r3
 876              	.LVL104:
 877 002c 0290     		str	r0, [sp, #8]
 878 002e FFF7FEFF 		bl	IINCHIP_READ
 879              	.LVL105:
 880 0032 3902     		lsl	r1, r7, #8
 881 0034 4218     		add	r2, r0, r1
 406:.\socket.c    **** #ifdef __DEF_IINCHIP_DBG__
 407:.\socket.c    ****    	printf("ISR_RX: rd_ptr : %.4x\r\n", ptr);
 408:.\socket.c    **** #endif
 409:.\socket.c    ****    	switch (IINCHIP_READ(Sn_MR(s)) & 0x07)
 882              		.loc 1 409 0
 883 0036 0098     		ldr	r0, [sp]
 405:.\socket.c    ****    	ptr = ((ptr & 0x00ff) << 8) + IINCHIP_READ(Sn_RX_RD0(s) + 1);
 884              		.loc 1 405 0
 885 0038 97B2     		uxth	r7, r2
 886              	.LVL106:
 887              		.loc 1 409 0
 888 003a FFF7FEFF 		bl	IINCHIP_READ
 889              	.LVL107:
 890 003e 0723     		mov	r3, #7
 891 0040 1840     		and	r0, r3
 892 0042 0328     		cmp	r0, #3
 893 0044 1ED0     		beq	.L88
 894 0046 0428     		cmp	r0, #4
 895 0048 31D0     		beq	.L89
 896 004a 0228     		cmp	r0, #2
 897 004c 4ED1     		bne	.L86
 410:.\socket.c    ****    	{
 411:.\socket.c    ****    	case Sn_MR_UDP :
 412:.\socket.c    ****    			read_data(s, (uint8 *)ptr, head, 0x08);
 898              		.loc 1 412 0
 899 004e 391C     		mov	r1, r7
 900 0050 301C     		mov	r0, r6
 901 0052 04AA     		add	r2, sp, #16
 902 0054 0823     		mov	r3, #8
 903 0056 FFF7FEFF 		bl	read_data
ARM GAS  C:\Users\atsu\AppData\Local\Temp\ccE1EndV.s 			page 25


 904              	.LVL108:
 413:.\socket.c    ****    			ptr += 8;
 414:.\socket.c    ****    			// read peer's IP address, port number.
 415:.\socket.c    ****     			addr[0] = head[0];
 905              		.loc 1 415 0
 906 005a 6846     		mov	r0, sp
 907 005c 047C     		ldrb	r4, [r0, #16]
 413:.\socket.c    ****    			ptr += 8;
 908              		.loc 1 413 0
 909 005e 0837     		add	r7, r7, #8
 910              	.LVL109:
 911              		.loc 1 415 0
 912 0060 2C70     		strb	r4, [r5]
 416:.\socket.c    ****    			addr[1] = head[1];
 913              		.loc 1 416 0
 914 0062 417C     		ldrb	r1, [r0, #17]
 413:.\socket.c    ****    			ptr += 8;
 915              		.loc 1 413 0
 916 0064 BFB2     		uxth	r7, r7
 917              	.LVL110:
 918              		.loc 1 416 0
 919 0066 6970     		strb	r1, [r5, #1]
 417:.\socket.c    ****    			addr[2] = head[2];
 920              		.loc 1 417 0
 921 0068 827C     		ldrb	r2, [r0, #18]
 922 006a AA70     		strb	r2, [r5, #2]
 418:.\socket.c    ****    			addr[3] = head[3];
 923              		.loc 1 418 0
 924 006c C37C     		ldrb	r3, [r0, #19]
 419:.\socket.c    ****    			*port = head[4];
 420:.\socket.c    ****    			*port = (*port << 8) + head[5];
 925              		.loc 1 420 0
 926 006e 0C9A     		ldr	r2, [sp, #48]
 418:.\socket.c    ****    			addr[3] = head[3];
 927              		.loc 1 418 0
 928 0070 EB70     		strb	r3, [r5, #3]
 419:.\socket.c    ****    			*port = head[4];
 929              		.loc 1 419 0
 930 0072 057D     		ldrb	r5, [r0, #20]
 931              	.LVL111:
 932              		.loc 1 420 0
 933 0074 417D     		ldrb	r1, [r0, #21]
 934 0076 2C02     		lsl	r4, r5, #8
 935 0078 6318     		add	r3, r4, r1
 936 007a 1380     		strh	r3, [r2]
 937              	.LVL112:
 421:.\socket.c    ****    			data_len = head[6];
 938              		.loc 1 421 0
 939 007c 857D     		ldrb	r5, [r0, #22]
 422:.\socket.c    ****    			data_len = (data_len << 8) + head[7];
 940              		.loc 1 422 0
 941 007e C17D     		ldrb	r1, [r0, #23]
 942 0080 2A02     		lsl	r2, r5, #8
 943 0082 21E0     		b	.L95
 944              	.LVL113:
 945              	.L88:
 423:.\socket.c    ****    			
ARM GAS  C:\Users\atsu\AppData\Local\Temp\ccE1EndV.s 			page 26


 424:.\socket.c    **** #ifdef __DEF_IINCHIP_DBG__
 425:.\socket.c    ****    			printf("UDP msg arrived\r\n");
 426:.\socket.c    ****    			printf("source Port : %d\r\n", *port);
 427:.\socket.c    ****    			printf("source IP : %d.%d.%d.%d\r\n", addr[0], addr[1], addr[2], addr[3]);
 428:.\socket.c    **** #endif
 429:.\socket.c    **** 
 430:.\socket.c    **** 			read_data(s, (uint8 *)ptr, buf, data_len); // data copy.
 431:.\socket.c    **** 			ptr += data_len;
 432:.\socket.c    **** 
 433:.\socket.c    **** 			IINCHIP_WRITE(Sn_RX_RD0(s),(uint8)((ptr & 0xff00) >> 8));
 434:.\socket.c    **** 			IINCHIP_WRITE((Sn_RX_RD0(s) + 1),(uint8)(ptr & 0x00ff));
 435:.\socket.c    ****    			break;
 436:.\socket.c    ****    
 437:.\socket.c    ****    	case Sn_MR_IPRAW :
 438:.\socket.c    ****    			read_data(s, (uint8 *)ptr, head, 0x06);
 946              		.loc 1 438 0
 947 0084 391C     		mov	r1, r7
 948 0086 301C     		mov	r0, r6
 949 0088 04AA     		add	r2, sp, #16
 950 008a 0623     		mov	r3, #6
 951 008c FFF7FEFF 		bl	read_data
 952              	.LVL114:
 439:.\socket.c    ****    			ptr += 6;
 440:.\socket.c    ****    
 441:.\socket.c    ****    			addr[0] = head[0];
 953              		.loc 1 441 0
 954 0090 6846     		mov	r0, sp
 955 0092 037C     		ldrb	r3, [r0, #16]
 439:.\socket.c    ****    			ptr += 6;
 956              		.loc 1 439 0
 957 0094 0637     		add	r7, r7, #6
 958              	.LVL115:
 959              		.loc 1 441 0
 960 0096 2B70     		strb	r3, [r5]
 442:.\socket.c    ****    			addr[1] = head[1];
 961              		.loc 1 442 0
 962 0098 447C     		ldrb	r4, [r0, #17]
 439:.\socket.c    ****    			ptr += 6;
 963              		.loc 1 439 0
 964 009a BFB2     		uxth	r7, r7
 965              	.LVL116:
 966              		.loc 1 442 0
 967 009c 6C70     		strb	r4, [r5, #1]
 443:.\socket.c    ****    			addr[2] = head[2];
 968              		.loc 1 443 0
 969 009e 827C     		ldrb	r2, [r0, #18]
 970 00a0 AA70     		strb	r2, [r5, #2]
 444:.\socket.c    ****    			addr[3] = head[3];
 971              		.loc 1 444 0
 972 00a2 C17C     		ldrb	r1, [r0, #19]
 973 00a4 E970     		strb	r1, [r5, #3]
 974              	.LVL117:
 445:.\socket.c    ****    			data_len = head[4];
 975              		.loc 1 445 0
 976 00a6 057D     		ldrb	r5, [r0, #20]
 977              	.LVL118:
 446:.\socket.c    ****    			data_len = (data_len << 8) + head[5];
ARM GAS  C:\Users\atsu\AppData\Local\Temp\ccE1EndV.s 			page 27


 978              		.loc 1 446 0
 979 00a8 417D     		ldrb	r1, [r0, #21]
 980 00aa 2A02     		lsl	r2, r5, #8
 981 00ac 0CE0     		b	.L95
 982              	.LVL119:
 983              	.L89:
 447:.\socket.c    ****    	
 448:.\socket.c    **** #ifdef __DEF_IINCHIP_DBG__
 449:.\socket.c    ****    			printf("IP RAW msg arrived\r\n");
 450:.\socket.c    ****    			printf("source IP : %d.%d.%d.%d\r\n", addr[0], addr[1], addr[2], addr[3]);
 451:.\socket.c    **** #endif
 452:.\socket.c    **** 			read_data(s, (uint8 *)ptr, buf, data_len); // data copy.
 453:.\socket.c    **** 			ptr += data_len;
 454:.\socket.c    **** 
 455:.\socket.c    **** 			IINCHIP_WRITE(Sn_RX_RD0(s),(uint8)((ptr & 0xff00) >> 8));
 456:.\socket.c    **** 			IINCHIP_WRITE((Sn_RX_RD0(s) + 1),(uint8)(ptr & 0x00ff));
 457:.\socket.c    ****    			break;
 458:.\socket.c    ****    	case Sn_MR_MACRAW :
 459:.\socket.c    ****    			read_data(s,(uint8*)ptr,head,2);
 984              		.loc 1 459 0
 985 00ae 391C     		mov	r1, r7
 986 00b0 301C     		mov	r0, r6
 987 00b2 04AA     		add	r2, sp, #16
 988 00b4 0223     		mov	r3, #2
 989 00b6 FFF7FEFF 		bl	read_data
 990              	.LVL120:
 460:.\socket.c    ****    			ptr+=2;
 461:.\socket.c    ****    			data_len = head[0];
 991              		.loc 1 461 0
 992 00ba 6846     		mov	r0, sp
 993 00bc 047C     		ldrb	r4, [r0, #16]
 462:.\socket.c    ****    			data_len = (data_len<<8) + head[1] - 2;
 994              		.loc 1 462 0
 995 00be 417C     		ldrb	r1, [r0, #17]
 460:.\socket.c    ****    			ptr+=2;
 996              		.loc 1 460 0
 997 00c0 0237     		add	r7, r7, #2
 998              	.LVL121:
 999 00c2 BFB2     		uxth	r7, r7
 1000              	.LVL122:
 1001              		.loc 1 462 0
 1002 00c4 2202     		lsl	r2, r4, #8
 1003 00c6 0239     		sub	r1, r1, #2
 1004              	.LVL123:
 1005              	.L95:
 1006 00c8 5018     		add	r0, r2, r1
 1007 00ca 84B2     		uxth	r4, r0
 1008              	.LVL124:
 463:.\socket.c    **** 
 464:.\socket.c    ****    			read_data(s,(uint8*) ptr,buf,data_len);
 1009              		.loc 1 464 0
 1010 00cc 301C     		mov	r0, r6
 1011              	.LVL125:
 465:.\socket.c    ****    			ptr += data_len;
 1012              		.loc 1 465 0
 1013 00ce 3E19     		add	r6, r7, r4
 464:.\socket.c    ****    			read_data(s,(uint8*) ptr,buf,data_len);
ARM GAS  C:\Users\atsu\AppData\Local\Temp\ccE1EndV.s 			page 28


 1014              		.loc 1 464 0
 1015 00d0 391C     		mov	r1, r7
 1016 00d2 039A     		ldr	r2, [sp, #12]
 1017 00d4 231C     		mov	r3, r4
 1018              		.loc 1 465 0
 1019 00d6 B7B2     		uxth	r7, r6
 464:.\socket.c    ****    			read_data(s,(uint8*) ptr,buf,data_len);
 1020              		.loc 1 464 0
 1021 00d8 FFF7FEFF 		bl	read_data
 1022              	.LVL126:
 466:.\socket.c    ****    			IINCHIP_WRITE(Sn_RX_RD0(s),(uint8)((ptr & 0xff00) >> 8));
 1023              		.loc 1 466 0
 1024 00dc 390A     		lsr	r1, r7, #8
 1025 00de 0198     		ldr	r0, [sp, #4]
 1026 00e0 FFF7FEFF 		bl	IINCHIP_WRITE
 1027              	.LVL127:
 467:.\socket.c    ****    			IINCHIP_WRITE((Sn_RX_RD0(s) + 1),(uint8)(ptr & 0x00ff));
 1028              		.loc 1 467 0
 1029 00e4 F9B2     		uxtb	r1, r7
 1030 00e6 0298     		ldr	r0, [sp, #8]
 1031 00e8 FFF7FEFF 		bl	IINCHIP_WRITE
 1032              	.LVL128:
 1033              	.L86:
 468:.\socket.c    ****    			
 469:.\socket.c    **** #ifdef __DEF_IINCHIP_DGB__
 470:.\socket.c    **** 			printf("MAC RAW msg arrived\r\n");
 471:.\socket.c    **** 			printf("dest mac=%.2X.%.2X.%.2X.%.2X.%.2X.%.2X\r\n",buf[0],buf[1],buf[2],buf[3],buf[4],buf[5]);
 472:.\socket.c    **** 			printf("src  mac=%.2X.%.2X.%.2X.%.2X.%.2X.%.2X\r\n",buf[6],buf[7],buf[8],buf[9],buf[10],buf[11])
 473:.\socket.c    **** 			printf("type    =%.2X%.2X\r\n",buf[12],buf[13]); 
 474:.\socket.c    **** #endif			
 475:.\socket.c    **** 			break;
 476:.\socket.c    **** 
 477:.\socket.c    ****    	default :
 478:.\socket.c    ****    			break;
 479:.\socket.c    ****    	}
 480:.\socket.c    **** 		IINCHIP_WRITE(Sn_CR(s),Sn_CR_RECV);
 1034              		.loc 1 480 0
 1035 00ec 009B     		ldr	r3, [sp]
 1036 00ee 4021     		mov	r1, #64
 1037 00f0 0133     		add	r3, r3, #1
 1038 00f2 9DB2     		uxth	r5, r3
 1039 00f4 281C     		mov	r0, r5
 1040 00f6 FFF7FEFF 		bl	IINCHIP_WRITE
 1041              	.LVL129:
 1042              	.L90:
 481:.\socket.c    **** 
 482:.\socket.c    **** 		/* +20071122[chungs]:wait to process the command... */
 483:.\socket.c    **** 		while( IINCHIP_READ(Sn_CR(s)) ) 
 1043              		.loc 1 483 0 discriminator 1
 1044 00fa 281C     		mov	r0, r5
 1045 00fc FFF7FEFF 		bl	IINCHIP_READ
 1046              	.LVL130:
 1047 0100 0028     		cmp	r0, #0
 1048 0102 FAD1     		bne	.L90
 1049              	.LVL131:
 1050              	.L85:
 484:.\socket.c    **** 			;
ARM GAS  C:\Users\atsu\AppData\Local\Temp\ccE1EndV.s 			page 29


 485:.\socket.c    **** 		/* ------- */
 486:.\socket.c    **** 	}
 487:.\socket.c    **** #ifdef __DEF_IINCHIP_DBG__
 488:.\socket.c    **** 	printf("recvfrom() end ..\r\n");
 489:.\socket.c    **** #endif
 490:.\socket.c    ****  	return data_len;
 491:.\socket.c    **** }
 1051              		.loc 1 491 0
 1052 0104 201C     		mov	r0, r4
 1053 0106 07B0     		add	sp, sp, #28
 1054              		@ sp needed for prologue
 1055              	.LVL132:
 1056 0108 F0BD     		pop	{r4, r5, r6, r7, pc}
 1057              		.cfi_endproc
 1058              	.LFE8:
 1059              		.size	recvfrom, .-recvfrom
 1060              		.section	.text.igmpsend,"ax",%progbits
 1061              		.align	1
 1062              		.global	igmpsend
 1063              		.code	16
 1064              		.thumb_func
 1065              		.type	igmpsend, %function
 1066              	igmpsend:
 1067              	.LFB9:
 492:.\socket.c    **** 
 493:.\socket.c    **** 
 494:.\socket.c    **** uint16 igmpsend(SOCKET s, const uint8 * buf, uint16 len)
 495:.\socket.c    **** {
 1068              		.loc 1 495 0
 1069              		.cfi_startproc
 1070              	.LVL133:
 1071 0000 F7B5     		push	{r0, r1, r2, r4, r5, r6, r7, lr}
 1072              	.LCFI10:
 1073              		.cfi_def_cfa_offset 32
 1074              		.cfi_offset 0, -32
 1075              		.cfi_offset 1, -28
 1076              		.cfi_offset 2, -24
 1077              		.cfi_offset 4, -20
 1078              		.cfi_offset 5, -16
 1079              		.cfi_offset 6, -12
 1080              		.cfi_offset 7, -8
 1081              		.cfi_offset 14, -4
 1082              		.loc 1 495 0
 1083 0002 141C     		mov	r4, r2
 1084 0004 051C     		mov	r5, r0
 1085 0006 0E1C     		mov	r6, r1
 496:.\socket.c    **** 	uint8 status=0;
 497:.\socket.c    **** //	uint8 isr=0;
 498:.\socket.c    **** 	uint16 ret=0;
 499:.\socket.c    **** 	
 500:.\socket.c    **** #ifdef __DEF_IINCHIP_DBG__
 501:.\socket.c    **** 	printf("igmpsend()\r\n");
 502:.\socket.c    **** #endif
 503:.\socket.c    ****    if (len > getIINCHIP_TxMAX(s)) ret = getIINCHIP_TxMAX(s); // check size not to exceed MAX size.
 1086              		.loc 1 503 0
 1087 0008 FFF7FEFF 		bl	getIINCHIP_TxMAX
 1088              	.LVL134:
ARM GAS  C:\Users\atsu\AppData\Local\Temp\ccE1EndV.s 			page 30


 1089 000c 8442     		cmp	r4, r0
 1090 000e 03D9     		bls	.L97
 1091              		.loc 1 503 0 is_stmt 0 discriminator 1
 1092 0010 281C     		mov	r0, r5
 1093 0012 FFF7FEFF 		bl	getIINCHIP_TxMAX
 1094              	.LVL135:
 1095 0016 041C     		mov	r4, r0
 1096              	.LVL136:
 1097              	.L97:
 504:.\socket.c    ****    else ret = len;
 505:.\socket.c    **** 
 506:.\socket.c    **** 	if	(ret == 0) 
 1098              		.loc 1 506 0 is_stmt 1
 1099 0018 002C     		cmp	r4, #0
 1100 001a 2CD0     		beq	.L98
 507:.\socket.c    ****  	{
 508:.\socket.c    ****  	   ;
 509:.\socket.c    **** #ifdef __DEF_IINCHIP_DBG__
 510:.\socket.c    **** 	printf("%d Fail[%d]\r\n",len);
 511:.\socket.c    **** #endif
 512:.\socket.c    **** 	}
 513:.\socket.c    **** 	else
 514:.\socket.c    **** 	{
 515:.\socket.c    **** 		// copy data
 516:.\socket.c    **** 		send_data_processing(s, (uint8 *)buf, ret);
 1101              		.loc 1 516 0
 1102 001c 311C     		mov	r1, r6
 1103 001e 281C     		mov	r0, r5
 517:.\socket.c    **** 		IINCHIP_WRITE(Sn_CR(s),Sn_CR_SEND);
 1104              		.loc 1 517 0
 1105 0020 2F1D     		add	r7, r5, #4
 516:.\socket.c    **** 		send_data_processing(s, (uint8 *)buf, ret);
 1106              		.loc 1 516 0
 1107 0022 221C     		mov	r2, r4
 1108 0024 FFF7FEFF 		bl	send_data_processing
 1109              	.LVL137:
 1110              		.loc 1 517 0
 1111 0028 3802     		lsl	r0, r7, #8
 1112 002a 87B2     		uxth	r7, r0
 1113 002c 791C     		add	r1, r7, #1
 1114 002e 8EB2     		uxth	r6, r1
 1115              	.LVL138:
 1116 0030 301C     		mov	r0, r6
 1117 0032 2021     		mov	r1, #32
 1118 0034 FFF7FEFF 		bl	IINCHIP_WRITE
 1119              	.LVL139:
 1120              	.L99:
 518:.\socket.c    **** /* +2008.01 bj */	
 519:.\socket.c    **** 		while( IINCHIP_READ(Sn_CR(s)) ) 
 1121              		.loc 1 519 0 discriminator 1
 1122 0038 301C     		mov	r0, r6
 1123 003a FFF7FEFF 		bl	IINCHIP_READ
 1124              	.LVL140:
 1125 003e 0028     		cmp	r0, #0
 1126 0040 FAD1     		bne	.L99
 1127              	.LVL141:
 1128              	.L107:
ARM GAS  C:\Users\atsu\AppData\Local\Temp\ccE1EndV.s 			page 31


 520:.\socket.c    **** 			;
 521:.\socket.c    **** /* ------- */
 522:.\socket.c    **** 		
 523:.\socket.c    **** /* +2008.01 bj */	
 524:.\socket.c    **** #ifdef __DEF_IINCHIP_INT__
 525:.\socket.c    ****    	while ( (getISR(s) & Sn_IR_SEND_OK) != Sn_IR_SEND_OK ) 
 526:.\socket.c    **** #else
 527:.\socket.c    **** 	   while ( (IINCHIP_READ(Sn_IR(s)) & Sn_IR_SEND_OK) != Sn_IR_SEND_OK ) 
 1129              		.loc 1 527 0
 1130 0042 BA1C     		add	r2, r7, #2
 1131 0044 96B2     		uxth	r6, r2
 1132 0046 301C     		mov	r0, r6
 1133 0048 FFF7FEFF 		bl	IINCHIP_READ
 1134              	.LVL142:
 1135 004c 1021     		mov	r1, #16
 1136 004e 0840     		and	r0, r1
 1137 0050 0190     		str	r0, [sp, #4]
 1138 0052 0DD1     		bne	.L112
 1139              	.L101:
 528:.\socket.c    **** #endif
 529:.\socket.c    **** 		{
 530:.\socket.c    **** 			status = IINCHIP_READ(Sn_SR(s));
 1140              		.loc 1 530 0
 1141 0054 FB1C     		add	r3, r7, #3
 1142 0056 98B2     		uxth	r0, r3
 1143 0058 FFF7FEFF 		bl	IINCHIP_READ
 1144              	.LVL143:
 531:.\socket.c    **** #ifdef __DEF_IINCHIP_INT__
 532:.\socket.c    ****       	if (getISR(s) & Sn_IR_TIMEOUT)
 533:.\socket.c    **** #else
 534:.\socket.c    **** 	      if (IINCHIP_READ(Sn_IR(s)) & Sn_IR_TIMEOUT)
 1145              		.loc 1 534 0
 1146 005c 301C     		mov	r0, r6
 1147 005e FFF7FEFF 		bl	IINCHIP_READ
 1148              	.LVL144:
 1149 0062 0307     		lsl	r3, r0, #28
 1150 0064 EDD5     		bpl	.L107
 535:.\socket.c    **** #endif
 536:.\socket.c    **** 			{
 537:.\socket.c    **** #ifdef __DEF_IINCHIP_DBG__
 538:.\socket.c    **** 				printf("igmpsend fail.\r\n");
 539:.\socket.c    **** #endif
 540:.\socket.c    **** 			   /* in case of igmp, if send fails, then socket closed */
 541:.\socket.c    **** 			   /* if you want change, remove this code. */
 542:.\socket.c    **** 			   close(s);
 1151              		.loc 1 542 0
 1152 0066 281C     		mov	r0, r5
 1153 0068 FFF7FEFF 		bl	close
 1154              	.LVL145:
 543:.\socket.c    **** 			   /* ----- */
 544:.\socket.c    **** 			   
 545:.\socket.c    **** 				return 0;
 1155              		.loc 1 545 0
 1156 006c 019C     		ldr	r4, [sp, #4]
 1157              	.LVL146:
 1158 006e 02E0     		b	.L98
 1159              	.LVL147:
ARM GAS  C:\Users\atsu\AppData\Local\Temp\ccE1EndV.s 			page 32


 1160              	.L112:
 546:.\socket.c    **** 			}
 547:.\socket.c    **** 		}
 548:.\socket.c    **** 
 549:.\socket.c    **** /* +2008.01 bj */	
 550:.\socket.c    **** #ifdef __DEF_IINCHIP_INT__
 551:.\socket.c    ****      	putISR(s, getISR(s) & (~Sn_IR_SEND_OK));
 552:.\socket.c    **** #else
 553:.\socket.c    **** 	   IINCHIP_WRITE(Sn_IR(s), Sn_IR_SEND_OK);
 1161              		.loc 1 553 0
 1162 0070 301C     		mov	r0, r6
 1163 0072 FFF7FEFF 		bl	IINCHIP_WRITE
 1164              	.LVL148:
 1165              	.L98:
 554:.\socket.c    **** #endif
 555:.\socket.c    ****    }
 556:.\socket.c    **** 	return ret;
 557:.\socket.c    **** }
 1166              		.loc 1 557 0
 1167 0076 201C     		mov	r0, r4
 1168              		@ sp needed for prologue
 1169 0078 FEBD     		pop	{r1, r2, r3, r4, r5, r6, r7, pc}
 1170              		.cfi_endproc
 1171              	.LFE9:
 1172              		.size	igmpsend, .-igmpsend
 1173              		.bss
 1174              		.align	1
 1175              		.set	.LANCHOR0,. + 0
 1176              		.type	local_port, %object
 1177              		.size	local_port, 2
 1178              	local_port:
 1179 0000 0000     		.space	2
 1180              		.text
 1181              	.Letext0:
 1182              		.file 2 "c:\\program files (x86)\\cypress\\psoc creator\\3.0\\psoc creator\\import\\gnu_cs\\arm\\4
 1183              		.file 3 "./Generated_Source/PSoC4/cytypes.h"
 1184              		.file 4 ".\\types.h"
 1185              		.file 5 ".\\w5100.h"