ARM GAS  C:\Users\atsu\AppData\Local\Temp\cc7os1vl.s 			page 1


   1              		.cpu cortex-m0
   2              		.fpu softvfp
   3              		.eabi_attribute 20, 1
   4              		.eabi_attribute 21, 1
   5              		.eabi_attribute 23, 3
   6              		.eabi_attribute 24, 1
   7              		.eabi_attribute 25, 1
   8              		.eabi_attribute 26, 1
   9              		.eabi_attribute 30, 4
  10              		.eabi_attribute 34, 0
  11              		.eabi_attribute 18, 4
  12              		.code	16
  13              		.file	"w5100.c"
  14              		.text
  15              	.Ltext0:
  16              		.cfi_sections	.debug_frame
  17              		.section	.text.SPI_transfer,"ax",%progbits
  18              		.align	1
  19              		.global	SPI_transfer
  20              		.code	16
  21              		.thumb_func
  22              		.type	SPI_transfer, %function
  23              	SPI_transfer:
  24              	.LFB33:
  25              		.file 1 ".\\w5100.c"
   1:.\w5100.c     **** /*
   2:.\w5100.c     ****  * (c)COPYRIGHT
   3:.\w5100.c     ****  * ALL RIGHT RESERVED
   4:.\w5100.c     ****  *
   5:.\w5100.c     ****  * FileName : w5100.c
   6:.\w5100.c     ****  * Revision History :
   7:.\w5100.c     ****  * ----------	-------		------------------------------------------------
   8:.\w5100.c     ****  * 	Date			version	  	Description
   9:.\w5100.c     ****  * ----------	-------  	------------------------------------------------
  10:.\w5100.c     ****  * 01/25/2007	1.1			Bug is Fixed in the Indirect Mode 
  11:.\w5100.c     ****  *							: Memory mapping error	
  12:.\w5100.c     ****  * ----------	-------		------------------------------------------------
  13:.\w5100.c     ****  * 01/08/2008	1.2			Modification of Socket Command Part
  14:.\w5100.c     ****  *							: Check if the appropriately performed after writing Sn_CR
  15:.\w5100.c     ****  *
  16:.\w5100.c     ****  *							Modification of SPI Part
  17:.\w5100.c     ****  *							: SPI code changed by adding 'spi.h'.
  18:.\w5100.c     ****  *							: Change control type for SPI port from uint8 to bit.
  19:.\w5100.c     ****  * ----------	-------		------------------------------------------------
  20:.\w5100.c     ****  * 01/15/2008	1.3			Bug is Fixed in the pppinit() fuction.
  21:.\w5100.c     ****  *							: do not clear interrupt value, so fixed.
  22:.\w5100.c     ****  *
  23:.\w5100.c     ****  *		                   			Modification of ISR
  24:.\w5100.c     ****  *                   				: Do not exit ISR, if there is interrupt.
  25:.\w5100.c     ****  * ----------	-------		------------------------------------------------
  26:.\w5100.c     ****  * 03/21/2008	1.4			Modification of SetMR() function
  27:.\w5100.c     ****  *                   				: Use IINCHIP_WRITE() function in Direct or SPI mode.
  28:.\w5100.c     ****  * ----------	-------		------------------------------------------------
  29:.\w5100.c     ****  */
  30:.\w5100.c     **** #include <stdio.h>
  31:.\w5100.c     **** #include <string.h>
  32:.\w5100.c     **** 
ARM GAS  C:\Users\atsu\AppData\Local\Temp\cc7os1vl.s 			page 2


  33:.\w5100.c     **** //#include <avr/interrupt.h>
  34:.\w5100.c     **** // #include <avr/io.h> 
  35:.\w5100.c     ****    
  36:.\w5100.c     **** #include "types.h"
  37:.\w5100.c     **** #include "socket.h"
  38:.\w5100.c     **** #include "w5100.h"
  39:.\w5100.c     **** 
  40:.\w5100.c     **** #include "device_depend.h"
  41:.\w5100.c     **** 
  42:.\w5100.c     **** 
  43:.\w5100.c     **** #ifdef __DEF_IINCHIP_PPP__
  44:.\w5100.c     ****    #include "md5.h"
  45:.\w5100.c     **** #endif
  46:.\w5100.c     **** 
  47:.\w5100.c     **** 
  48:.\w5100.c     **** #if (__DEF_IINCHIP_BUS__ == __DEF_IINCHIP_SPI_MODE__)
  49:.\w5100.c     **** //#include "spi.h"		//+2007113[jhpark]
  50:.\w5100.c     **** #include <project.h>
  51:.\w5100.c     **** #endif
  52:.\w5100.c     **** 
  53:.\w5100.c     **** static uint8 I_STATUS[MAX_SOCK_NUM];
  54:.\w5100.c     **** static uint16 SMASK[MAX_SOCK_NUM]; /**< Variable for Tx buffer MASK in each channel */
  55:.\w5100.c     **** static uint16 RMASK[MAX_SOCK_NUM]; /**< Variable for Rx buffer MASK in each channel */
  56:.\w5100.c     **** static uint16 SSIZE[MAX_SOCK_NUM]; /**< Max Tx buffer size by each channel */
  57:.\w5100.c     **** static uint16 RSIZE[MAX_SOCK_NUM]; /**< Max Rx buffer size by each channel */
  58:.\w5100.c     **** static uint16 SBUFBASEADDRESS[MAX_SOCK_NUM]; /**< Tx buffer base address by each channel */
  59:.\w5100.c     **** static uint16 RBUFBASEADDRESS[MAX_SOCK_NUM]; /**< Rx buffer base address by each channel */
  60:.\w5100.c     **** 
  61:.\w5100.c     **** int8 SPI_transfer(int8 send_data){
  26              		.loc 1 61 0
  27              		.cfi_startproc
  28              	.LVL0:
  29 0000 08B5     		push	{r3, lr}
  30              	.LCFI0:
  31              		.cfi_def_cfa_offset 8
  32              		.cfi_offset 3, -8
  33              		.cfi_offset 14, -4
  62:.\w5100.c     **** 	return ((int8)spi_master_send(send_data));
  34              		.loc 1 62 0
  35 0002 C0B2     		uxtb	r0, r0
  36 0004 FFF7FEFF 		bl	spi_master_send
  37              	.LVL1:
  63:.\w5100.c     **** }
  38              		.loc 1 63 0
  39              		@ sp needed for prologue
  62:.\w5100.c     **** 	return ((int8)spi_master_send(send_data));
  40              		.loc 1 62 0
  41 0008 40B2     		sxtb	r0, r0
  42              		.loc 1 63 0
  43 000a 08BD     		pop	{r3, pc}
  44              		.cfi_endproc
  45              	.LFE33:
  46              		.size	SPI_transfer, .-SPI_transfer
  47              		.section	.text.getISR,"ax",%progbits
  48              		.align	1
  49              		.global	getISR
  50              		.code	16
ARM GAS  C:\Users\atsu\AppData\Local\Temp\cc7os1vl.s 			page 3


  51              		.thumb_func
  52              		.type	getISR, %function
  53              	getISR:
  54              	.LFB34:
  64:.\w5100.c     **** uint8 getISR(uint8 s)
  65:.\w5100.c     **** {
  55              		.loc 1 65 0
  56              		.cfi_startproc
  57              	.LVL2:
  66:.\w5100.c     **** 	return I_STATUS[s];
  58              		.loc 1 66 0
  59 0000 014B     		ldr	r3, .L3
  67:.\w5100.c     **** }
  60              		.loc 1 67 0
  61              		@ sp needed for prologue
  66:.\w5100.c     **** 	return I_STATUS[s];
  62              		.loc 1 66 0
  63 0002 185C     		ldrb	r0, [r3, r0]
  64              	.LVL3:
  65              		.loc 1 67 0
  66 0004 7047     		bx	lr
  67              	.L4:
  68 0006 C046     		.align	2
  69              	.L3:
  70 0008 00000000 		.word	.LANCHOR0
  71              		.cfi_endproc
  72              	.LFE34:
  73              		.size	getISR, .-getISR
  74              		.section	.text.putISR,"ax",%progbits
  75              		.align	1
  76              		.global	putISR
  77              		.code	16
  78              		.thumb_func
  79              		.type	putISR, %function
  80              	putISR:
  81              	.LFB35:
  68:.\w5100.c     **** 
  69:.\w5100.c     **** void putISR(uint8 s, uint8 val)
  70:.\w5100.c     **** {
  82              		.loc 1 70 0
  83              		.cfi_startproc
  84              	.LVL4:
  71:.\w5100.c     ****    I_STATUS[s] = val;
  85              		.loc 1 71 0
  86 0000 014B     		ldr	r3, .L6
  72:.\w5100.c     **** }
  87              		.loc 1 72 0
  88              		@ sp needed for prologue
  71:.\w5100.c     ****    I_STATUS[s] = val;
  89              		.loc 1 71 0
  90 0002 1954     		strb	r1, [r3, r0]
  91              		.loc 1 72 0
  92 0004 7047     		bx	lr
  93              	.L7:
  94 0006 C046     		.align	2
  95              	.L6:
  96 0008 00000000 		.word	.LANCHOR0
ARM GAS  C:\Users\atsu\AppData\Local\Temp\cc7os1vl.s 			page 4


  97              		.cfi_endproc
  98              	.LFE35:
  99              		.size	putISR, .-putISR
 100              		.section	.text.getIINCHIP_RxMAX,"ax",%progbits
 101              		.align	1
 102              		.global	getIINCHIP_RxMAX
 103              		.code	16
 104              		.thumb_func
 105              		.type	getIINCHIP_RxMAX, %function
 106              	getIINCHIP_RxMAX:
 107              	.LFB36:
  73:.\w5100.c     **** 
  74:.\w5100.c     **** uint16 getIINCHIP_RxMAX(uint8 s)
  75:.\w5100.c     **** {
 108              		.loc 1 75 0
 109              		.cfi_startproc
 110              	.LVL5:
  76:.\w5100.c     ****    return RSIZE[s];
 111              		.loc 1 76 0
 112 0000 024B     		ldr	r3, .L9
 113 0002 4000     		lsl	r0, r0, #1
 114              	.LVL6:
 115 0004 1918     		add	r1, r3, r0
 116 0006 8888     		ldrh	r0, [r1, #4]
  77:.\w5100.c     **** }
 117              		.loc 1 77 0
 118              		@ sp needed for prologue
 119 0008 7047     		bx	lr
 120              	.L10:
 121 000a C046     		.align	2
 122              	.L9:
 123 000c 00000000 		.word	.LANCHOR0
 124              		.cfi_endproc
 125              	.LFE36:
 126              		.size	getIINCHIP_RxMAX, .-getIINCHIP_RxMAX
 127              		.section	.text.getIINCHIP_TxMAX,"ax",%progbits
 128              		.align	1
 129              		.global	getIINCHIP_TxMAX
 130              		.code	16
 131              		.thumb_func
 132              		.type	getIINCHIP_TxMAX, %function
 133              	getIINCHIP_TxMAX:
 134              	.LFB37:
  78:.\w5100.c     **** uint16 getIINCHIP_TxMAX(uint8 s)
  79:.\w5100.c     **** {
 135              		.loc 1 79 0
 136              		.cfi_startproc
 137              	.LVL7:
  80:.\w5100.c     ****    return SSIZE[s];
 138              		.loc 1 80 0
 139 0000 024B     		ldr	r3, .L12
 140 0002 4000     		lsl	r0, r0, #1
 141              	.LVL8:
 142 0004 1918     		add	r1, r3, r0
 143 0006 8889     		ldrh	r0, [r1, #12]
  81:.\w5100.c     **** }
 144              		.loc 1 81 0
ARM GAS  C:\Users\atsu\AppData\Local\Temp\cc7os1vl.s 			page 5


 145              		@ sp needed for prologue
 146 0008 7047     		bx	lr
 147              	.L13:
 148 000a C046     		.align	2
 149              	.L12:
 150 000c 00000000 		.word	.LANCHOR0
 151              		.cfi_endproc
 152              	.LFE37:
 153              		.size	getIINCHIP_TxMAX, .-getIINCHIP_TxMAX
 154              		.section	.text.getIINCHIP_RxMASK,"ax",%progbits
 155              		.align	1
 156              		.global	getIINCHIP_RxMASK
 157              		.code	16
 158              		.thumb_func
 159              		.type	getIINCHIP_RxMASK, %function
 160              	getIINCHIP_RxMASK:
 161              	.LFB38:
  82:.\w5100.c     **** uint16 getIINCHIP_RxMASK(uint8 s)
  83:.\w5100.c     **** {
 162              		.loc 1 83 0
 163              		.cfi_startproc
 164              	.LVL9:
  84:.\w5100.c     ****    return RMASK[s];
 165              		.loc 1 84 0
 166 0000 024B     		ldr	r3, .L15
 167 0002 4000     		lsl	r0, r0, #1
 168              	.LVL10:
 169 0004 1918     		add	r1, r3, r0
 170 0006 888A     		ldrh	r0, [r1, #20]
  85:.\w5100.c     **** }
 171              		.loc 1 85 0
 172              		@ sp needed for prologue
 173 0008 7047     		bx	lr
 174              	.L16:
 175 000a C046     		.align	2
 176              	.L15:
 177 000c 00000000 		.word	.LANCHOR0
 178              		.cfi_endproc
 179              	.LFE38:
 180              		.size	getIINCHIP_RxMASK, .-getIINCHIP_RxMASK
 181              		.section	.text.getIINCHIP_TxMASK,"ax",%progbits
 182              		.align	1
 183              		.global	getIINCHIP_TxMASK
 184              		.code	16
 185              		.thumb_func
 186              		.type	getIINCHIP_TxMASK, %function
 187              	getIINCHIP_TxMASK:
 188              	.LFB39:
  86:.\w5100.c     **** uint16 getIINCHIP_TxMASK(uint8 s)
  87:.\w5100.c     **** {
 189              		.loc 1 87 0
 190              		.cfi_startproc
 191              	.LVL11:
  88:.\w5100.c     ****    return SMASK[s];
 192              		.loc 1 88 0
 193 0000 024B     		ldr	r3, .L18
 194 0002 4000     		lsl	r0, r0, #1
ARM GAS  C:\Users\atsu\AppData\Local\Temp\cc7os1vl.s 			page 6


 195              	.LVL12:
 196 0004 1918     		add	r1, r3, r0
 197 0006 888B     		ldrh	r0, [r1, #28]
  89:.\w5100.c     **** }
 198              		.loc 1 89 0
 199              		@ sp needed for prologue
 200 0008 7047     		bx	lr
 201              	.L19:
 202 000a C046     		.align	2
 203              	.L18:
 204 000c 00000000 		.word	.LANCHOR0
 205              		.cfi_endproc
 206              	.LFE39:
 207              		.size	getIINCHIP_TxMASK, .-getIINCHIP_TxMASK
 208              		.section	.text.getIINCHIP_RxBASE,"ax",%progbits
 209              		.align	1
 210              		.global	getIINCHIP_RxBASE
 211              		.code	16
 212              		.thumb_func
 213              		.type	getIINCHIP_RxBASE, %function
 214              	getIINCHIP_RxBASE:
 215              	.LFB40:
  90:.\w5100.c     **** uint16 getIINCHIP_RxBASE(uint8 s)
  91:.\w5100.c     **** {
 216              		.loc 1 91 0
 217              		.cfi_startproc
 218              	.LVL13:
  92:.\w5100.c     ****    return RBUFBASEADDRESS[s];
 219              		.loc 1 92 0
 220 0000 024B     		ldr	r3, .L21
 221 0002 4000     		lsl	r0, r0, #1
 222              	.LVL14:
 223 0004 1918     		add	r1, r3, r0
 224 0006 888C     		ldrh	r0, [r1, #36]
  93:.\w5100.c     **** }
 225              		.loc 1 93 0
 226              		@ sp needed for prologue
 227 0008 7047     		bx	lr
 228              	.L22:
 229 000a C046     		.align	2
 230              	.L21:
 231 000c 00000000 		.word	.LANCHOR0
 232              		.cfi_endproc
 233              	.LFE40:
 234              		.size	getIINCHIP_RxBASE, .-getIINCHIP_RxBASE
 235              		.section	.text.getIINCHIP_TxBASE,"ax",%progbits
 236              		.align	1
 237              		.global	getIINCHIP_TxBASE
 238              		.code	16
 239              		.thumb_func
 240              		.type	getIINCHIP_TxBASE, %function
 241              	getIINCHIP_TxBASE:
 242              	.LFB41:
  94:.\w5100.c     **** uint16 getIINCHIP_TxBASE(uint8 s)
  95:.\w5100.c     **** {
 243              		.loc 1 95 0
 244              		.cfi_startproc
ARM GAS  C:\Users\atsu\AppData\Local\Temp\cc7os1vl.s 			page 7


 245              	.LVL15:
  96:.\w5100.c     ****    return SBUFBASEADDRESS[s];
 246              		.loc 1 96 0
 247 0000 024B     		ldr	r3, .L24
 248 0002 4000     		lsl	r0, r0, #1
 249              	.LVL16:
 250 0004 1918     		add	r1, r3, r0
 251 0006 888D     		ldrh	r0, [r1, #44]
  97:.\w5100.c     **** }
 252              		.loc 1 97 0
 253              		@ sp needed for prologue
 254 0008 7047     		bx	lr
 255              	.L25:
 256 000a C046     		.align	2
 257              	.L24:
 258 000c 00000000 		.word	.LANCHOR0
 259              		.cfi_endproc
 260              	.LFE41:
 261              		.size	getIINCHIP_TxBASE, .-getIINCHIP_TxBASE
 262              		.section	.text.IINCHIP_WRITE,"ax",%progbits
 263              		.align	1
 264              		.global	IINCHIP_WRITE
 265              		.code	16
 266              		.thumb_func
 267              		.type	IINCHIP_WRITE, %function
 268              	IINCHIP_WRITE:
 269              	.LFB42:
  98:.\w5100.c     **** 
  99:.\w5100.c     ****  /**
 100:.\w5100.c     **** @brief	This function writes the data into W5100 registers.
 101:.\w5100.c     **** */
 102:.\w5100.c     **** uint8 IINCHIP_WRITE(uint16 addr,uint8 data)
 103:.\w5100.c     **** {
 270              		.loc 1 103 0
 271              		.cfi_startproc
 272              	.LVL17:
 273 0000 38B5     		push	{r3, r4, r5, lr}
 274              	.LCFI1:
 275              		.cfi_def_cfa_offset 16
 276              		.cfi_offset 3, -16
 277              		.cfi_offset 4, -12
 278              		.cfi_offset 5, -8
 279              		.cfi_offset 14, -4
 280              		.loc 1 103 0
 281 0002 0D1C     		mov	r5, r1
 282 0004 041C     		mov	r4, r0
 104:.\w5100.c     **** 	spi_cs_low();                             // CS=0, SPI start
 283              		.loc 1 104 0
 284 0006 FFF7FEFF 		bl	spi_cs_low
 285              	.LVL18:
 105:.\w5100.c     **** 
 106:.\w5100.c     **** 	SPI_transfer(0xF0);
 286              		.loc 1 106 0
 287 000a 1020     		mov	r0, #16
 288 000c 4042     		neg	r0, r0
 289 000e FFF7FEFF 		bl	SPI_transfer
 290              	.LVL19:
ARM GAS  C:\Users\atsu\AppData\Local\Temp\cc7os1vl.s 			page 8


 107:.\w5100.c     **** 	SPI_transfer(addr >> 8);
 291              		.loc 1 107 0
 292 0012 210A     		lsr	r1, r4, #8
 293 0014 48B2     		sxtb	r0, r1
 294 0016 FFF7FEFF 		bl	SPI_transfer
 295              	.LVL20:
 108:.\w5100.c     **** 	SPI_transfer(addr & 0xFF);
 296              		.loc 1 108 0
 297 001a 60B2     		sxtb	r0, r4
 298 001c FFF7FEFF 		bl	SPI_transfer
 299              	.LVL21:
 109:.\w5100.c     **** 	SPI_transfer(data);
 300              		.loc 1 109 0
 301 0020 68B2     		sxtb	r0, r5
 302 0022 FFF7FEFF 		bl	SPI_transfer
 303              	.LVL22:
 110:.\w5100.c     **** 
 111:.\w5100.c     **** 	spi_cs_high();    
 112:.\w5100.c     **** 	return 1;
 113:.\w5100.c     **** }
 304              		.loc 1 113 0
 305              		@ sp needed for prologue
 111:.\w5100.c     **** 	spi_cs_high();    
 306              		.loc 1 111 0
 307 0026 FFF7FEFF 		bl	spi_cs_high
 308              	.LVL23:
 309              		.loc 1 113 0
 310 002a 0120     		mov	r0, #1
 311 002c 38BD     		pop	{r3, r4, r5, pc}
 312              		.cfi_endproc
 313              	.LFE42:
 314              		.size	IINCHIP_WRITE, .-IINCHIP_WRITE
 315              		.section	.text.IINCHIP_READ,"ax",%progbits
 316              		.align	1
 317              		.global	IINCHIP_READ
 318              		.code	16
 319              		.thumb_func
 320              		.type	IINCHIP_READ, %function
 321              	IINCHIP_READ:
 322              	.LFB43:
 114:.\w5100.c     **** 
 115:.\w5100.c     **** 
 116:.\w5100.c     **** /**
 117:.\w5100.c     **** @brief	This function reads the value from W5100 registers.
 118:.\w5100.c     **** */
 119:.\w5100.c     **** uint8 IINCHIP_READ(uint16 addr)
 120:.\w5100.c     **** {
 323              		.loc 1 120 0
 324              		.cfi_startproc
 325              	.LVL24:
 326 0000 10B5     		push	{r4, lr}
 327              	.LCFI2:
 328              		.cfi_def_cfa_offset 8
 329              		.cfi_offset 4, -8
 330              		.cfi_offset 14, -4
 331              		.loc 1 120 0
 332 0002 041C     		mov	r4, r0
ARM GAS  C:\Users\atsu\AppData\Local\Temp\cc7os1vl.s 			page 9


 121:.\w5100.c     **** 	uint8 data;
 122:.\w5100.c     **** 	spi_cs_low();				// CS=0, SPI start
 333              		.loc 1 122 0
 334 0004 FFF7FEFF 		bl	spi_cs_low
 335              	.LVL25:
 123:.\w5100.c     **** 	SPI_transfer(0x0F);
 336              		.loc 1 123 0
 337 0008 0F20     		mov	r0, #15
 338 000a FFF7FEFF 		bl	SPI_transfer
 339              	.LVL26:
 124:.\w5100.c     **** 	SPI_transfer(addr >> 8);
 340              		.loc 1 124 0
 341 000e 200A     		lsr	r0, r4, #8
 342 0010 40B2     		sxtb	r0, r0
 343 0012 FFF7FEFF 		bl	SPI_transfer
 344              	.LVL27:
 125:.\w5100.c     **** 	SPI_transfer(addr & 0xFF);
 345              		.loc 1 125 0
 346 0016 60B2     		sxtb	r0, r4
 347 0018 FFF7FEFF 		bl	SPI_transfer
 348              	.LVL28:
 349              	.LBB26:
 350              	.LBB27:
  62:.\w5100.c     **** 	return ((int8)spi_master_send(send_data));
 351              		.loc 1 62 0
 352 001c 0020     		mov	r0, #0
 353 001e FFF7FEFF 		bl	spi_master_send
 354              	.LVL29:
 355 0022 041C     		mov	r4, r0
 356              	.LVL30:
 357              	.LBE27:
 358              	.LBE26:
 126:.\w5100.c     **** 	data = SPI_transfer(0);
 127:.\w5100.c     **** 	spi_cs_high();				// SPI end
 128:.\w5100.c     **** 	return data;
 129:.\w5100.c     **** }
 359              		.loc 1 129 0
 360              		@ sp needed for prologue
 127:.\w5100.c     **** 	spi_cs_high();				// SPI end
 361              		.loc 1 127 0
 362 0024 FFF7FEFF 		bl	spi_cs_high
 363              	.LVL31:
 364              		.loc 1 129 0
 365 0028 201C     		mov	r0, r4
 366              	.LVL32:
 367 002a 10BD     		pop	{r4, pc}
 368              		.cfi_endproc
 369              	.LFE43:
 370              		.size	IINCHIP_READ, .-IINCHIP_READ
 371              		.section	.text.wiz_write_buf,"ax",%progbits
 372              		.align	1
 373              		.global	wiz_write_buf
 374              		.code	16
 375              		.thumb_func
 376              		.type	wiz_write_buf, %function
 377              	wiz_write_buf:
 378              	.LFB44:
ARM GAS  C:\Users\atsu\AppData\Local\Temp\cc7os1vl.s 			page 10


 130:.\w5100.c     **** 
 131:.\w5100.c     **** 
 132:.\w5100.c     **** uint16 wiz_write_buf(uint16 addr,uint8* buf,uint16 len)
 133:.\w5100.c     **** {
 379              		.loc 1 133 0
 380              		.cfi_startproc
 381              	.LVL33:
 382 0000 F8B5     		push	{r3, r4, r5, r6, r7, lr}
 383              	.LCFI3:
 384              		.cfi_def_cfa_offset 24
 385              		.cfi_offset 3, -24
 386              		.cfi_offset 4, -20
 387              		.cfi_offset 5, -16
 388              		.cfi_offset 6, -12
 389              		.cfi_offset 7, -8
 390              		.cfi_offset 14, -4
 132:.\w5100.c     **** uint16 wiz_write_buf(uint16 addr,uint8* buf,uint16 len)
 391              		.loc 1 132 0
 392 0002 1718     		add	r7, r2, r0
 393              		.loc 1 133 0
 394 0004 041C     		mov	r4, r0
 395 0006 161C     		mov	r6, r2
 396 0008 0D1C     		mov	r5, r1
 132:.\w5100.c     **** uint16 wiz_write_buf(uint16 addr,uint8* buf,uint16 len)
 397              		.loc 1 132 0
 398 000a BFB2     		uxth	r7, r7
 399              	.LVL34:
 400              	.L29:
 134:.\w5100.c     **** 	uint16 idx = 0;
 135:.\w5100.c     **** 	for(idx = 0; idx < len; idx++)
 401              		.loc 1 135 0 discriminator 1
 402 000c BC42     		cmp	r4, r7
 403 000e 16D0     		beq	.L32
 404              	.L30:
 136:.\w5100.c     **** 	{
 137:.\w5100.c     **** 		spi_cs_low();                             // CS=0, SPI start 
 405              		.loc 1 137 0 discriminator 2
 406 0010 FFF7FEFF 		bl	spi_cs_low
 407              	.LVL35:
 138:.\w5100.c     **** 
 139:.\w5100.c     **** 		SPI_transfer(0xF0);
 408              		.loc 1 139 0 discriminator 2
 409 0014 1020     		mov	r0, #16
 410 0016 4042     		neg	r0, r0
 411 0018 FFF7FEFF 		bl	SPI_transfer
 412              	.LVL36:
 140:.\w5100.c     **** 		SPI_transfer(addr >> 8);
 413              		.loc 1 140 0 discriminator 2
 414 001c 210A     		lsr	r1, r4, #8
 415 001e 48B2     		sxtb	r0, r1
 416 0020 FFF7FEFF 		bl	SPI_transfer
 417              	.LVL37:
 141:.\w5100.c     **** 		SPI_transfer(addr & 0xFF);
 418              		.loc 1 141 0 discriminator 2
 419 0024 60B2     		sxtb	r0, r4
 420 0026 FFF7FEFF 		bl	SPI_transfer
 421              	.LVL38:
ARM GAS  C:\Users\atsu\AppData\Local\Temp\cc7os1vl.s 			page 11


 142:.\w5100.c     **** 		addr++;
 143:.\w5100.c     **** 		SPI_transfer(buf[idx]);
 422              		.loc 1 143 0 discriminator 2
 423 002a 0022     		mov	r2, #0
 424 002c A856     		ldrsb	r0, [r5, r2]
 142:.\w5100.c     **** 		addr++;
 425              		.loc 1 142 0 discriminator 2
 426 002e 0134     		add	r4, r4, #1
 427              	.LVL39:
 428              		.loc 1 143 0 discriminator 2
 429 0030 FFF7FEFF 		bl	SPI_transfer
 430              	.LVL40:
 142:.\w5100.c     **** 		addr++;
 431              		.loc 1 142 0 discriminator 2
 432 0034 A4B2     		uxth	r4, r4
 433              	.LVL41:
 144:.\w5100.c     **** 
 145:.\w5100.c     **** 		spi_cs_high();                             // CS=0, SPI end 
 434              		.loc 1 145 0 discriminator 2
 435 0036 FFF7FEFF 		bl	spi_cs_high
 436              	.LVL42:
 437 003a 0135     		add	r5, r5, #1
 438 003c E6E7     		b	.L29
 439              	.L32:
 146:.\w5100.c     **** 	}
 147:.\w5100.c     **** 	return len;
 148:.\w5100.c     **** }
 440              		.loc 1 148 0
 441 003e 301C     		mov	r0, r6
 442              		@ sp needed for prologue
 443              	.LVL43:
 444 0040 F8BD     		pop	{r3, r4, r5, r6, r7, pc}
 445              		.cfi_endproc
 446              	.LFE44:
 447              		.size	wiz_write_buf, .-wiz_write_buf
 448              		.section	.text.wiz_read_buf,"ax",%progbits
 449              		.align	1
 450              		.global	wiz_read_buf
 451              		.code	16
 452              		.thumb_func
 453              		.type	wiz_read_buf, %function
 454              	wiz_read_buf:
 455              	.LFB45:
 149:.\w5100.c     **** 
 150:.\w5100.c     **** 
 151:.\w5100.c     **** uint16 wiz_read_buf(uint16 addr, uint8* buf,uint16 len)
 152:.\w5100.c     **** {
 456              		.loc 1 152 0
 457              		.cfi_startproc
 458              	.LVL44:
 459 0000 F8B5     		push	{r3, r4, r5, r6, r7, lr}
 460              	.LCFI4:
 461              		.cfi_def_cfa_offset 24
 462              		.cfi_offset 3, -24
 463              		.cfi_offset 4, -20
 464              		.cfi_offset 5, -16
 465              		.cfi_offset 6, -12
ARM GAS  C:\Users\atsu\AppData\Local\Temp\cc7os1vl.s 			page 12


 466              		.cfi_offset 7, -8
 467              		.cfi_offset 14, -4
 151:.\w5100.c     **** uint16 wiz_read_buf(uint16 addr, uint8* buf,uint16 len)
 468              		.loc 1 151 0
 469 0002 1718     		add	r7, r2, r0
 470              		.loc 1 152 0
 471 0004 041C     		mov	r4, r0
 472 0006 161C     		mov	r6, r2
 473 0008 0D1C     		mov	r5, r1
 151:.\w5100.c     **** uint16 wiz_read_buf(uint16 addr, uint8* buf,uint16 len)
 474              		.loc 1 151 0
 475 000a BFB2     		uxth	r7, r7
 476              	.LVL45:
 477              	.L34:
 153:.\w5100.c     **** 	uint16 idx = 0;
 154:.\w5100.c     **** 	for (idx=0; idx<len; idx++)
 478              		.loc 1 154 0 discriminator 1
 479 000c BC42     		cmp	r4, r7
 480 000e 15D0     		beq	.L36
 481              	.L35:
 155:.\w5100.c     **** 	{
 156:.\w5100.c     **** 		spi_cs_low();	// CS=0, SPI start 
 482              		.loc 1 156 0 discriminator 2
 483 0010 FFF7FEFF 		bl	spi_cs_low
 484              	.LVL46:
 157:.\w5100.c     **** 		SPI_transfer(0x0F);
 485              		.loc 1 157 0 discriminator 2
 486 0014 0F20     		mov	r0, #15
 487 0016 FFF7FEFF 		bl	SPI_transfer
 488              	.LVL47:
 158:.\w5100.c     **** 		SPI_transfer(addr >> 8);
 489              		.loc 1 158 0 discriminator 2
 490 001a 200A     		lsr	r0, r4, #8
 491 001c 40B2     		sxtb	r0, r0
 492 001e FFF7FEFF 		bl	SPI_transfer
 493              	.LVL48:
 159:.\w5100.c     **** 		SPI_transfer(addr & 0xFF);
 494              		.loc 1 159 0 discriminator 2
 495 0022 60B2     		sxtb	r0, r4
 496 0024 FFF7FEFF 		bl	SPI_transfer
 497              	.LVL49:
 498              	.LBB28:
 499              	.LBB29:
  62:.\w5100.c     **** 	return ((int8)spi_master_send(send_data));
 500              		.loc 1 62 0 discriminator 2
 501 0028 0020     		mov	r0, #0
 502 002a FFF7FEFF 		bl	spi_master_send
 503              	.LVL50:
 504              	.LBE29:
 505              	.LBE28:
 160:.\w5100.c     **** 		addr++;
 506              		.loc 1 160 0 discriminator 2
 507 002e 0134     		add	r4, r4, #1
 508              	.LVL51:
 161:.\w5100.c     **** 		buf[idx] = SPI_transfer(0);
 509              		.loc 1 161 0 discriminator 2
 510 0030 2870     		strb	r0, [r5]
ARM GAS  C:\Users\atsu\AppData\Local\Temp\cc7os1vl.s 			page 13


 160:.\w5100.c     **** 		addr++;
 511              		.loc 1 160 0 discriminator 2
 512 0032 A4B2     		uxth	r4, r4
 513              	.LVL52:
 162:.\w5100.c     **** 		spi_cs_high();                             // CS=0, SPI end 	   
 514              		.loc 1 162 0 discriminator 2
 515 0034 FFF7FEFF 		bl	spi_cs_high
 516              	.LVL53:
 517 0038 0135     		add	r5, r5, #1
 518 003a E7E7     		b	.L34
 519              	.LVL54:
 520              	.L36:
 163:.\w5100.c     **** 	   }
 164:.\w5100.c     **** 	return len;
 165:.\w5100.c     **** }
 521              		.loc 1 165 0
 522 003c 301C     		mov	r0, r6
 523              		@ sp needed for prologue
 524              	.LVL55:
 525 003e F8BD     		pop	{r3, r4, r5, r6, r7, pc}
 526              		.cfi_endproc
 527              	.LFE45:
 528              		.size	wiz_read_buf, .-wiz_read_buf
 529              		.section	.text.sysinit,"ax",%progbits
 530              		.align	1
 531              		.global	sysinit
 532              		.code	16
 533              		.thumb_func
 534              		.type	sysinit, %function
 535              	sysinit:
 536              	.LFB47:
 166:.\w5100.c     **** 
 167:.\w5100.c     **** 
 168:.\w5100.c     **** /**
 169:.\w5100.c     **** @brief	Socket interrupt routine
 170:.\w5100.c     **** */ 
 171:.\w5100.c     **** #ifdef __DEF_IINCHIP_INT__
 172:.\w5100.c     **** ISR(INT4_vect)
 173:.\w5100.c     **** {
 174:.\w5100.c     **** 	uint8 int_val;
 175:.\w5100.c     **** 	IINCHIP_ISR_DISABLE();
 176:.\w5100.c     **** 	int_val = IINCHIP_READ(IR);
 177:.\w5100.c     **** 	
 178:.\w5100.c     **** 	/* +200801[bj] process all of interupt */
 179:.\w5100.c     ****    do {
 180:.\w5100.c     ****    /*---*/
 181:.\w5100.c     ****    
 182:.\w5100.c     ****    	if (int_val & IR_CONFLICT)
 183:.\w5100.c     ****    	{
 184:.\w5100.c     ****    		printf("IP conflict : %.2x\r\n", int_val);
 185:.\w5100.c     ****    	}
 186:.\w5100.c     ****    	if (int_val & IR_UNREACH)
 187:.\w5100.c     ****    	{
 188:.\w5100.c     ****    		printf("INT Port Unreachable : %.2x\r\n", int_val);
 189:.\w5100.c     ****    		printf("UIPR0 : %d.%d.%d.%d\r\n", IINCHIP_READ(UIPR0), IINCHIP_READ(UIPR0+1), IINCHIP_READ(UIP
 190:.\w5100.c     ****    		printf("UPORT0 : %.2x %.2x\r\n", IINCHIP_READ(UPORT0), IINCHIP_READ(UPORT0+1));
 191:.\w5100.c     ****    	}
ARM GAS  C:\Users\atsu\AppData\Local\Temp\cc7os1vl.s 			page 14


 192:.\w5100.c     ****    
 193:.\w5100.c     ****    	/* +200801[bj] interrupt clear */
 194:.\w5100.c     ****    	IINCHIP_WRITE(IR, 0xf0); 
 195:.\w5100.c     ****       /*---*/
 196:.\w5100.c     ****    
 197:.\w5100.c     ****    	if (int_val & IR_SOCK(0))
 198:.\w5100.c     ****    	{
 199:.\w5100.c     ****    	/* +-200801[bj] save interrupt value*/
 200:.\w5100.c     ****    		I_STATUS[0] |= IINCHIP_READ(Sn_IR(0)); // can be come to over two times.
 201:.\w5100.c     ****    		IINCHIP_WRITE(Sn_IR(0), I_STATUS[0]);
 202:.\w5100.c     ****       /*---*/
 203:.\w5100.c     ****    	}
 204:.\w5100.c     ****    	if (int_val & IR_SOCK(1))
 205:.\w5100.c     ****    	{
 206:.\w5100.c     ****    	/* +-200801[bj] save interrupt value*/
 207:.\w5100.c     ****    		I_STATUS[1] |= IINCHIP_READ(Sn_IR(1));
 208:.\w5100.c     ****    		IINCHIP_WRITE(Sn_IR(1), I_STATUS[1]);
 209:.\w5100.c     ****       /*---*/
 210:.\w5100.c     ****    	}
 211:.\w5100.c     ****    	if (int_val & IR_SOCK(2))
 212:.\w5100.c     ****    	{
 213:.\w5100.c     ****    	/* +-200801[bj] save interrupt value*/
 214:.\w5100.c     ****    		I_STATUS[2] |= IINCHIP_READ(Sn_IR(2));
 215:.\w5100.c     ****    		IINCHIP_WRITE(Sn_IR(2), I_STATUS[2]);
 216:.\w5100.c     ****       /*---*/
 217:.\w5100.c     ****    	}
 218:.\w5100.c     ****    	if (int_val & IR_SOCK(3))
 219:.\w5100.c     ****    	{
 220:.\w5100.c     ****    	/* +-200801[bj] save interrupt value*/
 221:.\w5100.c     ****    		I_STATUS[3] |= IINCHIP_READ(Sn_IR(3));
 222:.\w5100.c     ****    		IINCHIP_WRITE(Sn_IR(3), I_STATUS[3]);
 223:.\w5100.c     ****       /*---*/
 224:.\w5100.c     ****    	}
 225:.\w5100.c     ****    
 226:.\w5100.c     ****    	/* +-200801[bj] re-read interrupt value*/
 227:.\w5100.c     ****    	int_val = IINCHIP_READ(IR);
 228:.\w5100.c     **** 
 229:.\w5100.c     **** 	/* +200801[bj] if exist, contiue to process */
 230:.\w5100.c     ****    } while (int_val != 0x00);
 231:.\w5100.c     ****    /*---*/
 232:.\w5100.c     **** 
 233:.\w5100.c     **** 	IINCHIP_ISR_ENABLE();
 234:.\w5100.c     **** }
 235:.\w5100.c     **** #endif
 236:.\w5100.c     **** 
 237:.\w5100.c     **** /**
 238:.\w5100.c     **** @brief	This function is for resetting of the iinchip. Initializes the iinchip to work in whether DI
 239:.\w5100.c     **** */ 
 240:.\w5100.c     **** void iinchip_init(void)
 241:.\w5100.c     **** {	
 242:.\w5100.c     **** 	wait_delay_ms(300);
 243:.\w5100.c     **** 	spi_master_init();
 244:.\w5100.c     **** 	setMR( MR_RST );
 245:.\w5100.c     **** #if (__DEF_IINCHIP_BUS__ == __DEF_IINCHIP_INDIRECT_MODE__)
 246:.\w5100.c     **** 	setMR( MR_IND | MR_AI );
 247:.\w5100.c     **** #ifdef __DEF_IINCHIP_DBG__	
 248:.\w5100.c     **** 	printf("MR value is %d \r\n",IINCHIP_READ(MR));
ARM GAS  C:\Users\atsu\AppData\Local\Temp\cc7os1vl.s 			page 15


 249:.\w5100.c     **** #endif	
 250:.\w5100.c     **** #endif
 251:.\w5100.c     **** }
 252:.\w5100.c     **** 
 253:.\w5100.c     **** 
 254:.\w5100.c     **** /**
 255:.\w5100.c     **** @brief	This function set the transmit & receive buffer size as per the channels is used
 256:.\w5100.c     **** 
 257:.\w5100.c     **** Note for TMSR and RMSR bits are as follows\n
 258:.\w5100.c     **** bit 1-0 : memory size of channel #0 \n
 259:.\w5100.c     **** bit 3-2 : memory size of channel #1 \n
 260:.\w5100.c     **** bit 5-4 : memory size of channel #2 \n
 261:.\w5100.c     **** bit 7-6 : memory size of channel #3 \n\n
 262:.\w5100.c     **** Maximum memory size for Tx, Rx in the W5100 is 8K uint8s,\n
 263:.\w5100.c     **** In the range of 8Kuint8s, the memory size could be allocated dynamically by each channel.\n
 264:.\w5100.c     **** Be attentive to sum of memory size shouldn't exceed 8Kuint8s\n
 265:.\w5100.c     **** and to data transmission and receiption from non-allocated channel may cause some problems.\n
 266:.\w5100.c     **** If the 8Kuint8s memory is already  assigned to centain channel, \n
 267:.\w5100.c     **** other 3 channels couldn't be used, for there's no available memory.\n
 268:.\w5100.c     **** If two 4Kuint8s memory are assigned to two each channels, \n
 269:.\w5100.c     **** other 2 channels couldn't be used, for there's no available memory.\n
 270:.\w5100.c     **** */ 
 271:.\w5100.c     **** void sysinit(
 272:.\w5100.c     **** 	uint8 tx_size, 	/**< tx_size Tx memory size (00 - 1Kuint8, 01- 2KBtye, 10 - 4Kuint8, 11 - 8Kuint8)
 273:.\w5100.c     **** 	uint8 rx_size		/**< rx_size Rx memory size (00 - 1Kuint8, 01- 2KBtye, 10 - 4Kuint8, 11 - 8Kuint8) 
 274:.\w5100.c     **** 	)
 275:.\w5100.c     **** {
 537              		.loc 1 275 0
 538              		.cfi_startproc
 539              	.LVL56:
 540 0000 F0B5     		push	{r4, r5, r6, r7, lr}
 541              	.LCFI5:
 542              		.cfi_def_cfa_offset 20
 543              		.cfi_offset 4, -20
 544              		.cfi_offset 5, -16
 545              		.cfi_offset 6, -12
 546              		.cfi_offset 7, -8
 547              		.cfi_offset 14, -4
 548 0002 85B0     		sub	sp, sp, #20
 549              	.LCFI6:
 550              		.cfi_def_cfa_offset 40
 551              		.loc 1 275 0
 552 0004 0290     		str	r0, [sp, #8]
 553 0006 0391     		str	r1, [sp, #12]
 276:.\w5100.c     **** 	int16 i;
 277:.\w5100.c     **** 	int16 ssum,rsum;
 278:.\w5100.c     **** 
 279:.\w5100.c     **** #ifdef __DEF_IINCHIP_DBG__
 280:.\w5100.c     **** 	printf("sysinit()\r\n"); 
 281:.\w5100.c     **** #endif
 282:.\w5100.c     **** 
 283:.\w5100.c     **** 	ssum = 0;
 284:.\w5100.c     **** 	rsum = 0;
 285:.\w5100.c     **** 	
 286:.\w5100.c     **** 	IINCHIP_WRITE(TMSR,tx_size); /* Set Tx memory size for each channel */
 554              		.loc 1 286 0
 555 0008 1B20     		mov	r0, #27
ARM GAS  C:\Users\atsu\AppData\Local\Temp\cc7os1vl.s 			page 16


 556              	.LVL57:
 557 000a 0299     		ldr	r1, [sp, #8]
 558              	.LVL58:
 559 000c FFF7FEFF 		bl	IINCHIP_WRITE
 560              	.LVL59:
 287:.\w5100.c     **** 	IINCHIP_WRITE(RMSR,rx_size);	 /* Set Rx memory size for each channel */
 561              		.loc 1 287 0
 562 0010 0399     		ldr	r1, [sp, #12]
 563 0012 1A20     		mov	r0, #26
 564 0014 FFF7FEFF 		bl	IINCHIP_WRITE
 565              	.LVL60:
 288:.\w5100.c     **** 
 289:.\w5100.c     **** 	SBUFBASEADDRESS[0] = (uint16)(__DEF_IINCHIP_MAP_TXBUF__);		/* Set base address of Tx memory for ch
 566              		.loc 1 289 0
 567 0018 444B     		ldr	r3, .L56
 568 001a 8022     		mov	r2, #128
 290:.\w5100.c     **** 	RBUFBASEADDRESS[0] = (uint16)(__DEF_IINCHIP_MAP_RXBUF__);		/* Set base address of Rx memory for ch
 569              		.loc 1 290 0
 570 001c C021     		mov	r1, #192
 571 001e CC01     		lsl	r4, r1, #7
 289:.\w5100.c     **** 	SBUFBASEADDRESS[0] = (uint16)(__DEF_IINCHIP_MAP_TXBUF__);		/* Set base address of Tx memory for ch
 572              		.loc 1 289 0
 573 0020 D001     		lsl	r0, r2, #7
 574              		.loc 1 290 0
 575 0022 9C84     		strh	r4, [r3, #36]
 576              	.LVL61:
 289:.\w5100.c     **** 	SBUFBASEADDRESS[0] = (uint16)(__DEF_IINCHIP_MAP_TXBUF__);		/* Set base address of Tx memory for ch
 577              		.loc 1 289 0
 578 0024 9885     		strh	r0, [r3, #44]
 579              		.loc 1 290 0
 580 0026 0023     		mov	r3, #0
 284:.\w5100.c     **** 	rsum = 0;
 581              		.loc 1 284 0
 582 0028 0093     		str	r3, [sp]
 283:.\w5100.c     **** 	ssum = 0;
 583              		.loc 1 283 0
 584 002a 1D1C     		mov	r5, r3
 291:.\w5100.c     **** 
 292:.\w5100.c     **** #ifdef __DEF_IINCHIP_DBG__
 293:.\w5100.c     **** 	printf("Channel : SEND MEM SIZE : RECV MEM SIZE\r\n");
 294:.\w5100.c     **** #endif
 295:.\w5100.c     **** 
 296:.\w5100.c     ****    for (i = 0 ; i < MAX_SOCK_NUM; i++)       // Set the size, masking and base address of Tx & Rx m
 585              		.loc 1 296 0
 586 002c 1C1C     		mov	r4, r3
 587              	.LVL62:
 588              	.L49:
 297:.\w5100.c     **** 	{
 298:.\w5100.c     **** 		SSIZE[i] = (int16)(0);
 589              		.loc 1 298 0
 590 002e 3F4E     		ldr	r6, .L56
 591 0030 0020     		mov	r0, #0
 592 0032 321C     		mov	r2, r6
 593 0034 0C32     		add	r2, r2, #12
 299:.\w5100.c     **** 		RSIZE[i] = (int16)(0);
 594              		.loc 1 299 0
 595 0036 371D     		add	r7, r6, #4
ARM GAS  C:\Users\atsu\AppData\Local\Temp\cc7os1vl.s 			page 17


 298:.\w5100.c     **** 		SSIZE[i] = (int16)(0);
 596              		.loc 1 298 0
 597 0038 9852     		strh	r0, [r3, r2]
 598              		.loc 1 299 0
 599 003a D853     		strh	r0, [r3, r7]
 600 003c 3C48     		ldr	r0, .L56+4
 300:.\w5100.c     **** 		if (ssum < 8192)
 601              		.loc 1 300 0
 602 003e 29B2     		sxth	r1, r5
 603 0040 8142     		cmp	r1, r0
 604 0042 1BDC     		bgt	.L38
 301:.\w5100.c     **** 		{
 302:.\w5100.c     ****          switch((tx_size >> i*2) & 0x03)  // Set Tx memory size
 605              		.loc 1 302 0
 606 0044 029F     		ldr	r7, [sp, #8]
 607 0046 0321     		mov	r1, #3
 608 0048 1F41     		asr	r7, r7, r3
 609 004a 3940     		and	r1, r7
 610 004c 1C36     		add	r6, r6, #28
 303:.\w5100.c     **** 			{
 304:.\w5100.c     **** 			case 0:
 305:.\w5100.c     **** 				SSIZE[i] = (int16)(1024);
 306:.\w5100.c     **** 				SMASK[i] = (uint16)(0x03FF);
 307:.\w5100.c     **** 				break;
 308:.\w5100.c     **** 			case 1:
 309:.\w5100.c     **** 				SSIZE[i] = (int16)(2048);
 310:.\w5100.c     **** 				SMASK[i] = (uint16)(0x07FF);
 311:.\w5100.c     **** 				break;
 312:.\w5100.c     **** 			case 2:
 313:.\w5100.c     **** 				SSIZE[i] = (int16)(4096);
 611              		.loc 1 313 0
 612 004e 8027     		mov	r7, #128
 302:.\w5100.c     ****          switch((tx_size >> i*2) & 0x03)  // Set Tx memory size
 613              		.loc 1 302 0
 614 0050 0229     		cmp	r1, #2
 615 0052 0BD0     		beq	.L41
 616 0054 0329     		cmp	r1, #3
 617 0056 0ED0     		beq	.L42
 618 0058 0129     		cmp	r1, #1
 619 005a 03D0     		beq	.L40
 305:.\w5100.c     **** 				SSIZE[i] = (int16)(1024);
 620              		.loc 1 305 0
 621 005c F900     		lsl	r1, r7, #3
 622 005e 9952     		strh	r1, [r3, r2]
 306:.\w5100.c     **** 				SMASK[i] = (uint16)(0x03FF);
 623              		.loc 1 306 0
 624 0060 344A     		ldr	r2, .L56+8
 625 0062 06E0     		b	.L54
 626              	.L40:
 309:.\w5100.c     **** 				SSIZE[i] = (int16)(2048);
 627              		.loc 1 309 0
 628 0064 3F01     		lsl	r7, r7, #4
 629 0066 9F52     		strh	r7, [r3, r2]
 310:.\w5100.c     **** 				SMASK[i] = (uint16)(0x07FF);
 630              		.loc 1 310 0
 631 0068 334A     		ldr	r2, .L56+12
 632 006a 02E0     		b	.L54
ARM GAS  C:\Users\atsu\AppData\Local\Temp\cc7os1vl.s 			page 18


 633              	.L41:
 634              		.loc 1 313 0
 635 006c 7F01     		lsl	r7, r7, #5
 636 006e 9F52     		strh	r7, [r3, r2]
 314:.\w5100.c     **** 				SMASK[i] = (uint16)(0x0FFF);
 637              		.loc 1 314 0
 638 0070 324A     		ldr	r2, .L56+16
 639              	.L54:
 640 0072 F252     		strh	r2, [r6, r3]
 315:.\w5100.c     **** 				break;
 641              		.loc 1 315 0
 642 0074 02E0     		b	.L38
 643              	.L42:
 316:.\w5100.c     **** 			case 3:
 317:.\w5100.c     **** 				SSIZE[i] = (int16)(8192);
 644              		.loc 1 317 0
 645 0076 B901     		lsl	r1, r7, #6
 646 0078 9952     		strh	r1, [r3, r2]
 318:.\w5100.c     **** 				SMASK[i] = (uint16)(0x1FFF);
 647              		.loc 1 318 0
 648 007a F052     		strh	r0, [r6, r3]
 649              	.L38:
 319:.\w5100.c     **** 				break;
 320:.\w5100.c     **** 			}
 321:.\w5100.c     **** 		}
 322:.\w5100.c     **** 		if (rsum < 8192)
 650              		.loc 1 322 0
 651 007c 6E46     		mov	r6, sp
 652 007e 0021     		mov	r1, #0
 653 0080 715E     		ldrsh	r1, [r6, r1]
 654 0082 8142     		cmp	r1, r0
 655 0084 26DC     		bgt	.L43
 323:.\w5100.c     **** 		{
 324:.\w5100.c     ****          switch((rx_size >> i*2) & 0x03)     // Set Rx memory size
 656              		.loc 1 324 0
 657 0086 0398     		ldr	r0, [sp, #12]
 658 0088 0327     		mov	r7, #3
 659 008a 1841     		asr	r0, r0, r3
 660 008c 3840     		and	r0, r7
 661 008e 274A     		ldr	r2, .L56
 662 0090 0228     		cmp	r0, #2
 663 0092 11D0     		beq	.L46
 664 0094 0328     		cmp	r0, #3
 665 0096 16D0     		beq	.L47
 666 0098 0128     		cmp	r0, #1
 667 009a 06D0     		beq	.L45
 325:.\w5100.c     **** 			{
 326:.\w5100.c     **** 			case 0:
 327:.\w5100.c     **** 				RSIZE[i] = (int16)(1024);
 668              		.loc 1 327 0
 669 009c 8026     		mov	r6, #128
 670 009e 111D     		add	r1, r2, #4
 671 00a0 F000     		lsl	r0, r6, #3
 672 00a2 5852     		strh	r0, [r3, r1]
 328:.\w5100.c     **** 				RMASK[i] = (uint16)(0x03FF);
 673              		.loc 1 328 0
 674 00a4 1432     		add	r2, r2, #20
ARM GAS  C:\Users\atsu\AppData\Local\Temp\cc7os1vl.s 			page 19


 675 00a6 234E     		ldr	r6, .L56+8
 676 00a8 13E0     		b	.L55
 677              	.L45:
 329:.\w5100.c     **** 				break;
 330:.\w5100.c     **** 			case 1:
 331:.\w5100.c     **** 				RSIZE[i] = (int16)(2048);
 678              		.loc 1 331 0
 679 00aa 8021     		mov	r1, #128
 680 00ac 171D     		add	r7, r2, #4
 681 00ae 0E01     		lsl	r6, r1, #4
 682 00b0 DE53     		strh	r6, [r3, r7]
 332:.\w5100.c     **** 				RMASK[i] = (uint16)(0x07FF);
 683              		.loc 1 332 0
 684 00b2 1432     		add	r2, r2, #20
 685 00b4 204E     		ldr	r6, .L56+12
 686 00b6 0CE0     		b	.L55
 687              	.L46:
 333:.\w5100.c     **** 				break;
 334:.\w5100.c     **** 			case 2:
 335:.\w5100.c     **** 				RSIZE[i] = (int16)(4096);
 688              		.loc 1 335 0
 689 00b8 8027     		mov	r7, #128
 690 00ba 101D     		add	r0, r2, #4
 691 00bc 7901     		lsl	r1, r7, #5
 692 00be 1952     		strh	r1, [r3, r0]
 336:.\w5100.c     **** 				RMASK[i] = (uint16)(0x0FFF);
 693              		.loc 1 336 0
 694 00c0 1432     		add	r2, r2, #20
 695 00c2 1E4E     		ldr	r6, .L56+16
 696 00c4 05E0     		b	.L55
 697              	.L47:
 337:.\w5100.c     **** 				break;
 338:.\w5100.c     **** 			case 3:
 339:.\w5100.c     **** 				RSIZE[i] = (int16)(8192);
 698              		.loc 1 339 0
 699 00c6 8027     		mov	r7, #128
 700 00c8 101D     		add	r0, r2, #4
 701 00ca B901     		lsl	r1, r7, #6
 340:.\w5100.c     **** 				RMASK[i] = (uint16)(0x1FFF);
 702              		.loc 1 340 0
 703 00cc 184E     		ldr	r6, .L56+4
 339:.\w5100.c     **** 				RSIZE[i] = (int16)(8192);
 704              		.loc 1 339 0
 705 00ce 1952     		strh	r1, [r3, r0]
 706              		.loc 1 340 0
 707 00d0 1432     		add	r2, r2, #20
 708              	.L55:
 709 00d2 9E52     		strh	r6, [r3, r2]
 710              	.L43:
 341:.\w5100.c     **** 				break;
 342:.\w5100.c     **** 			}
 343:.\w5100.c     **** 		}
 344:.\w5100.c     **** 		ssum += SSIZE[i];
 711              		.loc 1 344 0
 712 00d4 154A     		ldr	r2, .L56
 713 00d6 171C     		mov	r7, r2
 714 00d8 0C37     		add	r7, r7, #12
ARM GAS  C:\Users\atsu\AppData\Local\Temp\cc7os1vl.s 			page 20


 715 00da DE5B     		ldrh	r6, [r3, r7]
 345:.\w5100.c     **** 		rsum += RSIZE[i];
 716              		.loc 1 345 0
 717 00dc 101D     		add	r0, r2, #4
 344:.\w5100.c     **** 		ssum += SSIZE[i];
 718              		.loc 1 344 0
 719 00de 7519     		add	r5, r6, r5
 720              		.loc 1 345 0
 721 00e0 195A     		ldrh	r1, [r3, r0]
 722 00e2 009E     		ldr	r6, [sp]
 344:.\w5100.c     **** 		ssum += SSIZE[i];
 723              		.loc 1 344 0
 724 00e4 ADB2     		uxth	r5, r5
 725              	.LVL63:
 726              		.loc 1 345 0
 727 00e6 8919     		add	r1, r1, r6
 728 00e8 8EB2     		uxth	r6, r1
 729 00ea 0096     		str	r6, [sp]
 730              	.LVL64:
 346:.\w5100.c     **** 
 347:.\w5100.c     ****       if (i != 0)             // Sets base address of Tx and Rx memory for channel #1,#2,#3
 731              		.loc 1 347 0
 732 00ec 002C     		cmp	r4, #0
 733 00ee 15D0     		beq	.L48
 348:.\w5100.c     **** 		{
 349:.\w5100.c     **** 			SBUFBASEADDRESS[i] = SBUFBASEADDRESS[i-1] + SSIZE[i-1];
 734              		.loc 1 349 0
 735 00f0 161C     		mov	r6, r2
 736 00f2 2C36     		add	r6, r6, #44
 271:.\w5100.c     **** void sysinit(
 737              		.loc 1 271 0
 738 00f4 F118     		add	r1, r6, r3
 739 00f6 0239     		sub	r1, r1, #2
 740 00f8 FF18     		add	r7, r7, r3
 741 00fa 023F     		sub	r7, r7, #2
 742 00fc 0191     		str	r1, [sp, #4]
 743              		.loc 1 349 0
 744 00fe 3988     		ldrh	r1, [r7]
 745 0100 019F     		ldr	r7, [sp, #4]
 746 0102 8C46     		mov	ip, r1
 350:.\w5100.c     **** 			RBUFBASEADDRESS[i] = RBUFBASEADDRESS[i-1] + RSIZE[i-1];
 747              		.loc 1 350 0
 748 0104 2432     		add	r2, r2, #36
 349:.\w5100.c     **** 			SBUFBASEADDRESS[i] = SBUFBASEADDRESS[i-1] + SSIZE[i-1];
 749              		.loc 1 349 0
 750 0106 3988     		ldrh	r1, [r7]
 271:.\w5100.c     **** void sysinit(
 751              		.loc 1 271 0
 752 0108 C018     		add	r0, r0, r3
 753 010a D718     		add	r7, r2, r3
 349:.\w5100.c     **** 			SBUFBASEADDRESS[i] = SBUFBASEADDRESS[i-1] + SSIZE[i-1];
 754              		.loc 1 349 0
 755 010c 6144     		add	r1, r1, ip
 271:.\w5100.c     **** void sysinit(
 756              		.loc 1 271 0
 757 010e 0238     		sub	r0, r0, #2
 758 0110 023F     		sub	r7, r7, #2
ARM GAS  C:\Users\atsu\AppData\Local\Temp\cc7os1vl.s 			page 21


 349:.\w5100.c     **** 			SBUFBASEADDRESS[i] = SBUFBASEADDRESS[i-1] + SSIZE[i-1];
 759              		.loc 1 349 0
 760 0112 9953     		strh	r1, [r3, r6]
 761              		.loc 1 350 0
 762 0114 3988     		ldrh	r1, [r7]
 763 0116 0688     		ldrh	r6, [r0]
 764 0118 7018     		add	r0, r6, r1
 765 011a 9852     		strh	r0, [r3, r2]
 766              	.L48:
 296:.\w5100.c     ****    for (i = 0 ; i < MAX_SOCK_NUM; i++)       // Set the size, masking and base address of Tx & Rx m
 767              		.loc 1 296 0
 768 011c 0134     		add	r4, r4, #1
 769 011e 0233     		add	r3, r3, #2
 770 0120 A4B2     		uxth	r4, r4
 771              	.LVL65:
 772 0122 082B     		cmp	r3, #8
 773 0124 00D0     		beq	.LCB671
 774 0126 82E7     		b	.L49	@long jump
 775              	.LCB671:
 351:.\w5100.c     **** 		}
 352:.\w5100.c     **** #ifdef __DEF_IINCHIP_DBG__
 353:.\w5100.c     **** 		printf("%d : %.4x : %.4x : %.4x : %.4x\r\n", i, (uint16)SBUFBASEADDRESS[i], (uint16)RBUFBASEADDRE
 354:.\w5100.c     **** #endif
 355:.\w5100.c     **** 	}
 356:.\w5100.c     **** }
 776              		.loc 1 356 0
 777 0128 05B0     		add	sp, sp, #20
 778              	.LVL66:
 779              		@ sp needed for prologue
 780              	.LVL67:
 781              	.LVL68:
 782 012a F0BD     		pop	{r4, r5, r6, r7, pc}
 783              	.L57:
 784              		.align	2
 785              	.L56:
 786 012c 00000000 		.word	.LANCHOR0
 787 0130 FF1F0000 		.word	8191
 788 0134 FF030000 		.word	1023
 789 0138 FF070000 		.word	2047
 790 013c FF0F0000 		.word	4095
 791              		.cfi_endproc
 792              	.LFE47:
 793              		.size	sysinit, .-sysinit
 794              		.section	.text.setMR,"ax",%progbits
 795              		.align	1
 796              		.global	setMR
 797              		.code	16
 798              		.thumb_func
 799              		.type	setMR, %function
 800              	setMR:
 801              	.LFB48:
 357:.\w5100.c     **** 
 358:.\w5100.c     **** 
 359:.\w5100.c     **** void setMR(uint8 val)
 360:.\w5100.c     **** {
 802              		.loc 1 360 0
 803              		.cfi_startproc
ARM GAS  C:\Users\atsu\AppData\Local\Temp\cc7os1vl.s 			page 22


 804              	.LVL69:
 805 0000 08B5     		push	{r3, lr}
 806              	.LCFI7:
 807              		.cfi_def_cfa_offset 8
 808              		.cfi_offset 3, -8
 809              		.cfi_offset 14, -4
 810              		.loc 1 360 0
 811 0002 011C     		mov	r1, r0
 361:.\w5100.c     **** 	IINCHIP_WRITE(MR,val);
 812              		.loc 1 361 0
 813 0004 8020     		mov	r0, #128
 814              	.LVL70:
 815 0006 0002     		lsl	r0, r0, #8
 816 0008 FFF7FEFF 		bl	IINCHIP_WRITE
 817              	.LVL71:
 362:.\w5100.c     **** 	
 363:.\w5100.c     **** }
 818              		.loc 1 363 0
 819              		@ sp needed for prologue
 820 000c 08BD     		pop	{r3, pc}
 821              		.cfi_endproc
 822              	.LFE48:
 823              		.size	setMR, .-setMR
 824              		.section	.text.iinchip_init,"ax",%progbits
 825              		.align	1
 826              		.global	iinchip_init
 827              		.code	16
 828              		.thumb_func
 829              		.type	iinchip_init, %function
 830              	iinchip_init:
 831              	.LFB46:
 241:.\w5100.c     **** {	
 832              		.loc 1 241 0
 833              		.cfi_startproc
 834 0000 08B5     		push	{r3, lr}
 835              	.LCFI8:
 836              		.cfi_def_cfa_offset 8
 837              		.cfi_offset 3, -8
 838              		.cfi_offset 14, -4
 242:.\w5100.c     **** 	wait_delay_ms(300);
 839              		.loc 1 242 0
 840 0002 9620     		mov	r0, #150
 841 0004 4000     		lsl	r0, r0, #1
 842 0006 FFF7FEFF 		bl	wait_delay_ms
 843              	.LVL72:
 243:.\w5100.c     **** 	spi_master_init();
 844              		.loc 1 243 0
 845 000a FFF7FEFF 		bl	spi_master_init
 846              	.LVL73:
 244:.\w5100.c     **** 	setMR( MR_RST );
 847              		.loc 1 244 0
 848 000e 8020     		mov	r0, #128
 849 0010 FFF7FEFF 		bl	setMR
 850              	.LVL74:
 251:.\w5100.c     **** }
 851              		.loc 1 251 0
 852              		@ sp needed for prologue
ARM GAS  C:\Users\atsu\AppData\Local\Temp\cc7os1vl.s 			page 23


 853 0014 08BD     		pop	{r3, pc}
 854              		.cfi_endproc
 855              	.LFE46:
 856              		.size	iinchip_init, .-iinchip_init
 857              		.section	.text.setGAR,"ax",%progbits
 858              		.align	1
 859              		.global	setGAR
 860              		.code	16
 861              		.thumb_func
 862              		.type	setGAR, %function
 863              	setGAR:
 864              	.LFB49:
 364:.\w5100.c     **** 
 365:.\w5100.c     **** 
 366:.\w5100.c     **** /**
 367:.\w5100.c     **** @brief	This function sets up gateway IP address.
 368:.\w5100.c     **** */ 
 369:.\w5100.c     **** void setGAR(
 370:.\w5100.c     **** 	uint8 * addr	/**< a pointer to a 4 -uint8 array responsible to set the Gateway IP address. */
 371:.\w5100.c     **** 	)
 372:.\w5100.c     **** {
 865              		.loc 1 372 0
 866              		.cfi_startproc
 867              	.LVL75:
 868 0000 10B5     		push	{r4, lr}
 869              	.LCFI9:
 870              		.cfi_def_cfa_offset 8
 871              		.cfi_offset 4, -8
 872              		.cfi_offset 14, -4
 873              		.loc 1 372 0
 874 0002 041C     		mov	r4, r0
 373:.\w5100.c     **** 	IINCHIP_WRITE((GAR0 + 0),addr[0]);
 875              		.loc 1 373 0
 876 0004 0178     		ldrb	r1, [r0]
 877 0006 0120     		mov	r0, #1
 878              	.LVL76:
 879 0008 FFF7FEFF 		bl	IINCHIP_WRITE
 880              	.LVL77:
 374:.\w5100.c     **** 	IINCHIP_WRITE((GAR0 + 1),addr[1]);
 881              		.loc 1 374 0
 882 000c 6178     		ldrb	r1, [r4, #1]
 883 000e 0220     		mov	r0, #2
 884 0010 FFF7FEFF 		bl	IINCHIP_WRITE
 885              	.LVL78:
 375:.\w5100.c     **** 	IINCHIP_WRITE((GAR0 + 2),addr[2]);
 886              		.loc 1 375 0
 887 0014 A178     		ldrb	r1, [r4, #2]
 888 0016 0320     		mov	r0, #3
 889 0018 FFF7FEFF 		bl	IINCHIP_WRITE
 890              	.LVL79:
 376:.\w5100.c     **** 	IINCHIP_WRITE((GAR0 + 3),addr[3]);
 891              		.loc 1 376 0
 892 001c E178     		ldrb	r1, [r4, #3]
 893 001e 0420     		mov	r0, #4
 894 0020 FFF7FEFF 		bl	IINCHIP_WRITE
 895              	.LVL80:
 377:.\w5100.c     **** }
ARM GAS  C:\Users\atsu\AppData\Local\Temp\cc7os1vl.s 			page 24


 896              		.loc 1 377 0
 897              		@ sp needed for prologue
 898              	.LVL81:
 899 0024 10BD     		pop	{r4, pc}
 900              		.cfi_endproc
 901              	.LFE49:
 902              		.size	setGAR, .-setGAR
 903              		.section	.text.getGWIP,"ax",%progbits
 904              		.align	1
 905              		.global	getGWIP
 906              		.code	16
 907              		.thumb_func
 908              		.type	getGWIP, %function
 909              	getGWIP:
 910              	.LFB50:
 378:.\w5100.c     **** void getGWIP(uint8 * addr)
 379:.\w5100.c     **** {
 911              		.loc 1 379 0
 912              		.cfi_startproc
 913              	.LVL82:
 914 0000 10B5     		push	{r4, lr}
 915              	.LCFI10:
 916              		.cfi_def_cfa_offset 8
 917              		.cfi_offset 4, -8
 918              		.cfi_offset 14, -4
 919              		.loc 1 379 0
 920 0002 041C     		mov	r4, r0
 380:.\w5100.c     **** 	addr[0] = IINCHIP_READ((GAR0 + 0));
 921              		.loc 1 380 0
 922 0004 0120     		mov	r0, #1
 923              	.LVL83:
 924 0006 FFF7FEFF 		bl	IINCHIP_READ
 925              	.LVL84:
 926 000a 2070     		strb	r0, [r4]
 381:.\w5100.c     **** 	addr[1] = IINCHIP_READ((GAR0 + 1));
 927              		.loc 1 381 0
 928 000c 0220     		mov	r0, #2
 929 000e FFF7FEFF 		bl	IINCHIP_READ
 930              	.LVL85:
 931 0012 6070     		strb	r0, [r4, #1]
 382:.\w5100.c     **** 	addr[2] = IINCHIP_READ((GAR0 + 2));
 932              		.loc 1 382 0
 933 0014 0320     		mov	r0, #3
 934 0016 FFF7FEFF 		bl	IINCHIP_READ
 935              	.LVL86:
 936 001a A070     		strb	r0, [r4, #2]
 383:.\w5100.c     **** 	addr[3] = IINCHIP_READ((GAR0 + 3));
 937              		.loc 1 383 0
 938 001c 0420     		mov	r0, #4
 939 001e FFF7FEFF 		bl	IINCHIP_READ
 940              	.LVL87:
 384:.\w5100.c     **** }
 941              		.loc 1 384 0
 942              		@ sp needed for prologue
 383:.\w5100.c     **** 	addr[3] = IINCHIP_READ((GAR0 + 3));
 943              		.loc 1 383 0
 944 0022 E070     		strb	r0, [r4, #3]
ARM GAS  C:\Users\atsu\AppData\Local\Temp\cc7os1vl.s 			page 25


 945              	.LVL88:
 946              		.loc 1 384 0
 947 0024 10BD     		pop	{r4, pc}
 948              		.cfi_endproc
 949              	.LFE50:
 950              		.size	getGWIP, .-getGWIP
 951              		.section	.text.setSUBR,"ax",%progbits
 952              		.align	1
 953              		.global	setSUBR
 954              		.code	16
 955              		.thumb_func
 956              		.type	setSUBR, %function
 957              	setSUBR:
 958              	.LFB51:
 385:.\w5100.c     **** 
 386:.\w5100.c     **** 
 387:.\w5100.c     **** /**
 388:.\w5100.c     **** @brief	It sets up SubnetMask address
 389:.\w5100.c     **** */ 
 390:.\w5100.c     **** void setSUBR(
 391:.\w5100.c     **** 	uint8 * addr	/**< a pointer to a 4 -uint8 array responsible to set the SubnetMask address */
 392:.\w5100.c     **** 	)
 393:.\w5100.c     **** {
 959              		.loc 1 393 0
 960              		.cfi_startproc
 961              	.LVL89:
 962 0000 10B5     		push	{r4, lr}
 963              	.LCFI11:
 964              		.cfi_def_cfa_offset 8
 965              		.cfi_offset 4, -8
 966              		.cfi_offset 14, -4
 967              		.loc 1 393 0
 968 0002 041C     		mov	r4, r0
 394:.\w5100.c     **** 	IINCHIP_WRITE((SUBR0 + 0),addr[0]);
 969              		.loc 1 394 0
 970 0004 0178     		ldrb	r1, [r0]
 971 0006 0520     		mov	r0, #5
 972              	.LVL90:
 973 0008 FFF7FEFF 		bl	IINCHIP_WRITE
 974              	.LVL91:
 395:.\w5100.c     **** 	IINCHIP_WRITE((SUBR0 + 1),addr[1]);
 975              		.loc 1 395 0
 976 000c 6178     		ldrb	r1, [r4, #1]
 977 000e 0620     		mov	r0, #6
 978 0010 FFF7FEFF 		bl	IINCHIP_WRITE
 979              	.LVL92:
 396:.\w5100.c     **** 	IINCHIP_WRITE((SUBR0 + 2),addr[2]);
 980              		.loc 1 396 0
 981 0014 A178     		ldrb	r1, [r4, #2]
 982 0016 0720     		mov	r0, #7
 983 0018 FFF7FEFF 		bl	IINCHIP_WRITE
 984              	.LVL93:
 397:.\w5100.c     **** 	IINCHIP_WRITE((SUBR0 + 3),addr[3]);
 985              		.loc 1 397 0
 986 001c E178     		ldrb	r1, [r4, #3]
 987 001e 0820     		mov	r0, #8
 988 0020 FFF7FEFF 		bl	IINCHIP_WRITE
ARM GAS  C:\Users\atsu\AppData\Local\Temp\cc7os1vl.s 			page 26


 989              	.LVL94:
 398:.\w5100.c     **** }
 990              		.loc 1 398 0
 991              		@ sp needed for prologue
 992              	.LVL95:
 993 0024 10BD     		pop	{r4, pc}
 994              		.cfi_endproc
 995              	.LFE51:
 996              		.size	setSUBR, .-setSUBR
 997              		.section	.text.setSHAR,"ax",%progbits
 998              		.align	1
 999              		.global	setSHAR
 1000              		.code	16
 1001              		.thumb_func
 1002              		.type	setSHAR, %function
 1003              	setSHAR:
 1004              	.LFB52:
 399:.\w5100.c     **** 
 400:.\w5100.c     **** 
 401:.\w5100.c     **** /**
 402:.\w5100.c     **** @brief	This function sets up MAC address.
 403:.\w5100.c     **** */ 
 404:.\w5100.c     **** void setSHAR(
 405:.\w5100.c     **** 	uint8 * addr	/**< a pointer to a 6 -uint8 array responsible to set the MAC address. */
 406:.\w5100.c     **** 	)
 407:.\w5100.c     **** {
 1005              		.loc 1 407 0
 1006              		.cfi_startproc
 1007              	.LVL96:
 1008 0000 10B5     		push	{r4, lr}
 1009              	.LCFI12:
 1010              		.cfi_def_cfa_offset 8
 1011              		.cfi_offset 4, -8
 1012              		.cfi_offset 14, -4
 1013              		.loc 1 407 0
 1014 0002 041C     		mov	r4, r0
 408:.\w5100.c     **** 	IINCHIP_WRITE((SHAR0 + 0),addr[0]);
 1015              		.loc 1 408 0
 1016 0004 0178     		ldrb	r1, [r0]
 1017 0006 0920     		mov	r0, #9
 1018              	.LVL97:
 1019 0008 FFF7FEFF 		bl	IINCHIP_WRITE
 1020              	.LVL98:
 409:.\w5100.c     **** 	IINCHIP_WRITE((SHAR0 + 1),addr[1]);
 1021              		.loc 1 409 0
 1022 000c 6178     		ldrb	r1, [r4, #1]
 1023 000e 0A20     		mov	r0, #10
 1024 0010 FFF7FEFF 		bl	IINCHIP_WRITE
 1025              	.LVL99:
 410:.\w5100.c     **** 	IINCHIP_WRITE((SHAR0 + 2),addr[2]);
 1026              		.loc 1 410 0
 1027 0014 A178     		ldrb	r1, [r4, #2]
 1028 0016 0B20     		mov	r0, #11
 1029 0018 FFF7FEFF 		bl	IINCHIP_WRITE
 1030              	.LVL100:
 411:.\w5100.c     **** 	IINCHIP_WRITE((SHAR0 + 3),addr[3]);
 1031              		.loc 1 411 0
ARM GAS  C:\Users\atsu\AppData\Local\Temp\cc7os1vl.s 			page 27


 1032 001c E178     		ldrb	r1, [r4, #3]
 1033 001e 0C20     		mov	r0, #12
 1034 0020 FFF7FEFF 		bl	IINCHIP_WRITE
 1035              	.LVL101:
 412:.\w5100.c     **** 	IINCHIP_WRITE((SHAR0 + 4),addr[4]);
 1036              		.loc 1 412 0
 1037 0024 2179     		ldrb	r1, [r4, #4]
 1038 0026 0D20     		mov	r0, #13
 1039 0028 FFF7FEFF 		bl	IINCHIP_WRITE
 1040              	.LVL102:
 413:.\w5100.c     **** 	IINCHIP_WRITE((SHAR0 + 5),addr[5]);
 1041              		.loc 1 413 0
 1042 002c 6179     		ldrb	r1, [r4, #5]
 1043 002e 0E20     		mov	r0, #14
 1044 0030 FFF7FEFF 		bl	IINCHIP_WRITE
 1045              	.LVL103:
 414:.\w5100.c     **** }
 1046              		.loc 1 414 0
 1047              		@ sp needed for prologue
 1048              	.LVL104:
 1049 0034 10BD     		pop	{r4, pc}
 1050              		.cfi_endproc
 1051              	.LFE52:
 1052              		.size	setSHAR, .-setSHAR
 1053              		.section	.text.setSIPR,"ax",%progbits
 1054              		.align	1
 1055              		.global	setSIPR
 1056              		.code	16
 1057              		.thumb_func
 1058              		.type	setSIPR, %function
 1059              	setSIPR:
 1060              	.LFB53:
 415:.\w5100.c     **** 
 416:.\w5100.c     **** 
 417:.\w5100.c     **** /**
 418:.\w5100.c     **** @brief	This function sets up Source IP address.
 419:.\w5100.c     **** */
 420:.\w5100.c     **** void setSIPR(
 421:.\w5100.c     **** 	uint8 * addr	/**< a pointer to a 4 -uint8 array responsible to set the Source IP address. */
 422:.\w5100.c     **** 	)
 423:.\w5100.c     **** {
 1061              		.loc 1 423 0
 1062              		.cfi_startproc
 1063              	.LVL105:
 1064 0000 10B5     		push	{r4, lr}
 1065              	.LCFI13:
 1066              		.cfi_def_cfa_offset 8
 1067              		.cfi_offset 4, -8
 1068              		.cfi_offset 14, -4
 1069              		.loc 1 423 0
 1070 0002 041C     		mov	r4, r0
 424:.\w5100.c     **** 	IINCHIP_WRITE((SIPR0 + 0),addr[0]);
 1071              		.loc 1 424 0
 1072 0004 0178     		ldrb	r1, [r0]
 1073 0006 0F20     		mov	r0, #15
 1074              	.LVL106:
 1075 0008 FFF7FEFF 		bl	IINCHIP_WRITE
ARM GAS  C:\Users\atsu\AppData\Local\Temp\cc7os1vl.s 			page 28


 1076              	.LVL107:
 425:.\w5100.c     **** 	IINCHIP_WRITE((SIPR0 + 1),addr[1]);
 1077              		.loc 1 425 0
 1078 000c 6178     		ldrb	r1, [r4, #1]
 1079 000e 1020     		mov	r0, #16
 1080 0010 FFF7FEFF 		bl	IINCHIP_WRITE
 1081              	.LVL108:
 426:.\w5100.c     **** 	IINCHIP_WRITE((SIPR0 + 2),addr[2]);
 1082              		.loc 1 426 0
 1083 0014 A178     		ldrb	r1, [r4, #2]
 1084 0016 1120     		mov	r0, #17
 1085 0018 FFF7FEFF 		bl	IINCHIP_WRITE
 1086              	.LVL109:
 427:.\w5100.c     **** 	IINCHIP_WRITE((SIPR0 + 3),addr[3]);
 1087              		.loc 1 427 0
 1088 001c E178     		ldrb	r1, [r4, #3]
 1089 001e 1220     		mov	r0, #18
 1090 0020 FFF7FEFF 		bl	IINCHIP_WRITE
 1091              	.LVL110:
 428:.\w5100.c     **** }
 1092              		.loc 1 428 0
 1093              		@ sp needed for prologue
 1094              	.LVL111:
 1095 0024 10BD     		pop	{r4, pc}
 1096              		.cfi_endproc
 1097              	.LFE53:
 1098              		.size	setSIPR, .-setSIPR
 1099              		.section	.text.getIR,"ax",%progbits
 1100              		.align	1
 1101              		.global	getIR
 1102              		.code	16
 1103              		.thumb_func
 1104              		.type	getIR, %function
 1105              	getIR:
 1106              	.LFB54:
 429:.\w5100.c     **** 
 430:.\w5100.c     **** 
 431:.\w5100.c     **** /**
 432:.\w5100.c     **** @brief	This function gets Interrupt register in common register.
 433:.\w5100.c     ****  */
 434:.\w5100.c     **** uint8 getIR( void )
 435:.\w5100.c     **** {
 1107              		.loc 1 435 0
 1108              		.cfi_startproc
 1109 0000 08B5     		push	{r3, lr}
 1110              	.LCFI14:
 1111              		.cfi_def_cfa_offset 8
 1112              		.cfi_offset 3, -8
 1113              		.cfi_offset 14, -4
 436:.\w5100.c     ****    return IINCHIP_READ(IR);
 1114              		.loc 1 436 0
 1115 0002 1520     		mov	r0, #21
 1116 0004 FFF7FEFF 		bl	IINCHIP_READ
 1117              	.LVL112:
 437:.\w5100.c     **** }
 1118              		.loc 1 437 0
 1119              		@ sp needed for prologue
ARM GAS  C:\Users\atsu\AppData\Local\Temp\cc7os1vl.s 			page 29


 1120 0008 08BD     		pop	{r3, pc}
 1121              		.cfi_endproc
 1122              	.LFE54:
 1123              		.size	getIR, .-getIR
 1124              		.section	.text.setRTR,"ax",%progbits
 1125              		.align	1
 1126              		.global	setRTR
 1127              		.code	16
 1128              		.thumb_func
 1129              		.type	setRTR, %function
 1130              	setRTR:
 1131              	.LFB55:
 438:.\w5100.c     **** 
 439:.\w5100.c     **** 
 440:.\w5100.c     **** 
 441:.\w5100.c     **** /**
 442:.\w5100.c     **** @brief	This function sets up Retransmission time.
 443:.\w5100.c     **** 
 444:.\w5100.c     **** If there is no response from the peer or delay in response then retransmission 
 445:.\w5100.c     **** will be there as per RTR (Retry Time-value Register)setting
 446:.\w5100.c     **** */
 447:.\w5100.c     **** void setRTR(uint16 timeout)
 448:.\w5100.c     **** {
 1132              		.loc 1 448 0
 1133              		.cfi_startproc
 1134              	.LVL113:
 1135 0000 10B5     		push	{r4, lr}
 1136              	.LCFI15:
 1137              		.cfi_def_cfa_offset 8
 1138              		.cfi_offset 4, -8
 1139              		.cfi_offset 14, -4
 449:.\w5100.c     **** 	IINCHIP_WRITE(RTR0,(uint8)((timeout & 0xff00) >> 8));
 1140              		.loc 1 449 0
 1141 0002 010A     		lsr	r1, r0, #8
 448:.\w5100.c     **** {
 1142              		.loc 1 448 0
 1143 0004 041C     		mov	r4, r0
 1144              		.loc 1 449 0
 1145 0006 1720     		mov	r0, #23
 1146              	.LVL114:
 1147 0008 FFF7FEFF 		bl	IINCHIP_WRITE
 1148              	.LVL115:
 450:.\w5100.c     **** 	IINCHIP_WRITE((RTR0 + 1),(uint8)(timeout & 0x00ff));
 1149              		.loc 1 450 0
 1150 000c E1B2     		uxtb	r1, r4
 1151 000e 1820     		mov	r0, #24
 1152 0010 FFF7FEFF 		bl	IINCHIP_WRITE
 1153              	.LVL116:
 451:.\w5100.c     **** }
 1154              		.loc 1 451 0
 1155              		@ sp needed for prologue
 1156 0014 10BD     		pop	{r4, pc}
 1157              		.cfi_endproc
 1158              	.LFE55:
 1159              		.size	setRTR, .-setRTR
 1160              		.section	.text.setRCR,"ax",%progbits
 1161              		.align	1
ARM GAS  C:\Users\atsu\AppData\Local\Temp\cc7os1vl.s 			page 30


 1162              		.global	setRCR
 1163              		.code	16
 1164              		.thumb_func
 1165              		.type	setRCR, %function
 1166              	setRCR:
 1167              	.LFB56:
 452:.\w5100.c     **** 
 453:.\w5100.c     **** 
 454:.\w5100.c     **** /**
 455:.\w5100.c     **** @brief	This function set the number of Retransmission.
 456:.\w5100.c     **** 
 457:.\w5100.c     **** If there is no response from the peer or delay in response then recorded time 
 458:.\w5100.c     **** as per RTR & RCR register seeting then time out will occur.
 459:.\w5100.c     **** */
 460:.\w5100.c     **** void setRCR(uint8 retry)
 461:.\w5100.c     **** {
 1168              		.loc 1 461 0
 1169              		.cfi_startproc
 1170              	.LVL117:
 1171 0000 08B5     		push	{r3, lr}
 1172              	.LCFI16:
 1173              		.cfi_def_cfa_offset 8
 1174              		.cfi_offset 3, -8
 1175              		.cfi_offset 14, -4
 1176              		.loc 1 461 0
 1177 0002 011C     		mov	r1, r0
 462:.\w5100.c     **** 	IINCHIP_WRITE(RCR,retry);
 1178              		.loc 1 462 0
 1179 0004 1920     		mov	r0, #25
 1180              	.LVL118:
 1181 0006 FFF7FEFF 		bl	IINCHIP_WRITE
 1182              	.LVL119:
 463:.\w5100.c     **** }
 1183              		.loc 1 463 0
 1184              		@ sp needed for prologue
 1185 000a 08BD     		pop	{r3, pc}
 1186              		.cfi_endproc
 1187              	.LFE56:
 1188              		.size	setRCR, .-setRCR
 1189              		.section	.text.setIMR,"ax",%progbits
 1190              		.align	1
 1191              		.global	setIMR
 1192              		.code	16
 1193              		.thumb_func
 1194              		.type	setIMR, %function
 1195              	setIMR:
 1196              	.LFB57:
 464:.\w5100.c     **** 
 465:.\w5100.c     **** 
 466:.\w5100.c     **** /**
 467:.\w5100.c     **** @brief	This function set the interrupt mask Enable/Disable appropriate Interrupt. ('1' : interrupt 
 468:.\w5100.c     **** 
 469:.\w5100.c     **** If any bit in IMR is set as '0' then there is not interrupt signal though the bit is
 470:.\w5100.c     **** set in IR register.
 471:.\w5100.c     **** */
 472:.\w5100.c     **** void setIMR(uint8 mask)
 473:.\w5100.c     **** {
ARM GAS  C:\Users\atsu\AppData\Local\Temp\cc7os1vl.s 			page 31


 1197              		.loc 1 473 0
 1198              		.cfi_startproc
 1199              	.LVL120:
 1200 0000 08B5     		push	{r3, lr}
 1201              	.LCFI17:
 1202              		.cfi_def_cfa_offset 8
 1203              		.cfi_offset 3, -8
 1204              		.cfi_offset 14, -4
 1205              		.loc 1 473 0
 1206 0002 011C     		mov	r1, r0
 474:.\w5100.c     **** 	IINCHIP_WRITE(IMR,mask); // must be setted 0x10.
 1207              		.loc 1 474 0
 1208 0004 1620     		mov	r0, #22
 1209              	.LVL121:
 1210 0006 FFF7FEFF 		bl	IINCHIP_WRITE
 1211              	.LVL122:
 475:.\w5100.c     **** }
 1212              		.loc 1 475 0
 1213              		@ sp needed for prologue
 1214 000a 08BD     		pop	{r3, pc}
 1215              		.cfi_endproc
 1216              	.LFE57:
 1217              		.size	setIMR, .-setIMR
 1218              		.section	.text.getGAR,"ax",%progbits
 1219              		.align	1
 1220              		.global	getGAR
 1221              		.code	16
 1222              		.thumb_func
 1223              		.type	getGAR, %function
 1224              	getGAR:
 1225              	.LFB58:
 476:.\w5100.c     **** 
 477:.\w5100.c     **** 
 478:.\w5100.c     **** /**
 479:.\w5100.c     **** @brief	These below functions are used to get the Gateway, SubnetMask
 480:.\w5100.c     **** 		and Source Hardware Address (MAC Address) and Source IP address
 481:.\w5100.c     **** */
 482:.\w5100.c     **** void getGAR(uint8 * addr)
 483:.\w5100.c     **** {
 1226              		.loc 1 483 0
 1227              		.cfi_startproc
 1228              	.LVL123:
 1229 0000 10B5     		push	{r4, lr}
 1230              	.LCFI18:
 1231              		.cfi_def_cfa_offset 8
 1232              		.cfi_offset 4, -8
 1233              		.cfi_offset 14, -4
 1234              		.loc 1 483 0
 1235 0002 041C     		mov	r4, r0
 484:.\w5100.c     **** 	addr[0] = IINCHIP_READ(GAR0);
 1236              		.loc 1 484 0
 1237 0004 0120     		mov	r0, #1
 1238              	.LVL124:
 1239 0006 FFF7FEFF 		bl	IINCHIP_READ
 1240              	.LVL125:
 1241 000a 2070     		strb	r0, [r4]
 485:.\w5100.c     **** 	addr[1] = IINCHIP_READ(GAR0+1);
ARM GAS  C:\Users\atsu\AppData\Local\Temp\cc7os1vl.s 			page 32


 1242              		.loc 1 485 0
 1243 000c 0220     		mov	r0, #2
 1244 000e FFF7FEFF 		bl	IINCHIP_READ
 1245              	.LVL126:
 1246 0012 6070     		strb	r0, [r4, #1]
 486:.\w5100.c     **** 	addr[2] = IINCHIP_READ(GAR0+2);
 1247              		.loc 1 486 0
 1248 0014 0320     		mov	r0, #3
 1249 0016 FFF7FEFF 		bl	IINCHIP_READ
 1250              	.LVL127:
 1251 001a A070     		strb	r0, [r4, #2]
 487:.\w5100.c     **** 	addr[3] = IINCHIP_READ(GAR0+3);
 1252              		.loc 1 487 0
 1253 001c 0420     		mov	r0, #4
 1254 001e FFF7FEFF 		bl	IINCHIP_READ
 1255              	.LVL128:
 488:.\w5100.c     **** }
 1256              		.loc 1 488 0
 1257              		@ sp needed for prologue
 487:.\w5100.c     **** 	addr[3] = IINCHIP_READ(GAR0+3);
 1258              		.loc 1 487 0
 1259 0022 E070     		strb	r0, [r4, #3]
 1260              	.LVL129:
 1261              		.loc 1 488 0
 1262 0024 10BD     		pop	{r4, pc}
 1263              		.cfi_endproc
 1264              	.LFE58:
 1265              		.size	getGAR, .-getGAR
 1266              		.section	.text.getSUBR,"ax",%progbits
 1267              		.align	1
 1268              		.global	getSUBR
 1269              		.code	16
 1270              		.thumb_func
 1271              		.type	getSUBR, %function
 1272              	getSUBR:
 1273              	.LFB59:
 489:.\w5100.c     **** void getSUBR(uint8 * addr)
 490:.\w5100.c     **** {
 1274              		.loc 1 490 0
 1275              		.cfi_startproc
 1276              	.LVL130:
 1277 0000 10B5     		push	{r4, lr}
 1278              	.LCFI19:
 1279              		.cfi_def_cfa_offset 8
 1280              		.cfi_offset 4, -8
 1281              		.cfi_offset 14, -4
 1282              		.loc 1 490 0
 1283 0002 041C     		mov	r4, r0
 491:.\w5100.c     **** 	addr[0] = IINCHIP_READ(SUBR0);
 1284              		.loc 1 491 0
 1285 0004 0520     		mov	r0, #5
 1286              	.LVL131:
 1287 0006 FFF7FEFF 		bl	IINCHIP_READ
 1288              	.LVL132:
 1289 000a 2070     		strb	r0, [r4]
 492:.\w5100.c     **** 	addr[1] = IINCHIP_READ(SUBR0+1);
 1290              		.loc 1 492 0
ARM GAS  C:\Users\atsu\AppData\Local\Temp\cc7os1vl.s 			page 33


 1291 000c 0620     		mov	r0, #6
 1292 000e FFF7FEFF 		bl	IINCHIP_READ
 1293              	.LVL133:
 1294 0012 6070     		strb	r0, [r4, #1]
 493:.\w5100.c     **** 	addr[2] = IINCHIP_READ(SUBR0+2);
 1295              		.loc 1 493 0
 1296 0014 0720     		mov	r0, #7
 1297 0016 FFF7FEFF 		bl	IINCHIP_READ
 1298              	.LVL134:
 1299 001a A070     		strb	r0, [r4, #2]
 494:.\w5100.c     **** 	addr[3] = IINCHIP_READ(SUBR0+3);
 1300              		.loc 1 494 0
 1301 001c 0820     		mov	r0, #8
 1302 001e FFF7FEFF 		bl	IINCHIP_READ
 1303              	.LVL135:
 495:.\w5100.c     **** }
 1304              		.loc 1 495 0
 1305              		@ sp needed for prologue
 494:.\w5100.c     **** 	addr[3] = IINCHIP_READ(SUBR0+3);
 1306              		.loc 1 494 0
 1307 0022 E070     		strb	r0, [r4, #3]
 1308              	.LVL136:
 1309              		.loc 1 495 0
 1310 0024 10BD     		pop	{r4, pc}
 1311              		.cfi_endproc
 1312              	.LFE59:
 1313              		.size	getSUBR, .-getSUBR
 1314              		.section	.text.getSHAR,"ax",%progbits
 1315              		.align	1
 1316              		.global	getSHAR
 1317              		.code	16
 1318              		.thumb_func
 1319              		.type	getSHAR, %function
 1320              	getSHAR:
 1321              	.LFB60:
 496:.\w5100.c     **** void getSHAR(uint8 * addr)
 497:.\w5100.c     **** {
 1322              		.loc 1 497 0
 1323              		.cfi_startproc
 1324              	.LVL137:
 1325 0000 10B5     		push	{r4, lr}
 1326              	.LCFI20:
 1327              		.cfi_def_cfa_offset 8
 1328              		.cfi_offset 4, -8
 1329              		.cfi_offset 14, -4
 1330              		.loc 1 497 0
 1331 0002 041C     		mov	r4, r0
 498:.\w5100.c     **** 	addr[0] = IINCHIP_READ(SHAR0);
 1332              		.loc 1 498 0
 1333 0004 0920     		mov	r0, #9
 1334              	.LVL138:
 1335 0006 FFF7FEFF 		bl	IINCHIP_READ
 1336              	.LVL139:
 1337 000a 2070     		strb	r0, [r4]
 499:.\w5100.c     **** 	addr[1] = IINCHIP_READ(SHAR0+1);
 1338              		.loc 1 499 0
 1339 000c 0A20     		mov	r0, #10
ARM GAS  C:\Users\atsu\AppData\Local\Temp\cc7os1vl.s 			page 34


 1340 000e FFF7FEFF 		bl	IINCHIP_READ
 1341              	.LVL140:
 1342 0012 6070     		strb	r0, [r4, #1]
 500:.\w5100.c     **** 	addr[2] = IINCHIP_READ(SHAR0+2);
 1343              		.loc 1 500 0
 1344 0014 0B20     		mov	r0, #11
 1345 0016 FFF7FEFF 		bl	IINCHIP_READ
 1346              	.LVL141:
 1347 001a A070     		strb	r0, [r4, #2]
 501:.\w5100.c     **** 	addr[3] = IINCHIP_READ(SHAR0+3);
 1348              		.loc 1 501 0
 1349 001c 0C20     		mov	r0, #12
 1350 001e FFF7FEFF 		bl	IINCHIP_READ
 1351              	.LVL142:
 1352 0022 E070     		strb	r0, [r4, #3]
 502:.\w5100.c     **** 	addr[4] = IINCHIP_READ(SHAR0+4);
 1353              		.loc 1 502 0
 1354 0024 0D20     		mov	r0, #13
 1355 0026 FFF7FEFF 		bl	IINCHIP_READ
 1356              	.LVL143:
 1357 002a 2071     		strb	r0, [r4, #4]
 503:.\w5100.c     **** 	addr[5] = IINCHIP_READ(SHAR0+5);
 1358              		.loc 1 503 0
 1359 002c 0E20     		mov	r0, #14
 1360 002e FFF7FEFF 		bl	IINCHIP_READ
 1361              	.LVL144:
 504:.\w5100.c     **** }
 1362              		.loc 1 504 0
 1363              		@ sp needed for prologue
 503:.\w5100.c     **** 	addr[5] = IINCHIP_READ(SHAR0+5);
 1364              		.loc 1 503 0
 1365 0032 6071     		strb	r0, [r4, #5]
 1366              	.LVL145:
 1367              		.loc 1 504 0
 1368 0034 10BD     		pop	{r4, pc}
 1369              		.cfi_endproc
 1370              	.LFE60:
 1371              		.size	getSHAR, .-getSHAR
 1372              		.section	.text.getSIPR,"ax",%progbits
 1373              		.align	1
 1374              		.global	getSIPR
 1375              		.code	16
 1376              		.thumb_func
 1377              		.type	getSIPR, %function
 1378              	getSIPR:
 1379              	.LFB61:
 505:.\w5100.c     **** void getSIPR(uint8 * addr)
 506:.\w5100.c     **** {
 1380              		.loc 1 506 0
 1381              		.cfi_startproc
 1382              	.LVL146:
 1383 0000 10B5     		push	{r4, lr}
 1384              	.LCFI21:
 1385              		.cfi_def_cfa_offset 8
 1386              		.cfi_offset 4, -8
 1387              		.cfi_offset 14, -4
 1388              		.loc 1 506 0
ARM GAS  C:\Users\atsu\AppData\Local\Temp\cc7os1vl.s 			page 35


 1389 0002 041C     		mov	r4, r0
 507:.\w5100.c     **** 	addr[0] = IINCHIP_READ(SIPR0);
 1390              		.loc 1 507 0
 1391 0004 0F20     		mov	r0, #15
 1392              	.LVL147:
 1393 0006 FFF7FEFF 		bl	IINCHIP_READ
 1394              	.LVL148:
 1395 000a 2070     		strb	r0, [r4]
 508:.\w5100.c     **** 	addr[1] = IINCHIP_READ(SIPR0+1);
 1396              		.loc 1 508 0
 1397 000c 1020     		mov	r0, #16
 1398 000e FFF7FEFF 		bl	IINCHIP_READ
 1399              	.LVL149:
 1400 0012 6070     		strb	r0, [r4, #1]
 509:.\w5100.c     **** 	addr[2] = IINCHIP_READ(SIPR0+2);
 1401              		.loc 1 509 0
 1402 0014 1120     		mov	r0, #17
 1403 0016 FFF7FEFF 		bl	IINCHIP_READ
 1404              	.LVL150:
 1405 001a A070     		strb	r0, [r4, #2]
 510:.\w5100.c     **** 	addr[3] = IINCHIP_READ(SIPR0+3);
 1406              		.loc 1 510 0
 1407 001c 1220     		mov	r0, #18
 1408 001e FFF7FEFF 		bl	IINCHIP_READ
 1409              	.LVL151:
 511:.\w5100.c     **** }
 1410              		.loc 1 511 0
 1411              		@ sp needed for prologue
 510:.\w5100.c     **** 	addr[3] = IINCHIP_READ(SIPR0+3);
 1412              		.loc 1 510 0
 1413 0022 E070     		strb	r0, [r4, #3]
 1414              	.LVL152:
 1415              		.loc 1 511 0
 1416 0024 10BD     		pop	{r4, pc}
 1417              		.cfi_endproc
 1418              	.LFE61:
 1419              		.size	getSIPR, .-getSIPR
 1420              		.section	.text.getSn_DHAR,"ax",%progbits
 1421              		.align	1
 1422              		.global	getSn_DHAR
 1423              		.code	16
 1424              		.thumb_func
 1425              		.type	getSn_DHAR, %function
 1426              	getSn_DHAR:
 1427              	.LFB62:
 512:.\w5100.c     **** 
 513:.\w5100.c     **** 
 514:.\w5100.c     **** /**
 515:.\w5100.c     **** @brief	These below functions are used to get the Destination Hardware Address (MAC Address), Destin
 516:.\w5100.c     **** */
 517:.\w5100.c     **** void getSn_DHAR(SOCKET s, uint8 * addr)
 518:.\w5100.c     **** {
 1428              		.loc 1 518 0
 1429              		.cfi_startproc
 1430              	.LVL153:
 1431 0000 38B5     		push	{r3, r4, r5, lr}
 1432              	.LCFI22:
ARM GAS  C:\Users\atsu\AppData\Local\Temp\cc7os1vl.s 			page 36


 1433              		.cfi_def_cfa_offset 16
 1434              		.cfi_offset 3, -16
 1435              		.cfi_offset 4, -12
 1436              		.cfi_offset 5, -8
 1437              		.cfi_offset 14, -4
 519:.\w5100.c     **** 	addr[0] = IINCHIP_READ(Sn_DHAR0(s));
 1438              		.loc 1 519 0
 1439 0002 051D     		add	r5, r0, #4
 1440 0004 2802     		lsl	r0, r5, #8
 1441              	.LVL154:
 1442 0006 85B2     		uxth	r5, r0
 518:.\w5100.c     **** {
 1443              		.loc 1 518 0
 1444 0008 0C1C     		mov	r4, r1
 1445              		.loc 1 519 0
 1446 000a A91D     		add	r1, r5, #6
 1447              	.LVL155:
 1448 000c 88B2     		uxth	r0, r1
 1449 000e FFF7FEFF 		bl	IINCHIP_READ
 1450              	.LVL156:
 520:.\w5100.c     **** 	addr[1] = IINCHIP_READ(Sn_DHAR0(s)+1);
 1451              		.loc 1 520 0
 1452 0012 EA1D     		add	r2, r5, #7
 519:.\w5100.c     **** 	addr[0] = IINCHIP_READ(Sn_DHAR0(s));
 1453              		.loc 1 519 0
 1454 0014 2070     		strb	r0, [r4]
 1455              		.loc 1 520 0
 1456 0016 90B2     		uxth	r0, r2
 1457 0018 FFF7FEFF 		bl	IINCHIP_READ
 1458              	.LVL157:
 521:.\w5100.c     **** 	addr[2] = IINCHIP_READ(Sn_DHAR0(s)+2);
 1459              		.loc 1 521 0
 1460 001c 2B1C     		mov	r3, r5
 1461 001e 0833     		add	r3, r3, #8
 520:.\w5100.c     **** 	addr[1] = IINCHIP_READ(Sn_DHAR0(s)+1);
 1462              		.loc 1 520 0
 1463 0020 6070     		strb	r0, [r4, #1]
 1464              		.loc 1 521 0
 1465 0022 98B2     		uxth	r0, r3
 1466 0024 FFF7FEFF 		bl	IINCHIP_READ
 1467              	.LVL158:
 1468 0028 A070     		strb	r0, [r4, #2]
 522:.\w5100.c     **** 	addr[3] = IINCHIP_READ(Sn_DHAR0(s)+3);
 1469              		.loc 1 522 0
 1470 002a 281C     		mov	r0, r5
 1471 002c 0930     		add	r0, r0, #9
 1472 002e 80B2     		uxth	r0, r0
 1473 0030 FFF7FEFF 		bl	IINCHIP_READ
 1474              	.LVL159:
 523:.\w5100.c     **** 	addr[4] = IINCHIP_READ(Sn_DHAR0(s)+4);
 1475              		.loc 1 523 0
 1476 0034 291C     		mov	r1, r5
 1477 0036 0A31     		add	r1, r1, #10
 522:.\w5100.c     **** 	addr[3] = IINCHIP_READ(Sn_DHAR0(s)+3);
 1478              		.loc 1 522 0
 1479 0038 E070     		strb	r0, [r4, #3]
 1480              		.loc 1 523 0
ARM GAS  C:\Users\atsu\AppData\Local\Temp\cc7os1vl.s 			page 37


 1481 003a 88B2     		uxth	r0, r1
 1482 003c FFF7FEFF 		bl	IINCHIP_READ
 1483              	.LVL160:
 524:.\w5100.c     **** 	addr[5] = IINCHIP_READ(Sn_DHAR0(s)+5);
 1484              		.loc 1 524 0
 1485 0040 0B35     		add	r5, r5, #11
 523:.\w5100.c     **** 	addr[4] = IINCHIP_READ(Sn_DHAR0(s)+4);
 1486              		.loc 1 523 0
 1487 0042 2071     		strb	r0, [r4, #4]
 1488              		.loc 1 524 0
 1489 0044 A8B2     		uxth	r0, r5
 1490 0046 FFF7FEFF 		bl	IINCHIP_READ
 1491              	.LVL161:
 525:.\w5100.c     **** }
 1492              		.loc 1 525 0
 1493              		@ sp needed for prologue
 524:.\w5100.c     **** 	addr[5] = IINCHIP_READ(Sn_DHAR0(s)+5);
 1494              		.loc 1 524 0
 1495 004a 6071     		strb	r0, [r4, #5]
 1496              	.LVL162:
 1497              		.loc 1 525 0
 1498 004c 38BD     		pop	{r3, r4, r5, pc}
 1499              		.cfi_endproc
 1500              	.LFE62:
 1501              		.size	getSn_DHAR, .-getSn_DHAR
 1502              		.section	.text.setSn_DHAR,"ax",%progbits
 1503              		.align	1
 1504              		.global	setSn_DHAR
 1505              		.code	16
 1506              		.thumb_func
 1507              		.type	setSn_DHAR, %function
 1508              	setSn_DHAR:
 1509              	.LFB63:
 526:.\w5100.c     **** void setSn_DHAR(SOCKET s, uint8 * addr)
 527:.\w5100.c     **** {
 1510              		.loc 1 527 0
 1511              		.cfi_startproc
 1512              	.LVL163:
 1513 0000 38B5     		push	{r3, r4, r5, lr}
 1514              	.LCFI23:
 1515              		.cfi_def_cfa_offset 16
 1516              		.cfi_offset 3, -16
 1517              		.cfi_offset 4, -12
 1518              		.cfi_offset 5, -8
 1519              		.cfi_offset 14, -4
 528:.\w5100.c     **** 	IINCHIP_WRITE((Sn_DHAR0(s) + 0),addr[0]);
 1520              		.loc 1 528 0
 1521 0002 051D     		add	r5, r0, #4
 1522 0004 2802     		lsl	r0, r5, #8
 1523              	.LVL164:
 1524 0006 85B2     		uxth	r5, r0
 527:.\w5100.c     **** {
 1525              		.loc 1 527 0
 1526 0008 0C1C     		mov	r4, r1
 1527              		.loc 1 528 0
 1528 000a A91D     		add	r1, r5, #6
 1529              	.LVL165:
ARM GAS  C:\Users\atsu\AppData\Local\Temp\cc7os1vl.s 			page 38


 1530 000c 88B2     		uxth	r0, r1
 1531 000e 2178     		ldrb	r1, [r4]
 1532 0010 FFF7FEFF 		bl	IINCHIP_WRITE
 1533              	.LVL166:
 529:.\w5100.c     **** 	IINCHIP_WRITE((Sn_DHAR0(s) + 1),addr[1]);
 1534              		.loc 1 529 0
 1535 0014 EA1D     		add	r2, r5, #7
 1536 0016 90B2     		uxth	r0, r2
 1537 0018 6178     		ldrb	r1, [r4, #1]
 1538 001a FFF7FEFF 		bl	IINCHIP_WRITE
 1539              	.LVL167:
 530:.\w5100.c     **** 	IINCHIP_WRITE((Sn_DHAR0(s) + 2),addr[2]);
 1540              		.loc 1 530 0
 1541 001e 2B1C     		mov	r3, r5
 1542 0020 0833     		add	r3, r3, #8
 1543 0022 98B2     		uxth	r0, r3
 1544 0024 A178     		ldrb	r1, [r4, #2]
 1545 0026 FFF7FEFF 		bl	IINCHIP_WRITE
 1546              	.LVL168:
 531:.\w5100.c     **** 	IINCHIP_WRITE((Sn_DHAR0(s) + 3),addr[3]);
 1547              		.loc 1 531 0
 1548 002a 281C     		mov	r0, r5
 1549 002c 0930     		add	r0, r0, #9
 1550 002e E178     		ldrb	r1, [r4, #3]
 1551 0030 80B2     		uxth	r0, r0
 1552 0032 FFF7FEFF 		bl	IINCHIP_WRITE
 1553              	.LVL169:
 532:.\w5100.c     **** 	IINCHIP_WRITE((Sn_DHAR0(s) + 4),addr[4]);
 1554              		.loc 1 532 0
 1555 0036 291C     		mov	r1, r5
 1556 0038 0A31     		add	r1, r1, #10
 533:.\w5100.c     **** 	IINCHIP_WRITE((Sn_DHAR0(s) + 5),addr[5]);
 1557              		.loc 1 533 0
 1558 003a 0B35     		add	r5, r5, #11
 532:.\w5100.c     **** 	IINCHIP_WRITE((Sn_DHAR0(s) + 4),addr[4]);
 1559              		.loc 1 532 0
 1560 003c 88B2     		uxth	r0, r1
 1561 003e 2179     		ldrb	r1, [r4, #4]
 1562 0040 FFF7FEFF 		bl	IINCHIP_WRITE
 1563              	.LVL170:
 1564              		.loc 1 533 0
 1565 0044 A8B2     		uxth	r0, r5
 1566 0046 6179     		ldrb	r1, [r4, #5]
 1567 0048 FFF7FEFF 		bl	IINCHIP_WRITE
 1568              	.LVL171:
 534:.\w5100.c     **** }
 1569              		.loc 1 534 0
 1570              		@ sp needed for prologue
 1571              	.LVL172:
 1572 004c 38BD     		pop	{r3, r4, r5, pc}
 1573              		.cfi_endproc
 1574              	.LFE63:
 1575              		.size	setSn_DHAR, .-setSn_DHAR
 1576              		.section	.text.getSn_DIPR,"ax",%progbits
 1577              		.align	1
 1578              		.global	getSn_DIPR
 1579              		.code	16
ARM GAS  C:\Users\atsu\AppData\Local\Temp\cc7os1vl.s 			page 39


 1580              		.thumb_func
 1581              		.type	getSn_DIPR, %function
 1582              	getSn_DIPR:
 1583              	.LFB64:
 535:.\w5100.c     **** void getSn_DIPR(SOCKET s, uint8 * addr)
 536:.\w5100.c     **** {
 1584              		.loc 1 536 0
 1585              		.cfi_startproc
 1586              	.LVL173:
 1587 0000 38B5     		push	{r3, r4, r5, lr}
 1588              	.LCFI24:
 1589              		.cfi_def_cfa_offset 16
 1590              		.cfi_offset 3, -16
 1591              		.cfi_offset 4, -12
 1592              		.cfi_offset 5, -8
 1593              		.cfi_offset 14, -4
 537:.\w5100.c     **** 	addr[0] = IINCHIP_READ(Sn_DIPR0(s));
 1594              		.loc 1 537 0
 1595 0002 051D     		add	r5, r0, #4
 1596 0004 2802     		lsl	r0, r5, #8
 1597              	.LVL174:
 1598 0006 85B2     		uxth	r5, r0
 536:.\w5100.c     **** {
 1599              		.loc 1 536 0
 1600 0008 0C1C     		mov	r4, r1
 1601              		.loc 1 537 0
 1602 000a 291C     		mov	r1, r5
 1603              	.LVL175:
 1604 000c 0C31     		add	r1, r1, #12
 1605 000e 88B2     		uxth	r0, r1
 1606 0010 FFF7FEFF 		bl	IINCHIP_READ
 1607              	.LVL176:
 538:.\w5100.c     **** 	addr[1] = IINCHIP_READ(Sn_DIPR0(s)+1);
 1608              		.loc 1 538 0
 1609 0014 2A1C     		mov	r2, r5
 1610 0016 0D32     		add	r2, r2, #13
 537:.\w5100.c     **** 	addr[0] = IINCHIP_READ(Sn_DIPR0(s));
 1611              		.loc 1 537 0
 1612 0018 2070     		strb	r0, [r4]
 1613              		.loc 1 538 0
 1614 001a 90B2     		uxth	r0, r2
 1615 001c FFF7FEFF 		bl	IINCHIP_READ
 1616              	.LVL177:
 539:.\w5100.c     **** 	addr[2] = IINCHIP_READ(Sn_DIPR0(s)+2);
 1617              		.loc 1 539 0
 1618 0020 2B1C     		mov	r3, r5
 1619 0022 0E33     		add	r3, r3, #14
 538:.\w5100.c     **** 	addr[1] = IINCHIP_READ(Sn_DIPR0(s)+1);
 1620              		.loc 1 538 0
 1621 0024 6070     		strb	r0, [r4, #1]
 1622              		.loc 1 539 0
 1623 0026 98B2     		uxth	r0, r3
 1624 0028 FFF7FEFF 		bl	IINCHIP_READ
 1625              	.LVL178:
 540:.\w5100.c     **** 	addr[3] = IINCHIP_READ(Sn_DIPR0(s)+3);
 1626              		.loc 1 540 0
 1627 002c 0F35     		add	r5, r5, #15
ARM GAS  C:\Users\atsu\AppData\Local\Temp\cc7os1vl.s 			page 40


 539:.\w5100.c     **** 	addr[2] = IINCHIP_READ(Sn_DIPR0(s)+2);
 1628              		.loc 1 539 0
 1629 002e A070     		strb	r0, [r4, #2]
 1630              		.loc 1 540 0
 1631 0030 A8B2     		uxth	r0, r5
 1632 0032 FFF7FEFF 		bl	IINCHIP_READ
 1633              	.LVL179:
 541:.\w5100.c     **** }
 1634              		.loc 1 541 0
 1635              		@ sp needed for prologue
 540:.\w5100.c     **** 	addr[3] = IINCHIP_READ(Sn_DIPR0(s)+3);
 1636              		.loc 1 540 0
 1637 0036 E070     		strb	r0, [r4, #3]
 1638              	.LVL180:
 1639              		.loc 1 541 0
 1640 0038 38BD     		pop	{r3, r4, r5, pc}
 1641              		.cfi_endproc
 1642              	.LFE64:
 1643              		.size	getSn_DIPR, .-getSn_DIPR
 1644              		.section	.text.setSn_DIPR,"ax",%progbits
 1645              		.align	1
 1646              		.global	setSn_DIPR
 1647              		.code	16
 1648              		.thumb_func
 1649              		.type	setSn_DIPR, %function
 1650              	setSn_DIPR:
 1651              	.LFB65:
 542:.\w5100.c     **** void setSn_DIPR(SOCKET s, uint8 * addr)
 543:.\w5100.c     **** {
 1652              		.loc 1 543 0
 1653              		.cfi_startproc
 1654              	.LVL181:
 1655 0000 38B5     		push	{r3, r4, r5, lr}
 1656              	.LCFI25:
 1657              		.cfi_def_cfa_offset 16
 1658              		.cfi_offset 3, -16
 1659              		.cfi_offset 4, -12
 1660              		.cfi_offset 5, -8
 1661              		.cfi_offset 14, -4
 544:.\w5100.c     **** 	IINCHIP_WRITE((Sn_DIPR0(s) + 0),addr[0]);
 1662              		.loc 1 544 0
 1663 0002 051D     		add	r5, r0, #4
 1664 0004 2802     		lsl	r0, r5, #8
 1665              	.LVL182:
 1666 0006 85B2     		uxth	r5, r0
 543:.\w5100.c     **** {
 1667              		.loc 1 543 0
 1668 0008 0C1C     		mov	r4, r1
 1669              		.loc 1 544 0
 1670 000a 291C     		mov	r1, r5
 1671              	.LVL183:
 1672 000c 0C31     		add	r1, r1, #12
 1673 000e 88B2     		uxth	r0, r1
 1674 0010 2178     		ldrb	r1, [r4]
 1675 0012 FFF7FEFF 		bl	IINCHIP_WRITE
 1676              	.LVL184:
 545:.\w5100.c     **** 	IINCHIP_WRITE((Sn_DIPR0(s) + 1),addr[1]);
ARM GAS  C:\Users\atsu\AppData\Local\Temp\cc7os1vl.s 			page 41


 1677              		.loc 1 545 0
 1678 0016 2A1C     		mov	r2, r5
 1679 0018 0D32     		add	r2, r2, #13
 1680 001a 90B2     		uxth	r0, r2
 1681 001c 6178     		ldrb	r1, [r4, #1]
 1682 001e FFF7FEFF 		bl	IINCHIP_WRITE
 1683              	.LVL185:
 546:.\w5100.c     **** 	IINCHIP_WRITE((Sn_DIPR0(s) + 2),addr[2]);
 1684              		.loc 1 546 0
 1685 0022 2B1C     		mov	r3, r5
 1686 0024 0E33     		add	r3, r3, #14
 1687 0026 98B2     		uxth	r0, r3
 1688 0028 A178     		ldrb	r1, [r4, #2]
 547:.\w5100.c     **** 	IINCHIP_WRITE((Sn_DIPR0(s) + 3),addr[3]);
 1689              		.loc 1 547 0
 1690 002a 0F35     		add	r5, r5, #15
 546:.\w5100.c     **** 	IINCHIP_WRITE((Sn_DIPR0(s) + 2),addr[2]);
 1691              		.loc 1 546 0
 1692 002c FFF7FEFF 		bl	IINCHIP_WRITE
 1693              	.LVL186:
 1694              		.loc 1 547 0
 1695 0030 A8B2     		uxth	r0, r5
 1696 0032 E178     		ldrb	r1, [r4, #3]
 1697 0034 FFF7FEFF 		bl	IINCHIP_WRITE
 1698              	.LVL187:
 548:.\w5100.c     **** }
 1699              		.loc 1 548 0
 1700              		@ sp needed for prologue
 1701              	.LVL188:
 1702 0038 38BD     		pop	{r3, r4, r5, pc}
 1703              		.cfi_endproc
 1704              	.LFE65:
 1705              		.size	setSn_DIPR, .-setSn_DIPR
 1706              		.section	.text.getSn_DPORT,"ax",%progbits
 1707              		.align	1
 1708              		.global	getSn_DPORT
 1709              		.code	16
 1710              		.thumb_func
 1711              		.type	getSn_DPORT, %function
 1712              	getSn_DPORT:
 1713              	.LFB66:
 549:.\w5100.c     **** void getSn_DPORT(SOCKET s, uint8 * addr)
 550:.\w5100.c     **** {
 1714              		.loc 1 550 0
 1715              		.cfi_startproc
 1716              	.LVL189:
 1717 0000 38B5     		push	{r3, r4, r5, lr}
 1718              	.LCFI26:
 1719              		.cfi_def_cfa_offset 16
 1720              		.cfi_offset 3, -16
 1721              		.cfi_offset 4, -12
 1722              		.cfi_offset 5, -8
 1723              		.cfi_offset 14, -4
 551:.\w5100.c     **** 	addr[0] = IINCHIP_READ(Sn_DPORT0(s));
 1724              		.loc 1 551 0
 1725 0002 051D     		add	r5, r0, #4
 1726 0004 2802     		lsl	r0, r5, #8
ARM GAS  C:\Users\atsu\AppData\Local\Temp\cc7os1vl.s 			page 42


 1727              	.LVL190:
 1728 0006 85B2     		uxth	r5, r0
 550:.\w5100.c     **** {
 1729              		.loc 1 550 0
 1730 0008 0C1C     		mov	r4, r1
 1731              		.loc 1 551 0
 1732 000a 291C     		mov	r1, r5
 1733              	.LVL191:
 1734 000c 1031     		add	r1, r1, #16
 1735 000e 88B2     		uxth	r0, r1
 1736 0010 FFF7FEFF 		bl	IINCHIP_READ
 1737              	.LVL192:
 552:.\w5100.c     **** 	addr[1] = IINCHIP_READ(Sn_DPORT0(s)+1);
 1738              		.loc 1 552 0
 1739 0014 1135     		add	r5, r5, #17
 551:.\w5100.c     **** 	addr[0] = IINCHIP_READ(Sn_DPORT0(s));
 1740              		.loc 1 551 0
 1741 0016 2070     		strb	r0, [r4]
 1742              		.loc 1 552 0
 1743 0018 A8B2     		uxth	r0, r5
 1744 001a FFF7FEFF 		bl	IINCHIP_READ
 1745              	.LVL193:
 553:.\w5100.c     **** }
 1746              		.loc 1 553 0
 1747              		@ sp needed for prologue
 552:.\w5100.c     **** 	addr[1] = IINCHIP_READ(Sn_DPORT0(s)+1);
 1748              		.loc 1 552 0
 1749 001e 6070     		strb	r0, [r4, #1]
 1750              	.LVL194:
 1751              		.loc 1 553 0
 1752 0020 38BD     		pop	{r3, r4, r5, pc}
 1753              		.cfi_endproc
 1754              	.LFE66:
 1755              		.size	getSn_DPORT, .-getSn_DPORT
 1756              		.section	.text.setSn_DPORT,"ax",%progbits
 1757              		.align	1
 1758              		.global	setSn_DPORT
 1759              		.code	16
 1760              		.thumb_func
 1761              		.type	setSn_DPORT, %function
 1762              	setSn_DPORT:
 1763              	.LFB67:
 554:.\w5100.c     **** void setSn_DPORT(SOCKET s, uint8 * addr)
 555:.\w5100.c     **** {
 1764              		.loc 1 555 0
 1765              		.cfi_startproc
 1766              	.LVL195:
 1767 0000 38B5     		push	{r3, r4, r5, lr}
 1768              	.LCFI27:
 1769              		.cfi_def_cfa_offset 16
 1770              		.cfi_offset 3, -16
 1771              		.cfi_offset 4, -12
 1772              		.cfi_offset 5, -8
 1773              		.cfi_offset 14, -4
 556:.\w5100.c     **** 	IINCHIP_WRITE((Sn_DPORT0(s) + 0),addr[0]);
 1774              		.loc 1 556 0
 1775 0002 051D     		add	r5, r0, #4
ARM GAS  C:\Users\atsu\AppData\Local\Temp\cc7os1vl.s 			page 43


 1776 0004 2802     		lsl	r0, r5, #8
 1777              	.LVL196:
 1778 0006 85B2     		uxth	r5, r0
 555:.\w5100.c     **** {
 1779              		.loc 1 555 0
 1780 0008 0C1C     		mov	r4, r1
 1781              		.loc 1 556 0
 1782 000a 291C     		mov	r1, r5
 1783              	.LVL197:
 1784 000c 1031     		add	r1, r1, #16
 557:.\w5100.c     **** 	IINCHIP_WRITE((Sn_DPORT0(s) + 1),addr[1]);
 1785              		.loc 1 557 0
 1786 000e 1135     		add	r5, r5, #17
 556:.\w5100.c     **** 	IINCHIP_WRITE((Sn_DPORT0(s) + 0),addr[0]);
 1787              		.loc 1 556 0
 1788 0010 88B2     		uxth	r0, r1
 1789 0012 2178     		ldrb	r1, [r4]
 1790 0014 FFF7FEFF 		bl	IINCHIP_WRITE
 1791              	.LVL198:
 1792              		.loc 1 557 0
 1793 0018 A8B2     		uxth	r0, r5
 1794 001a 6178     		ldrb	r1, [r4, #1]
 1795 001c FFF7FEFF 		bl	IINCHIP_WRITE
 1796              	.LVL199:
 558:.\w5100.c     **** }
 1797              		.loc 1 558 0
 1798              		@ sp needed for prologue
 1799              	.LVL200:
 1800 0020 38BD     		pop	{r3, r4, r5, pc}
 1801              		.cfi_endproc
 1802              	.LFE67:
 1803              		.size	setSn_DPORT, .-setSn_DPORT
 1804              		.section	.text.setSn_MSS,"ax",%progbits
 1805              		.align	1
 1806              		.global	setSn_MSS
 1807              		.code	16
 1808              		.thumb_func
 1809              		.type	setSn_MSS, %function
 1810              	setSn_MSS:
 1811              	.LFB68:
 559:.\w5100.c     **** 
 560:.\w5100.c     **** 
 561:.\w5100.c     **** /**
 562:.\w5100.c     **** @brief	This sets the maximum segment size of TCP in Active Mode), while in Passive Mode this is set
 563:.\w5100.c     **** */
 564:.\w5100.c     **** void setSn_MSS(SOCKET s, uint16 Sn_MSSR0)
 565:.\w5100.c     **** {
 1812              		.loc 1 565 0
 1813              		.cfi_startproc
 1814              	.LVL201:
 1815 0000 38B5     		push	{r3, r4, r5, lr}
 1816              	.LCFI28:
 1817              		.cfi_def_cfa_offset 16
 1818              		.cfi_offset 3, -16
 1819              		.cfi_offset 4, -12
 1820              		.cfi_offset 5, -8
 1821              		.cfi_offset 14, -4
ARM GAS  C:\Users\atsu\AppData\Local\Temp\cc7os1vl.s 			page 44


 566:.\w5100.c     **** 	IINCHIP_WRITE(Sn_MSSR0(s),(uint8)((Sn_MSSR0 & 0xff00) >> 8));
 1822              		.loc 1 566 0
 1823 0002 051D     		add	r5, r0, #4
 1824 0004 2802     		lsl	r0, r5, #8
 1825              	.LVL202:
 1826 0006 85B2     		uxth	r5, r0
 565:.\w5100.c     **** {
 1827              		.loc 1 565 0
 1828 0008 0C1C     		mov	r4, r1
 1829              		.loc 1 566 0
 1830 000a 291C     		mov	r1, r5
 1831              	.LVL203:
 1832 000c 1231     		add	r1, r1, #18
 567:.\w5100.c     **** 	IINCHIP_WRITE((Sn_MSSR0(s) + 1),(uint8)(Sn_MSSR0 & 0x00ff));
 1833              		.loc 1 567 0
 1834 000e 1335     		add	r5, r5, #19
 566:.\w5100.c     **** 	IINCHIP_WRITE(Sn_MSSR0(s),(uint8)((Sn_MSSR0 & 0xff00) >> 8));
 1835              		.loc 1 566 0
 1836 0010 88B2     		uxth	r0, r1
 1837 0012 210A     		lsr	r1, r4, #8
 1838 0014 FFF7FEFF 		bl	IINCHIP_WRITE
 1839              	.LVL204:
 1840              		.loc 1 567 0
 1841 0018 A8B2     		uxth	r0, r5
 1842 001a E1B2     		uxtb	r1, r4
 1843 001c FFF7FEFF 		bl	IINCHIP_WRITE
 1844              	.LVL205:
 568:.\w5100.c     **** }
 1845              		.loc 1 568 0
 1846              		@ sp needed for prologue
 1847 0020 38BD     		pop	{r3, r4, r5, pc}
 1848              		.cfi_endproc
 1849              	.LFE68:
 1850              		.size	setSn_MSS, .-setSn_MSS
 1851              		.section	.text.setSn_TTL,"ax",%progbits
 1852              		.align	1
 1853              		.global	setSn_TTL
 1854              		.code	16
 1855              		.thumb_func
 1856              		.type	setSn_TTL, %function
 1857              	setSn_TTL:
 1858              	.LFB69:
 569:.\w5100.c     **** 
 570:.\w5100.c     **** void setSn_TTL(SOCKET s, uint8 ttl)
 571:.\w5100.c     **** {
 1859              		.loc 1 571 0
 1860              		.cfi_startproc
 1861              	.LVL206:
 1862 0000 08B5     		push	{r3, lr}
 1863              	.LCFI29:
 1864              		.cfi_def_cfa_offset 8
 1865              		.cfi_offset 3, -8
 1866              		.cfi_offset 14, -4
 572:.\w5100.c     ****    IINCHIP_WRITE(Sn_TTL(s), ttl);
 1867              		.loc 1 572 0
 1868 0002 034B     		ldr	r3, .L81
 1869 0004 0002     		lsl	r0, r0, #8
ARM GAS  C:\Users\atsu\AppData\Local\Temp\cc7os1vl.s 			page 45


 1870              	.LVL207:
 1871 0006 C218     		add	r2, r0, r3
 1872 0008 90B2     		uxth	r0, r2
 1873 000a FFF7FEFF 		bl	IINCHIP_WRITE
 1874              	.LVL208:
 573:.\w5100.c     **** }
 1875              		.loc 1 573 0
 1876              		@ sp needed for prologue
 1877 000e 08BD     		pop	{r3, pc}
 1878              	.L82:
 1879              		.align	2
 1880              	.L81:
 1881 0010 16040000 		.word	1046
 1882              		.cfi_endproc
 1883              	.LFE69:
 1884              		.size	setSn_TTL, .-setSn_TTL
 1885              		.section	.text.setSn_PROTO,"ax",%progbits
 1886              		.align	1
 1887              		.global	setSn_PROTO
 1888              		.code	16
 1889              		.thumb_func
 1890              		.type	setSn_PROTO, %function
 1891              	setSn_PROTO:
 1892              	.LFB70:
 574:.\w5100.c     **** 
 575:.\w5100.c     **** 
 576:.\w5100.c     **** /**
 577:.\w5100.c     **** @brief	These below function is used to setup the Protocol Field of IP Header when
 578:.\w5100.c     **** 		executing the IP Layer RAW mode.
 579:.\w5100.c     **** */
 580:.\w5100.c     **** void setSn_PROTO(SOCKET s, uint8 proto)
 581:.\w5100.c     **** {
 1893              		.loc 1 581 0
 1894              		.cfi_startproc
 1895              	.LVL209:
 1896 0000 08B5     		push	{r3, lr}
 1897              	.LCFI30:
 1898              		.cfi_def_cfa_offset 8
 1899              		.cfi_offset 3, -8
 1900              		.cfi_offset 14, -4
 582:.\w5100.c     **** 	IINCHIP_WRITE(Sn_PROTO(s),proto);
 1901              		.loc 1 582 0
 1902 0002 034B     		ldr	r3, .L84
 1903 0004 0002     		lsl	r0, r0, #8
 1904              	.LVL210:
 1905 0006 C218     		add	r2, r0, r3
 1906 0008 90B2     		uxth	r0, r2
 1907 000a FFF7FEFF 		bl	IINCHIP_WRITE
 1908              	.LVL211:
 583:.\w5100.c     **** }
 1909              		.loc 1 583 0
 1910              		@ sp needed for prologue
 1911 000e 08BD     		pop	{r3, pc}
 1912              	.L85:
 1913              		.align	2
 1914              	.L84:
 1915 0010 14040000 		.word	1044
ARM GAS  C:\Users\atsu\AppData\Local\Temp\cc7os1vl.s 			page 46


 1916              		.cfi_endproc
 1917              	.LFE70:
 1918              		.size	setSn_PROTO, .-setSn_PROTO
 1919              		.section	.text.getSn_IR,"ax",%progbits
 1920              		.align	1
 1921              		.global	getSn_IR
 1922              		.code	16
 1923              		.thumb_func
 1924              		.type	getSn_IR, %function
 1925              	getSn_IR:
 1926              	.LFB71:
 584:.\w5100.c     **** 
 585:.\w5100.c     **** 
 586:.\w5100.c     **** /**
 587:.\w5100.c     **** @brief	get socket interrupt status
 588:.\w5100.c     **** 
 589:.\w5100.c     **** These below functions are used to read the Interrupt & Soket Status register
 590:.\w5100.c     **** */
 591:.\w5100.c     **** uint8 getSn_IR(SOCKET s)
 592:.\w5100.c     **** {
 1927              		.loc 1 592 0
 1928              		.cfi_startproc
 1929              	.LVL212:
 1930 0000 08B5     		push	{r3, lr}
 1931              	.LCFI31:
 1932              		.cfi_def_cfa_offset 8
 1933              		.cfi_offset 3, -8
 1934              		.cfi_offset 14, -4
 593:.\w5100.c     ****    return IINCHIP_READ(Sn_IR(s));
 1935              		.loc 1 593 0
 1936 0002 034B     		ldr	r3, .L87
 1937 0004 0002     		lsl	r0, r0, #8
 1938              	.LVL213:
 1939 0006 C118     		add	r1, r0, r3
 1940 0008 88B2     		uxth	r0, r1
 1941 000a FFF7FEFF 		bl	IINCHIP_READ
 1942              	.LVL214:
 594:.\w5100.c     **** }
 1943              		.loc 1 594 0
 1944              		@ sp needed for prologue
 1945 000e 08BD     		pop	{r3, pc}
 1946              	.L88:
 1947              		.align	2
 1948              	.L87:
 1949 0010 02040000 		.word	1026
 1950              		.cfi_endproc
 1951              	.LFE71:
 1952              		.size	getSn_IR, .-getSn_IR
 1953              		.section	.text.getSn_SR,"ax",%progbits
 1954              		.align	1
 1955              		.global	getSn_SR
 1956              		.code	16
 1957              		.thumb_func
 1958              		.type	getSn_SR, %function
 1959              	getSn_SR:
 1960              	.LFB72:
 595:.\w5100.c     **** 
ARM GAS  C:\Users\atsu\AppData\Local\Temp\cc7os1vl.s 			page 47


 596:.\w5100.c     **** 
 597:.\w5100.c     **** /**
 598:.\w5100.c     **** @brief	 get socket status
 599:.\w5100.c     **** */
 600:.\w5100.c     **** uint8 getSn_SR(SOCKET s)
 601:.\w5100.c     **** {
 1961              		.loc 1 601 0
 1962              		.cfi_startproc
 1963              	.LVL215:
 1964 0000 08B5     		push	{r3, lr}
 1965              	.LCFI32:
 1966              		.cfi_def_cfa_offset 8
 1967              		.cfi_offset 3, -8
 1968              		.cfi_offset 14, -4
 602:.\w5100.c     ****    return IINCHIP_READ(Sn_SR(s));
 1969              		.loc 1 602 0
 1970 0002 034B     		ldr	r3, .L90
 1971 0004 0002     		lsl	r0, r0, #8
 1972              	.LVL216:
 1973 0006 C118     		add	r1, r0, r3
 1974 0008 88B2     		uxth	r0, r1
 1975 000a FFF7FEFF 		bl	IINCHIP_READ
 1976              	.LVL217:
 603:.\w5100.c     **** }
 1977              		.loc 1 603 0
 1978              		@ sp needed for prologue
 1979 000e 08BD     		pop	{r3, pc}
 1980              	.L91:
 1981              		.align	2
 1982              	.L90:
 1983 0010 03040000 		.word	1027
 1984              		.cfi_endproc
 1985              	.LFE72:
 1986              		.size	getSn_SR, .-getSn_SR
 1987              		.section	.text.getSn_TX_FSR,"ax",%progbits
 1988              		.align	1
 1989              		.global	getSn_TX_FSR
 1990              		.code	16
 1991              		.thumb_func
 1992              		.type	getSn_TX_FSR, %function
 1993              	getSn_TX_FSR:
 1994              	.LFB73:
 604:.\w5100.c     **** 
 605:.\w5100.c     **** 
 606:.\w5100.c     **** /**
 607:.\w5100.c     **** @brief	get socket TX free buf size
 608:.\w5100.c     **** 
 609:.\w5100.c     **** This gives free buffer size of transmit buffer. This is the data size that user can transmit.
 610:.\w5100.c     **** User shuold check this value first and control the size of transmitting data
 611:.\w5100.c     **** */
 612:.\w5100.c     **** uint16 getSn_TX_FSR(SOCKET s)
 613:.\w5100.c     **** {
 1995              		.loc 1 613 0
 1996              		.cfi_startproc
 1997              	.LVL218:
 1998 0000 F8B5     		push	{r3, r4, r5, r6, r7, lr}
 1999              	.LCFI33:
ARM GAS  C:\Users\atsu\AppData\Local\Temp\cc7os1vl.s 			page 48


 2000              		.cfi_def_cfa_offset 24
 2001              		.cfi_offset 3, -24
 2002              		.cfi_offset 4, -20
 2003              		.cfi_offset 5, -16
 2004              		.cfi_offset 6, -12
 2005              		.cfi_offset 7, -8
 2006              		.cfi_offset 14, -4
 614:.\w5100.c     **** 	uint16 val=0,val1=0;
 615:.\w5100.c     **** 	do
 616:.\w5100.c     **** 	{
 617:.\w5100.c     **** 		val1 = IINCHIP_READ(Sn_TX_FSR0(s));
 2007              		.loc 1 617 0
 2008 0002 071D     		add	r7, r0, #4
 2009 0004 3802     		lsl	r0, r7, #8
 2010              	.LVL219:
 2011 0006 81B2     		uxth	r1, r0
 2012 0008 0E1C     		mov	r6, r1
 2013 000a 2036     		add	r6, r6, #32
 618:.\w5100.c     **** 		val1 = (val1 << 8) + IINCHIP_READ(Sn_TX_FSR0(s) + 1);
 2014              		.loc 1 618 0
 2015 000c 2131     		add	r1, r1, #33
 617:.\w5100.c     **** 		val1 = IINCHIP_READ(Sn_TX_FSR0(s));
 2016              		.loc 1 617 0
 2017 000e B6B2     		uxth	r6, r6
 2018              		.loc 1 618 0
 2019 0010 8FB2     		uxth	r7, r1
 614:.\w5100.c     **** 	uint16 val=0,val1=0;
 2020              		.loc 1 614 0
 2021 0012 0024     		mov	r4, #0
 2022              	.LVL220:
 2023              	.L94:
 617:.\w5100.c     **** 		val1 = IINCHIP_READ(Sn_TX_FSR0(s));
 2024              		.loc 1 617 0
 2025 0014 301C     		mov	r0, r6
 2026 0016 FFF7FEFF 		bl	IINCHIP_READ
 2027              	.LVL221:
 2028              		.loc 1 618 0
 2029 001a 0502     		lsl	r5, r0, #8
 2030 001c 381C     		mov	r0, r7
 2031              	.LVL222:
 2032 001e FFF7FEFF 		bl	IINCHIP_READ
 2033              	.LVL223:
 2034 0022 ADB2     		uxth	r5, r5
 2035 0024 2A18     		add	r2, r5, r0
 2036 0026 95B2     		uxth	r5, r2
 2037              	.LVL224:
 619:.\w5100.c     ****       if (val1 != 0)
 2038              		.loc 1 619 0
 2039 0028 002D     		cmp	r5, #0
 2040 002a 09D0     		beq	.L93
 620:.\w5100.c     **** 		{
 621:.\w5100.c     ****    			val = IINCHIP_READ(Sn_TX_FSR0(s));
 2041              		.loc 1 621 0
 2042 002c 301C     		mov	r0, r6
 2043 002e FFF7FEFF 		bl	IINCHIP_READ
 2044              	.LVL225:
 622:.\w5100.c     ****    			val = (val << 8) + IINCHIP_READ(Sn_TX_FSR0(s) + 1);
ARM GAS  C:\Users\atsu\AppData\Local\Temp\cc7os1vl.s 			page 49


 2045              		.loc 1 622 0
 2046 0032 0402     		lsl	r4, r0, #8
 2047 0034 381C     		mov	r0, r7
 2048              	.LVL226:
 2049 0036 FFF7FEFF 		bl	IINCHIP_READ
 2050              	.LVL227:
 2051 003a A4B2     		uxth	r4, r4
 2052 003c 2318     		add	r3, r4, r0
 2053 003e 9CB2     		uxth	r4, r3
 2054              	.LVL228:
 2055              	.L93:
 623:.\w5100.c     **** 		}
 624:.\w5100.c     **** 	} while (val != val1);
 2056              		.loc 1 624 0
 2057 0040 AC42     		cmp	r4, r5
 2058 0042 E7D1     		bne	.L94
 625:.\w5100.c     ****    return val;
 626:.\w5100.c     **** }
 2059              		.loc 1 626 0
 2060 0044 201C     		mov	r0, r4
 2061              		@ sp needed for prologue
 2062              	.LVL229:
 2063              	.LVL230:
 2064 0046 F8BD     		pop	{r3, r4, r5, r6, r7, pc}
 2065              		.cfi_endproc
 2066              	.LFE73:
 2067              		.size	getSn_TX_FSR, .-getSn_TX_FSR
 2068              		.section	.text.getSn_RX_RSR,"ax",%progbits
 2069              		.align	1
 2070              		.global	getSn_RX_RSR
 2071              		.code	16
 2072              		.thumb_func
 2073              		.type	getSn_RX_RSR, %function
 2074              	getSn_RX_RSR:
 2075              	.LFB74:
 627:.\w5100.c     **** 
 628:.\w5100.c     **** 
 629:.\w5100.c     **** /**
 630:.\w5100.c     **** @brief	 get socket RX recv buf size
 631:.\w5100.c     **** 
 632:.\w5100.c     **** This gives size of received data in receive buffer. 
 633:.\w5100.c     **** */
 634:.\w5100.c     **** uint16 getSn_RX_RSR(SOCKET s)
 635:.\w5100.c     **** {
 2076              		.loc 1 635 0
 2077              		.cfi_startproc
 2078              	.LVL231:
 2079 0000 F8B5     		push	{r3, r4, r5, r6, r7, lr}
 2080              	.LCFI34:
 2081              		.cfi_def_cfa_offset 24
 2082              		.cfi_offset 3, -24
 2083              		.cfi_offset 4, -20
 2084              		.cfi_offset 5, -16
 2085              		.cfi_offset 6, -12
 2086              		.cfi_offset 7, -8
 2087              		.cfi_offset 14, -4
 636:.\w5100.c     **** 	uint16 val=0,val1=0;
ARM GAS  C:\Users\atsu\AppData\Local\Temp\cc7os1vl.s 			page 50


 637:.\w5100.c     **** 	do
 638:.\w5100.c     **** 	{
 639:.\w5100.c     **** 		val1 = IINCHIP_READ(Sn_RX_RSR0(s));
 2088              		.loc 1 639 0
 2089 0002 071D     		add	r7, r0, #4
 2090 0004 3802     		lsl	r0, r7, #8
 2091              	.LVL232:
 2092 0006 81B2     		uxth	r1, r0
 2093 0008 0E1C     		mov	r6, r1
 2094 000a 2636     		add	r6, r6, #38
 640:.\w5100.c     **** 		val1 = (val1 << 8) + IINCHIP_READ(Sn_RX_RSR0(s) + 1);
 2095              		.loc 1 640 0
 2096 000c 2731     		add	r1, r1, #39
 639:.\w5100.c     **** 		val1 = IINCHIP_READ(Sn_RX_RSR0(s));
 2097              		.loc 1 639 0
 2098 000e B6B2     		uxth	r6, r6
 2099              		.loc 1 640 0
 2100 0010 8FB2     		uxth	r7, r1
 636:.\w5100.c     **** 	uint16 val=0,val1=0;
 2101              		.loc 1 636 0
 2102 0012 0024     		mov	r4, #0
 2103              	.LVL233:
 2104              	.L101:
 639:.\w5100.c     **** 		val1 = IINCHIP_READ(Sn_RX_RSR0(s));
 2105              		.loc 1 639 0
 2106 0014 301C     		mov	r0, r6
 2107 0016 FFF7FEFF 		bl	IINCHIP_READ
 2108              	.LVL234:
 2109              		.loc 1 640 0
 2110 001a 0502     		lsl	r5, r0, #8
 2111 001c 381C     		mov	r0, r7
 2112              	.LVL235:
 2113 001e FFF7FEFF 		bl	IINCHIP_READ
 2114              	.LVL236:
 2115 0022 ADB2     		uxth	r5, r5
 2116 0024 2A18     		add	r2, r5, r0
 2117 0026 95B2     		uxth	r5, r2
 2118              	.LVL237:
 641:.\w5100.c     ****       if(val1 != 0)
 2119              		.loc 1 641 0
 2120 0028 002D     		cmp	r5, #0
 2121 002a 09D0     		beq	.L100
 642:.\w5100.c     **** 		{
 643:.\w5100.c     ****    			val = IINCHIP_READ(Sn_RX_RSR0(s));
 2122              		.loc 1 643 0
 2123 002c 301C     		mov	r0, r6
 2124 002e FFF7FEFF 		bl	IINCHIP_READ
 2125              	.LVL238:
 644:.\w5100.c     ****    			val = (val << 8) + IINCHIP_READ(Sn_RX_RSR0(s) + 1);
 2126              		.loc 1 644 0
 2127 0032 0402     		lsl	r4, r0, #8
 2128 0034 381C     		mov	r0, r7
 2129              	.LVL239:
 2130 0036 FFF7FEFF 		bl	IINCHIP_READ
 2131              	.LVL240:
 2132 003a A4B2     		uxth	r4, r4
 2133 003c 2318     		add	r3, r4, r0
ARM GAS  C:\Users\atsu\AppData\Local\Temp\cc7os1vl.s 			page 51


 2134 003e 9CB2     		uxth	r4, r3
 2135              	.LVL241:
 2136              	.L100:
 645:.\w5100.c     **** 		}
 646:.\w5100.c     **** 	} while (val != val1);
 2137              		.loc 1 646 0
 2138 0040 AC42     		cmp	r4, r5
 2139 0042 E7D1     		bne	.L101
 647:.\w5100.c     ****    return val;
 648:.\w5100.c     **** }
 2140              		.loc 1 648 0
 2141 0044 201C     		mov	r0, r4
 2142              		@ sp needed for prologue
 2143              	.LVL242:
 2144              	.LVL243:
 2145 0046 F8BD     		pop	{r3, r4, r5, r6, r7, pc}
 2146              		.cfi_endproc
 2147              	.LFE74:
 2148              		.size	getSn_RX_RSR, .-getSn_RX_RSR
 2149              		.section	.text.write_data,"ax",%progbits
 2150              		.align	1
 2151              		.global	write_data
 2152              		.code	16
 2153              		.thumb_func
 2154              		.type	write_data, %function
 2155              	write_data:
 2156              	.LFB77:
 649:.\w5100.c     **** 
 650:.\w5100.c     **** 
 651:.\w5100.c     **** /**
 652:.\w5100.c     **** @brief	 This function is being called by send() and sendto() function also. 
 653:.\w5100.c     **** 
 654:.\w5100.c     **** This function read the Tx write pointer register and after copy the data in buffer update the Tx wr
 655:.\w5100.c     **** register. User should read upper uint8 first and lower uint8 later to get proper value.
 656:.\w5100.c     **** */
 657:.\w5100.c     **** void send_data_processing(SOCKET s, uint8 *data, uint16 len)
 658:.\w5100.c     **** {
 659:.\w5100.c     **** 	uint16 ptr;
 660:.\w5100.c     **** 	ptr = IINCHIP_READ(Sn_TX_WR0(s));
 661:.\w5100.c     **** 	ptr = ((ptr & 0x00ff) << 8) + IINCHIP_READ(Sn_TX_WR0(s) + 1);
 662:.\w5100.c     **** 	write_data(s, data, (uint8 *)(ptr), len);
 663:.\w5100.c     **** 	ptr += len;
 664:.\w5100.c     **** 	IINCHIP_WRITE(Sn_TX_WR0(s),(uint8)((ptr & 0xff00) >> 8));
 665:.\w5100.c     **** 	IINCHIP_WRITE((Sn_TX_WR0(s) + 1),(uint8)(ptr & 0x00ff));
 666:.\w5100.c     **** }
 667:.\w5100.c     **** 
 668:.\w5100.c     **** 
 669:.\w5100.c     **** /**
 670:.\w5100.c     **** @brief	This function is being called by recv() also.
 671:.\w5100.c     **** 
 672:.\w5100.c     **** This function read the Rx read pointer register
 673:.\w5100.c     **** and after copy the data from receive buffer update the Rx write pointer register.
 674:.\w5100.c     **** User should read upper uint8 first and lower uint8 later to get proper value.
 675:.\w5100.c     **** */
 676:.\w5100.c     **** void recv_data_processing(SOCKET s, uint8 *data, uint16 len)
 677:.\w5100.c     **** {
 678:.\w5100.c     **** 	uint16 ptr;
ARM GAS  C:\Users\atsu\AppData\Local\Temp\cc7os1vl.s 			page 52


 679:.\w5100.c     **** 	ptr = IINCHIP_READ(Sn_RX_RD0(s));
 680:.\w5100.c     **** 	ptr = ((ptr & 0x00ff) << 8) + IINCHIP_READ(Sn_RX_RD0(s) + 1);
 681:.\w5100.c     **** #ifdef __DEF_IINCHIP_DBG__
 682:.\w5100.c     **** 	printf("ISR_RX: rd_ptr : %.4x\r\n", ptr);
 683:.\w5100.c     **** #endif
 684:.\w5100.c     **** 	read_data(s, (uint8 *)ptr, data, len); // read data
 685:.\w5100.c     **** 	ptr += len;
 686:.\w5100.c     **** 	IINCHIP_WRITE(Sn_RX_RD0(s),(uint8)((ptr & 0xff00) >> 8));
 687:.\w5100.c     **** 	IINCHIP_WRITE((Sn_RX_RD0(s) + 1),(uint8)(ptr & 0x00ff));
 688:.\w5100.c     **** }
 689:.\w5100.c     **** 
 690:.\w5100.c     **** 
 691:.\w5100.c     **** /**
 692:.\w5100.c     **** @brief	for copy the data form application buffer to Transmite buffer of the chip.
 693:.\w5100.c     **** 
 694:.\w5100.c     **** This function is being used for copy the data form application buffer to Transmite
 695:.\w5100.c     **** buffer of the chip. It calculate the actual physical address where one has to write
 696:.\w5100.c     **** the data in transmite buffer. Here also take care of the condition while it exceed
 697:.\w5100.c     **** the Tx memory uper-bound of socket.
 698:.\w5100.c     **** */
 699:.\w5100.c     **** void write_data(SOCKET s, vuint8 * src, vuint8 * dst, uint16 len)
 700:.\w5100.c     **** {
 2157              		.loc 1 700 0
 2158              		.cfi_startproc
 2159              	.LVL244:
 2160 0000 F8B5     		push	{r3, r4, r5, r6, r7, lr}
 2161              	.LCFI35:
 2162              		.cfi_def_cfa_offset 24
 2163              		.cfi_offset 3, -24
 2164              		.cfi_offset 4, -20
 2165              		.cfi_offset 5, -16
 2166              		.cfi_offset 6, -12
 2167              		.cfi_offset 7, -8
 2168              		.cfi_offset 14, -4
 2169              	.LBB30:
 2170              	.LBB31:
  88:.\w5100.c     ****    return SMASK[s];
 2171              		.loc 1 88 0
 2172 0002 0F4C     		ldr	r4, .L110
 2173 0004 4000     		lsl	r0, r0, #1
 2174              	.LVL245:
 2175 0006 2418     		add	r4, r4, r0
 2176              	.LBE31:
 2177              	.LBE30:
 701:.\w5100.c     **** 	uint16 size;
 702:.\w5100.c     **** 	uint16 dst_mask;
 703:.\w5100.c     **** 	uint8 * dst_ptr;
 704:.\w5100.c     **** 
 705:.\w5100.c     **** 	dst_mask = (uint16)dst & getIINCHIP_TxMASK(s);
 2178              		.loc 1 705 0
 2179 0008 A78B     		ldrh	r7, [r4, #28]
 700:.\w5100.c     **** {
 2180              		.loc 1 700 0
 2181 000a 0E1C     		mov	r6, r1
 706:.\w5100.c     **** 	dst_ptr = (uint8 *)(getIINCHIP_TxBASE(s) + dst_mask);
 2182              		.loc 1 706 0
 2183 000c A18D     		ldrh	r1, [r4, #44]
ARM GAS  C:\Users\atsu\AppData\Local\Temp\cc7os1vl.s 			page 53


 2184              	.LVL246:
 705:.\w5100.c     **** 	dst_mask = (uint16)dst & getIINCHIP_TxMASK(s);
 2185              		.loc 1 705 0
 2186 000e 3A40     		and	r2, r7
 2187              	.LVL247:
 2188              	.LBB32:
 2189              	.LBB33:
  80:.\w5100.c     ****    return SSIZE[s];
 2190              		.loc 1 80 0
 2191 0010 A789     		ldrh	r7, [r4, #12]
 2192              	.LBE33:
 2193              	.LBE32:
 700:.\w5100.c     **** {
 2194              		.loc 1 700 0
 2195 0012 1D1C     		mov	r5, r3
 2196              		.loc 1 706 0
 2197 0014 8818     		add	r0, r1, r2
 2198              	.LVL248:
 707:.\w5100.c     **** 	
 708:.\w5100.c     **** 	if (dst_mask + len > getIINCHIP_TxMAX(s)) 
 2199              		.loc 1 708 0
 2200 0016 D318     		add	r3, r2, r3
 2201              	.LVL249:
 2202 0018 80B2     		uxth	r0, r0
 2203              	.LVL250:
 2204 001a BB42     		cmp	r3, r7
 2205 001c 0ADD     		ble	.L107
 709:.\w5100.c     **** 	{
 710:.\w5100.c     **** 		size = getIINCHIP_TxMAX(s) - dst_mask;
 2206              		.loc 1 710 0
 2207 001e BA1A     		sub	r2, r7, r2
 2208              	.LVL251:
 2209 0020 97B2     		uxth	r7, r2
 2210              	.LVL252:
 711:.\w5100.c     **** 		wiz_write_buf((uint16)dst_ptr, (uint8*)src, size);
 2211              		.loc 1 711 0
 2212 0022 311C     		mov	r1, r6
 2213              	.LVL253:
 2214 0024 3A1C     		mov	r2, r7
 2215 0026 FFF7FEFF 		bl	wiz_write_buf
 2216              	.LVL254:
 712:.\w5100.c     **** 		src += size;
 2217              		.loc 1 712 0
 2218 002a F119     		add	r1, r6, r7
 713:.\w5100.c     **** 		size = len - size;
 2219              		.loc 1 713 0
 2220 002c EE1B     		sub	r6, r5, r7
 2221              	.LVL255:
 714:.\w5100.c     **** 		dst_ptr = (uint8 *)(getIINCHIP_TxBASE(s));
 715:.\w5100.c     **** 		wiz_write_buf((uint16)dst_ptr, (uint8*)src, size);
 2222              		.loc 1 715 0
 2223 002e A08D     		ldrh	r0, [r4, #44]
 2224 0030 B2B2     		uxth	r2, r6
 2225 0032 01E0     		b	.L109
 2226              	.LVL256:
 2227              	.L107:
 716:.\w5100.c     **** 	} 
ARM GAS  C:\Users\atsu\AppData\Local\Temp\cc7os1vl.s 			page 54


 717:.\w5100.c     **** 	else
 718:.\w5100.c     **** 	{
 719:.\w5100.c     **** 		wiz_write_buf((uint16)dst_ptr, (uint8*)src, len);
 2228              		.loc 1 719 0
 2229 0034 311C     		mov	r1, r6
 2230              	.LVL257:
 2231 0036 2A1C     		mov	r2, r5
 2232              	.LVL258:
 2233              	.L109:
 2234 0038 FFF7FEFF 		bl	wiz_write_buf
 2235              	.LVL259:
 720:.\w5100.c     **** 	}
 721:.\w5100.c     **** }
 2236              		.loc 1 721 0
 2237              		@ sp needed for prologue
 2238 003c F8BD     		pop	{r3, r4, r5, r6, r7, pc}
 2239              	.L111:
 2240 003e C046     		.align	2
 2241              	.L110:
 2242 0040 00000000 		.word	.LANCHOR0
 2243              		.cfi_endproc
 2244              	.LFE77:
 2245              		.size	write_data, .-write_data
 2246              		.section	.text.send_data_processing,"ax",%progbits
 2247              		.align	1
 2248              		.global	send_data_processing
 2249              		.code	16
 2250              		.thumb_func
 2251              		.type	send_data_processing, %function
 2252              	send_data_processing:
 2253              	.LFB75:
 658:.\w5100.c     **** {
 2254              		.loc 1 658 0
 2255              		.cfi_startproc
 2256              	.LVL260:
 2257 0000 F7B5     		push	{r0, r1, r2, r4, r5, r6, r7, lr}
 2258              	.LCFI36:
 2259              		.cfi_def_cfa_offset 32
 2260              		.cfi_offset 0, -32
 2261              		.cfi_offset 1, -28
 2262              		.cfi_offset 2, -24
 2263              		.cfi_offset 4, -20
 2264              		.cfi_offset 5, -16
 2265              		.cfi_offset 6, -12
 2266              		.cfi_offset 7, -8
 2267              		.cfi_offset 14, -4
 660:.\w5100.c     **** 	ptr = IINCHIP_READ(Sn_TX_WR0(s));
 2268              		.loc 1 660 0
 2269 0002 041D     		add	r4, r0, #4
 658:.\w5100.c     **** {
 2270              		.loc 1 658 0
 2271 0004 071C     		mov	r7, r0
 660:.\w5100.c     **** 	ptr = IINCHIP_READ(Sn_TX_WR0(s));
 2272              		.loc 1 660 0
 2273 0006 2002     		lsl	r0, r4, #8
 2274              	.LVL261:
 2275 0008 84B2     		uxth	r4, r0
ARM GAS  C:\Users\atsu\AppData\Local\Temp\cc7os1vl.s 			page 55


 2276 000a 251C     		mov	r5, r4
 2277 000c 2435     		add	r5, r5, #36
 2278 000e ADB2     		uxth	r5, r5
 2279 0010 281C     		mov	r0, r5
 658:.\w5100.c     **** {
 2280              		.loc 1 658 0
 2281 0012 0191     		str	r1, [sp, #4]
 2282 0014 0092     		str	r2, [sp]
 660:.\w5100.c     **** 	ptr = IINCHIP_READ(Sn_TX_WR0(s));
 2283              		.loc 1 660 0
 2284 0016 FFF7FEFF 		bl	IINCHIP_READ
 2285              	.LVL262:
 661:.\w5100.c     **** 	ptr = ((ptr & 0x00ff) << 8) + IINCHIP_READ(Sn_TX_WR0(s) + 1);
 2286              		.loc 1 661 0
 2287 001a 2534     		add	r4, r4, #37
 2288 001c A4B2     		uxth	r4, r4
 660:.\w5100.c     **** 	ptr = IINCHIP_READ(Sn_TX_WR0(s));
 2289              		.loc 1 660 0
 2290 001e 061C     		mov	r6, r0
 2291              	.LVL263:
 661:.\w5100.c     **** 	ptr = ((ptr & 0x00ff) << 8) + IINCHIP_READ(Sn_TX_WR0(s) + 1);
 2292              		.loc 1 661 0
 2293 0020 201C     		mov	r0, r4
 2294              	.LVL264:
 2295 0022 FFF7FEFF 		bl	IINCHIP_READ
 2296              	.LVL265:
 2297 0026 3102     		lsl	r1, r6, #8
 2298 0028 4218     		add	r2, r0, r1
 2299 002a 96B2     		uxth	r6, r2
 2300              	.LVL266:
 662:.\w5100.c     **** 	write_data(s, data, (uint8 *)(ptr), len);
 2301              		.loc 1 662 0
 2302 002c 321C     		mov	r2, r6
 2303 002e 381C     		mov	r0, r7
 2304 0030 0199     		ldr	r1, [sp, #4]
 2305 0032 009B     		ldr	r3, [sp]
 2306 0034 FFF7FEFF 		bl	write_data
 2307              	.LVL267:
 663:.\w5100.c     **** 	ptr += len;
 2308              		.loc 1 663 0
 2309 0038 009B     		ldr	r3, [sp]
 664:.\w5100.c     **** 	IINCHIP_WRITE(Sn_TX_WR0(s),(uint8)((ptr & 0xff00) >> 8));
 2310              		.loc 1 664 0
 2311 003a 281C     		mov	r0, r5
 663:.\w5100.c     **** 	ptr += len;
 2312              		.loc 1 663 0
 2313 003c F718     		add	r7, r6, r3
 2314 003e BEB2     		uxth	r6, r7
 2315              	.LVL268:
 664:.\w5100.c     **** 	IINCHIP_WRITE(Sn_TX_WR0(s),(uint8)((ptr & 0xff00) >> 8));
 2316              		.loc 1 664 0
 2317 0040 310A     		lsr	r1, r6, #8
 2318 0042 FFF7FEFF 		bl	IINCHIP_WRITE
 2319              	.LVL269:
 665:.\w5100.c     **** 	IINCHIP_WRITE((Sn_TX_WR0(s) + 1),(uint8)(ptr & 0x00ff));
 2320              		.loc 1 665 0
 2321 0046 F1B2     		uxtb	r1, r6
ARM GAS  C:\Users\atsu\AppData\Local\Temp\cc7os1vl.s 			page 56


 2322 0048 201C     		mov	r0, r4
 2323 004a FFF7FEFF 		bl	IINCHIP_WRITE
 2324              	.LVL270:
 666:.\w5100.c     **** }
 2325              		.loc 1 666 0
 2326              		@ sp needed for prologue
 2327              	.LVL271:
 2328 004e F7BD     		pop	{r0, r1, r2, r4, r5, r6, r7, pc}
 2329              		.cfi_endproc
 2330              	.LFE75:
 2331              		.size	send_data_processing, .-send_data_processing
 2332              		.section	.text.read_data,"ax",%progbits
 2333              		.align	1
 2334              		.global	read_data
 2335              		.code	16
 2336              		.thumb_func
 2337              		.type	read_data, %function
 2338              	read_data:
 2339              	.LFB78:
 722:.\w5100.c     **** 
 723:.\w5100.c     **** 
 724:.\w5100.c     **** /**
 725:.\w5100.c     **** @brief	This function is being used for copy the data form Receive buffer of the chip to application
 726:.\w5100.c     **** 
 727:.\w5100.c     **** It calculate the actual physical address where one has to read
 728:.\w5100.c     **** the data from Receive buffer. Here also take care of the condition while it exceed
 729:.\w5100.c     **** the Rx memory uper-bound of socket.
 730:.\w5100.c     **** */
 731:.\w5100.c     **** void read_data(SOCKET s, vuint8 * src, vuint8 * dst, uint16 len)
 732:.\w5100.c     **** {
 2340              		.loc 1 732 0
 2341              		.cfi_startproc
 2342              	.LVL272:
 2343 0000 F8B5     		push	{r3, r4, r5, r6, r7, lr}
 2344              	.LCFI37:
 2345              		.cfi_def_cfa_offset 24
 2346              		.cfi_offset 3, -24
 2347              		.cfi_offset 4, -20
 2348              		.cfi_offset 5, -16
 2349              		.cfi_offset 6, -12
 2350              		.cfi_offset 7, -8
 2351              		.cfi_offset 14, -4
 2352              	.LBB34:
 2353              	.LBB35:
  84:.\w5100.c     ****    return RMASK[s];
 2354              		.loc 1 84 0
 2355 0002 0F4C     		ldr	r4, .L117
 2356 0004 4000     		lsl	r0, r0, #1
 2357              	.LVL273:
 2358 0006 2418     		add	r4, r4, r0
 2359              	.LBE35:
 2360              	.LBE34:
 733:.\w5100.c     **** 	uint16 size;
 734:.\w5100.c     **** 	uint16 src_mask;
 735:.\w5100.c     **** 	uint8 * src_ptr;
 736:.\w5100.c     **** 
 737:.\w5100.c     **** 	src_mask = (uint16)src & getIINCHIP_RxMASK(s);
ARM GAS  C:\Users\atsu\AppData\Local\Temp\cc7os1vl.s 			page 57


 2361              		.loc 1 737 0
 2362 0008 A78A     		ldrh	r7, [r4, #20]
 732:.\w5100.c     **** {
 2363              		.loc 1 732 0
 2364 000a 161C     		mov	r6, r2
 738:.\w5100.c     **** 	src_ptr = (uint8 *)(getIINCHIP_RxBASE(s) + src_mask);
 2365              		.loc 1 738 0
 2366 000c A28C     		ldrh	r2, [r4, #36]
 2367              	.LVL274:
 737:.\w5100.c     **** 	src_mask = (uint16)src & getIINCHIP_RxMASK(s);
 2368              		.loc 1 737 0
 2369 000e 3940     		and	r1, r7
 2370              	.LVL275:
 2371              	.LBB36:
 2372              	.LBB37:
  76:.\w5100.c     ****    return RSIZE[s];
 2373              		.loc 1 76 0
 2374 0010 A788     		ldrh	r7, [r4, #4]
 2375              	.LBE37:
 2376              	.LBE36:
 732:.\w5100.c     **** {
 2377              		.loc 1 732 0
 2378 0012 1D1C     		mov	r5, r3
 2379              		.loc 1 738 0
 2380 0014 5018     		add	r0, r2, r1
 2381              	.LVL276:
 739:.\w5100.c     **** 	
 740:.\w5100.c     **** 	if( (src_mask + len) > getIINCHIP_RxMAX(s) ) 
 2382              		.loc 1 740 0
 2383 0016 CB18     		add	r3, r1, r3
 2384              	.LVL277:
 2385 0018 80B2     		uxth	r0, r0
 2386              	.LVL278:
 2387 001a BB42     		cmp	r3, r7
 2388 001c 0ADD     		ble	.L114
 741:.\w5100.c     **** 	{
 742:.\w5100.c     **** 		size = getIINCHIP_RxMAX(s) - src_mask;
 2389              		.loc 1 742 0
 2390 001e 791A     		sub	r1, r7, r1
 2391              	.LVL279:
 2392 0020 8FB2     		uxth	r7, r1
 2393              	.LVL280:
 743:.\w5100.c     **** 		wiz_read_buf((uint16)src_ptr, (uint8*)dst,size);
 2394              		.loc 1 743 0
 2395 0022 3A1C     		mov	r2, r7
 2396              	.LVL281:
 2397 0024 311C     		mov	r1, r6
 2398              	.LVL282:
 2399 0026 FFF7FEFF 		bl	wiz_read_buf
 2400              	.LVL283:
 744:.\w5100.c     **** 		dst += size;
 2401              		.loc 1 744 0
 2402 002a F119     		add	r1, r6, r7
 745:.\w5100.c     **** 		size = len - size;
 2403              		.loc 1 745 0
 2404 002c EE1B     		sub	r6, r5, r7
 2405              	.LVL284:
ARM GAS  C:\Users\atsu\AppData\Local\Temp\cc7os1vl.s 			page 58


 746:.\w5100.c     **** 		src_ptr = (uint8 *)(getIINCHIP_RxBASE(s));
 747:.\w5100.c     **** 		wiz_read_buf((uint16)src_ptr, (uint8*) dst,size);
 2406              		.loc 1 747 0
 2407 002e A08C     		ldrh	r0, [r4, #36]
 2408 0030 B2B2     		uxth	r2, r6
 2409 0032 01E0     		b	.L116
 2410              	.LVL285:
 2411              	.L114:
 748:.\w5100.c     **** 	} 
 749:.\w5100.c     **** 	else
 750:.\w5100.c     **** 	{
 751:.\w5100.c     **** 		wiz_read_buf((uint16)src_ptr, (uint8*) dst,len);
 2412              		.loc 1 751 0
 2413 0034 311C     		mov	r1, r6
 2414              	.LVL286:
 2415 0036 2A1C     		mov	r2, r5
 2416              	.LVL287:
 2417              	.L116:
 2418 0038 FFF7FEFF 		bl	wiz_read_buf
 2419              	.LVL288:
 752:.\w5100.c     **** 	}
 753:.\w5100.c     **** }
 2420              		.loc 1 753 0
 2421              		@ sp needed for prologue
 2422 003c F8BD     		pop	{r3, r4, r5, r6, r7, pc}
 2423              	.L118:
 2424 003e C046     		.align	2
 2425              	.L117:
 2426 0040 00000000 		.word	.LANCHOR0
 2427              		.cfi_endproc
 2428              	.LFE78:
 2429              		.size	read_data, .-read_data
 2430              		.section	.text.recv_data_processing,"ax",%progbits
 2431              		.align	1
 2432              		.global	recv_data_processing
 2433              		.code	16
 2434              		.thumb_func
 2435              		.type	recv_data_processing, %function
 2436              	recv_data_processing:
 2437              	.LFB76:
 677:.\w5100.c     **** {
 2438              		.loc 1 677 0
 2439              		.cfi_startproc
 2440              	.LVL289:
 2441 0000 F7B5     		push	{r0, r1, r2, r4, r5, r6, r7, lr}
 2442              	.LCFI38:
 2443              		.cfi_def_cfa_offset 32
 2444              		.cfi_offset 0, -32
 2445              		.cfi_offset 1, -28
 2446              		.cfi_offset 2, -24
 2447              		.cfi_offset 4, -20
 2448              		.cfi_offset 5, -16
 2449              		.cfi_offset 6, -12
 2450              		.cfi_offset 7, -8
 2451              		.cfi_offset 14, -4
 679:.\w5100.c     **** 	ptr = IINCHIP_READ(Sn_RX_RD0(s));
 2452              		.loc 1 679 0
ARM GAS  C:\Users\atsu\AppData\Local\Temp\cc7os1vl.s 			page 59


 2453 0002 041D     		add	r4, r0, #4
 677:.\w5100.c     **** {
 2454              		.loc 1 677 0
 2455 0004 071C     		mov	r7, r0
 679:.\w5100.c     **** 	ptr = IINCHIP_READ(Sn_RX_RD0(s));
 2456              		.loc 1 679 0
 2457 0006 2002     		lsl	r0, r4, #8
 2458              	.LVL290:
 2459 0008 84B2     		uxth	r4, r0
 2460 000a 251C     		mov	r5, r4
 2461 000c 2835     		add	r5, r5, #40
 2462 000e ADB2     		uxth	r5, r5
 2463 0010 281C     		mov	r0, r5
 677:.\w5100.c     **** {
 2464              		.loc 1 677 0
 2465 0012 0191     		str	r1, [sp, #4]
 2466 0014 0092     		str	r2, [sp]
 679:.\w5100.c     **** 	ptr = IINCHIP_READ(Sn_RX_RD0(s));
 2467              		.loc 1 679 0
 2468 0016 FFF7FEFF 		bl	IINCHIP_READ
 2469              	.LVL291:
 680:.\w5100.c     **** 	ptr = ((ptr & 0x00ff) << 8) + IINCHIP_READ(Sn_RX_RD0(s) + 1);
 2470              		.loc 1 680 0
 2471 001a 2934     		add	r4, r4, #41
 2472 001c A4B2     		uxth	r4, r4
 679:.\w5100.c     **** 	ptr = IINCHIP_READ(Sn_RX_RD0(s));
 2473              		.loc 1 679 0
 2474 001e 061C     		mov	r6, r0
 2475              	.LVL292:
 680:.\w5100.c     **** 	ptr = ((ptr & 0x00ff) << 8) + IINCHIP_READ(Sn_RX_RD0(s) + 1);
 2476              		.loc 1 680 0
 2477 0020 201C     		mov	r0, r4
 2478              	.LVL293:
 2479 0022 FFF7FEFF 		bl	IINCHIP_READ
 2480              	.LVL294:
 2481 0026 3102     		lsl	r1, r6, #8
 2482 0028 4218     		add	r2, r0, r1
 2483 002a 96B2     		uxth	r6, r2
 2484              	.LVL295:
 684:.\w5100.c     **** 	read_data(s, (uint8 *)ptr, data, len); // read data
 2485              		.loc 1 684 0
 2486 002c 381C     		mov	r0, r7
 2487 002e 019A     		ldr	r2, [sp, #4]
 2488              	.LVL296:
 2489 0030 311C     		mov	r1, r6
 2490 0032 009B     		ldr	r3, [sp]
 2491 0034 FFF7FEFF 		bl	read_data
 2492              	.LVL297:
 685:.\w5100.c     **** 	ptr += len;
 2493              		.loc 1 685 0
 2494 0038 009B     		ldr	r3, [sp]
 686:.\w5100.c     **** 	IINCHIP_WRITE(Sn_RX_RD0(s),(uint8)((ptr & 0xff00) >> 8));
 2495              		.loc 1 686 0
 2496 003a 281C     		mov	r0, r5
 685:.\w5100.c     **** 	ptr += len;
 2497              		.loc 1 685 0
 2498 003c F718     		add	r7, r6, r3
ARM GAS  C:\Users\atsu\AppData\Local\Temp\cc7os1vl.s 			page 60


 2499 003e BEB2     		uxth	r6, r7
 2500              	.LVL298:
 686:.\w5100.c     **** 	IINCHIP_WRITE(Sn_RX_RD0(s),(uint8)((ptr & 0xff00) >> 8));
 2501              		.loc 1 686 0
 2502 0040 310A     		lsr	r1, r6, #8
 2503 0042 FFF7FEFF 		bl	IINCHIP_WRITE
 2504              	.LVL299:
 687:.\w5100.c     **** 	IINCHIP_WRITE((Sn_RX_RD0(s) + 1),(uint8)(ptr & 0x00ff));
 2505              		.loc 1 687 0
 2506 0046 F1B2     		uxtb	r1, r6
 2507 0048 201C     		mov	r0, r4
 2508 004a FFF7FEFF 		bl	IINCHIP_WRITE
 2509              	.LVL300:
 688:.\w5100.c     **** }
 2510              		.loc 1 688 0
 2511              		@ sp needed for prologue
 2512              	.LVL301:
 2513 004e F7BD     		pop	{r0, r1, r2, r4, r5, r6, r7, pc}
 2514              		.cfi_endproc
 2515              	.LFE76:
 2516              		.size	recv_data_processing, .-recv_data_processing
 2517              		.bss
 2518              		.align	1
 2519              		.set	.LANCHOR0,. + 0
 2520              		.type	I_STATUS, %object
 2521              		.size	I_STATUS, 4
 2522              	I_STATUS:
 2523 0000 00000000 		.space	4
 2524              		.type	RSIZE, %object
 2525              		.size	RSIZE, 8
 2526              	RSIZE:
 2527 0004 00000000 		.space	8
 2527      00000000 
 2528              		.type	SSIZE, %object
 2529              		.size	SSIZE, 8
 2530              	SSIZE:
 2531 000c 00000000 		.space	8
 2531      00000000 
 2532              		.type	RMASK, %object
 2533              		.size	RMASK, 8
 2534              	RMASK:
 2535 0014 00000000 		.space	8
 2535      00000000 
 2536              		.type	SMASK, %object
 2537              		.size	SMASK, 8
 2538              	SMASK:
 2539 001c 00000000 		.space	8
 2539      00000000 
 2540              		.type	RBUFBASEADDRESS, %object
 2541              		.size	RBUFBASEADDRESS, 8
 2542              	RBUFBASEADDRESS:
 2543 0024 00000000 		.space	8
 2543      00000000 
 2544              		.type	SBUFBASEADDRESS, %object
 2545              		.size	SBUFBASEADDRESS, 8
 2546              	SBUFBASEADDRESS:
 2547 002c 00000000 		.space	8
ARM GAS  C:\Users\atsu\AppData\Local\Temp\cc7os1vl.s 			page 61


 2547      00000000 
 2548              		.text
 2549              	.Letext0:
 2550              		.file 2 "./Generated_Source/PSoC4/cytypes.h"
 2551              		.file 3 ".\\types.h"
 2552              		.file 4 ".\\w5100.h"
 2553              		.file 5 ".\\device_depend.h"
 2554              		.section	.debug_info,"",%progbits
 2555              	.Ldebug_info0:
 2556 0000 69160000 		.4byte	0x1669
 2557 0004 0200     		.2byte	0x2
 2558 0006 00000000 		.4byte	.Ldebug_abbrev0
 2559 000a 04       		.byte	0x4
 2560 000b 01       		.uleb128 0x1
 2561 000c 63030000 		.4byte	.LASF94
 2562 0010 01       		.byte	0x1
 2563 0011 B1030000 		.4byte	.LASF95
 2564 0015 5E000000 		.4byte	.LASF96
 2565 0019 00000000 		.4byte	.Ldebug_ranges0+0
 2566 001d 00000000 		.4byte	0
 2567 0021 00000000 		.4byte	0
 2568 0025 00000000 		.4byte	.Ldebug_line0
 2569 0029 02       		.uleb128 0x2
 2570 002a 04       		.byte	0x4
 2571 002b 07       		.byte	0x7
 2572 002c 68020000 		.4byte	.LASF0
 2573 0030 02       		.uleb128 0x2
 2574 0031 01       		.byte	0x1
 2575 0032 06       		.byte	0x6
 2576 0033 36020000 		.4byte	.LASF1
 2577 0037 02       		.uleb128 0x2
 2578 0038 01       		.byte	0x1
 2579 0039 08       		.byte	0x8
 2580 003a DF010000 		.4byte	.LASF2
 2581 003e 02       		.uleb128 0x2
 2582 003f 02       		.byte	0x2
 2583 0040 05       		.byte	0x5
 2584 0041 3C000000 		.4byte	.LASF3
 2585 0045 02       		.uleb128 0x2
 2586 0046 02       		.byte	0x2
 2587 0047 07       		.byte	0x7
 2588 0048 AC020000 		.4byte	.LASF4
 2589 004c 03       		.uleb128 0x3
 2590 004d 04       		.byte	0x4
 2591 004e 05       		.byte	0x5
 2592 004f 696E7400 		.ascii	"int\000"
 2593 0053 02       		.uleb128 0x2
 2594 0054 08       		.byte	0x8
 2595 0055 05       		.byte	0x5
 2596 0056 7A010000 		.4byte	.LASF5
 2597 005a 02       		.uleb128 0x2
 2598 005b 08       		.byte	0x8
 2599 005c 07       		.byte	0x7
 2600 005d 42020000 		.4byte	.LASF6
 2601 0061 02       		.uleb128 0x2
 2602 0062 04       		.byte	0x4
 2603 0063 05       		.byte	0x5
ARM GAS  C:\Users\atsu\AppData\Local\Temp\cc7os1vl.s 			page 62


 2604 0064 9F010000 		.4byte	.LASF7
 2605 0068 02       		.uleb128 0x2
 2606 0069 04       		.byte	0x4
 2607 006a 07       		.byte	0x7
 2608 006b 46000000 		.4byte	.LASF8
 2609 006f 02       		.uleb128 0x2
 2610 0070 04       		.byte	0x4
 2611 0071 07       		.byte	0x7
 2612 0072 3D030000 		.4byte	.LASF9
 2613 0076 02       		.uleb128 0x2
 2614 0077 01       		.byte	0x1
 2615 0078 08       		.byte	0x8
 2616 0079 CB020000 		.4byte	.LASF10
 2617 007d 04       		.uleb128 0x4
 2618 007e 74010000 		.4byte	.LASF11
 2619 0082 02       		.byte	0x2
 2620 0083 5B       		.byte	0x5b
 2621 0084 37000000 		.4byte	0x37
 2622 0088 04       		.uleb128 0x4
 2623 0089 20030000 		.4byte	.LASF12
 2624 008d 02       		.byte	0x2
 2625 008e 5C       		.byte	0x5c
 2626 008f 45000000 		.4byte	0x45
 2627 0093 04       		.uleb128 0x4
 2628 0094 BF010000 		.4byte	.LASF13
 2629 0098 02       		.byte	0x2
 2630 0099 5E       		.byte	0x5e
 2631 009a 30000000 		.4byte	0x30
 2632 009e 04       		.uleb128 0x4
 2633 009f 3E010000 		.4byte	.LASF14
 2634 00a3 02       		.byte	0x2
 2635 00a4 5F       		.byte	0x5f
 2636 00a5 3E000000 		.4byte	0x3e
 2637 00a9 02       		.uleb128 0x2
 2638 00aa 04       		.byte	0x4
 2639 00ab 04       		.byte	0x4
 2640 00ac 6E010000 		.4byte	.LASF15
 2641 00b0 02       		.uleb128 0x2
 2642 00b1 08       		.byte	0x8
 2643 00b2 04       		.byte	0x4
 2644 00b3 5C030000 		.4byte	.LASF16
 2645 00b7 04       		.uleb128 0x4
 2646 00b8 04010000 		.4byte	.LASF17
 2647 00bc 03       		.byte	0x3
 2648 00bd 69       		.byte	0x69
 2649 00be C2000000 		.4byte	0xc2
 2650 00c2 05       		.uleb128 0x5
 2651 00c3 37000000 		.4byte	0x37
 2652 00c7 06       		.uleb128 0x6
 2653 00c8 7D000000 		.4byte	0x7d
 2654 00cc D7000000 		.4byte	0xd7
 2655 00d0 07       		.uleb128 0x7
 2656 00d1 68000000 		.4byte	0x68
 2657 00d5 03       		.byte	0x3
 2658 00d6 00       		.byte	0
 2659 00d7 04       		.uleb128 0x4
 2660 00d8 F7030000 		.4byte	.LASF18
ARM GAS  C:\Users\atsu\AppData\Local\Temp\cc7os1vl.s 			page 63


 2661 00dc 04       		.byte	0x4
 2662 00dd 11       		.byte	0x11
 2663 00de 7D000000 		.4byte	0x7d
 2664 00e2 08       		.uleb128 0x8
 2665 00e3 04       		.byte	0x4
 2666 00e4 7D000000 		.4byte	0x7d
 2667 00e8 09       		.uleb128 0x9
 2668 00e9 01       		.byte	0x1
 2669 00ea EE020000 		.4byte	.LASF19
 2670 00ee 01       		.byte	0x1
 2671 00ef 3D       		.byte	0x3d
 2672 00f0 01       		.byte	0x1
 2673 00f1 93000000 		.4byte	0x93
 2674 00f5 01       		.byte	0x1
 2675 00f6 06010000 		.4byte	0x106
 2676 00fa 0A       		.uleb128 0xa
 2677 00fb BB030000 		.4byte	.LASF21
 2678 00ff 01       		.byte	0x1
 2679 0100 3D       		.byte	0x3d
 2680 0101 93000000 		.4byte	0x93
 2681 0105 00       		.byte	0
 2682 0106 09       		.uleb128 0x9
 2683 0107 01       		.byte	0x1
 2684 0108 8D010000 		.4byte	.LASF20
 2685 010c 01       		.byte	0x1
 2686 010d 56       		.byte	0x56
 2687 010e 01       		.byte	0x1
 2688 010f 88000000 		.4byte	0x88
 2689 0113 01       		.byte	0x1
 2690 0114 22010000 		.4byte	0x122
 2691 0118 0B       		.uleb128 0xb
 2692 0119 7300     		.ascii	"s\000"
 2693 011b 01       		.byte	0x1
 2694 011c 56       		.byte	0x56
 2695 011d 7D000000 		.4byte	0x7d
 2696 0121 00       		.byte	0
 2697 0122 09       		.uleb128 0x9
 2698 0123 01       		.byte	0x1
 2699 0124 0F020000 		.4byte	.LASF22
 2700 0128 01       		.byte	0x1
 2701 0129 5E       		.byte	0x5e
 2702 012a 01       		.byte	0x1
 2703 012b 88000000 		.4byte	0x88
 2704 012f 01       		.byte	0x1
 2705 0130 3E010000 		.4byte	0x13e
 2706 0134 0B       		.uleb128 0xb
 2707 0135 7300     		.ascii	"s\000"
 2708 0137 01       		.byte	0x1
 2709 0138 5E       		.byte	0x5e
 2710 0139 7D000000 		.4byte	0x7d
 2711 013d 00       		.byte	0
 2712 013e 09       		.uleb128 0x9
 2713 013f 01       		.byte	0x1
 2714 0140 88020000 		.4byte	.LASF23
 2715 0144 01       		.byte	0x1
 2716 0145 4E       		.byte	0x4e
 2717 0146 01       		.byte	0x1
ARM GAS  C:\Users\atsu\AppData\Local\Temp\cc7os1vl.s 			page 64


 2718 0147 88000000 		.4byte	0x88
 2719 014b 01       		.byte	0x1
 2720 014c 5A010000 		.4byte	0x15a
 2721 0150 0B       		.uleb128 0xb
 2722 0151 7300     		.ascii	"s\000"
 2723 0153 01       		.byte	0x1
 2724 0154 4E       		.byte	0x4e
 2725 0155 7D000000 		.4byte	0x7d
 2726 0159 00       		.byte	0
 2727 015a 09       		.uleb128 0x9
 2728 015b 01       		.byte	0x1
 2729 015c A8010000 		.4byte	.LASF24
 2730 0160 01       		.byte	0x1
 2731 0161 52       		.byte	0x52
 2732 0162 01       		.byte	0x1
 2733 0163 88000000 		.4byte	0x88
 2734 0167 01       		.byte	0x1
 2735 0168 76010000 		.4byte	0x176
 2736 016c 0B       		.uleb128 0xb
 2737 016d 7300     		.ascii	"s\000"
 2738 016f 01       		.byte	0x1
 2739 0170 52       		.byte	0x52
 2740 0171 7D000000 		.4byte	0x7d
 2741 0175 00       		.byte	0
 2742 0176 09       		.uleb128 0x9
 2743 0177 01       		.byte	0x1
 2744 0178 18040000 		.4byte	.LASF25
 2745 017c 01       		.byte	0x1
 2746 017d 5A       		.byte	0x5a
 2747 017e 01       		.byte	0x1
 2748 017f 88000000 		.4byte	0x88
 2749 0183 01       		.byte	0x1
 2750 0184 92010000 		.4byte	0x192
 2751 0188 0B       		.uleb128 0xb
 2752 0189 7300     		.ascii	"s\000"
 2753 018b 01       		.byte	0x1
 2754 018c 5A       		.byte	0x5a
 2755 018d 7D000000 		.4byte	0x7d
 2756 0191 00       		.byte	0
 2757 0192 09       		.uleb128 0x9
 2758 0193 01       		.byte	0x1
 2759 0194 FB020000 		.4byte	.LASF26
 2760 0198 01       		.byte	0x1
 2761 0199 4A       		.byte	0x4a
 2762 019a 01       		.byte	0x1
 2763 019b 88000000 		.4byte	0x88
 2764 019f 01       		.byte	0x1
 2765 01a0 AE010000 		.4byte	0x1ae
 2766 01a4 0B       		.uleb128 0xb
 2767 01a5 7300     		.ascii	"s\000"
 2768 01a7 01       		.byte	0x1
 2769 01a8 4A       		.byte	0x4a
 2770 01a9 7D000000 		.4byte	0x7d
 2771 01ad 00       		.byte	0
 2772 01ae 0C       		.uleb128 0xc
 2773 01af E8000000 		.4byte	0xe8
 2774 01b3 00000000 		.4byte	.LFB33
ARM GAS  C:\Users\atsu\AppData\Local\Temp\cc7os1vl.s 			page 65


 2775 01b7 0C000000 		.4byte	.LFE33
 2776 01bb 00000000 		.4byte	.LLST0
 2777 01bf 01       		.byte	0x1
 2778 01c0 DF010000 		.4byte	0x1df
 2779 01c4 0D       		.uleb128 0xd
 2780 01c5 FA000000 		.4byte	0xfa
 2781 01c9 20000000 		.4byte	.LLST1
 2782 01cd 0E       		.uleb128 0xe
 2783 01ce 08000000 		.4byte	.LVL1
 2784 01d2 22160000 		.4byte	0x1622
 2785 01d6 0F       		.uleb128 0xf
 2786 01d7 01       		.byte	0x1
 2787 01d8 50       		.byte	0x50
 2788 01d9 03       		.byte	0x3
 2789 01da F3       		.byte	0xf3
 2790 01db 01       		.uleb128 0x1
 2791 01dc 50       		.byte	0x50
 2792 01dd 00       		.byte	0
 2793 01de 00       		.byte	0
 2794 01df 10       		.uleb128 0x10
 2795 01e0 01       		.byte	0x1
 2796 01e1 4F000000 		.4byte	.LASF27
 2797 01e5 01       		.byte	0x1
 2798 01e6 40       		.byte	0x40
 2799 01e7 01       		.byte	0x1
 2800 01e8 7D000000 		.4byte	0x7d
 2801 01ec 00000000 		.4byte	.LFB34
 2802 01f0 0C000000 		.4byte	.LFE34
 2803 01f4 02       		.byte	0x2
 2804 01f5 7D       		.byte	0x7d
 2805 01f6 00       		.sleb128 0
 2806 01f7 01       		.byte	0x1
 2807 01f8 0A020000 		.4byte	0x20a
 2808 01fc 11       		.uleb128 0x11
 2809 01fd 7300     		.ascii	"s\000"
 2810 01ff 01       		.byte	0x1
 2811 0200 40       		.byte	0x40
 2812 0201 7D000000 		.4byte	0x7d
 2813 0205 41000000 		.4byte	.LLST2
 2814 0209 00       		.byte	0
 2815 020a 12       		.uleb128 0x12
 2816 020b 01       		.byte	0x1
 2817 020c E7020000 		.4byte	.LASF34
 2818 0210 01       		.byte	0x1
 2819 0211 45       		.byte	0x45
 2820 0212 01       		.byte	0x1
 2821 0213 00000000 		.4byte	.LFB35
 2822 0217 0C000000 		.4byte	.LFE35
 2823 021b 02       		.byte	0x2
 2824 021c 7D       		.byte	0x7d
 2825 021d 00       		.sleb128 0
 2826 021e 01       		.byte	0x1
 2827 021f 3C020000 		.4byte	0x23c
 2828 0223 13       		.uleb128 0x13
 2829 0224 7300     		.ascii	"s\000"
 2830 0226 01       		.byte	0x1
 2831 0227 45       		.byte	0x45
ARM GAS  C:\Users\atsu\AppData\Local\Temp\cc7os1vl.s 			page 66


 2832 0228 7D000000 		.4byte	0x7d
 2833 022c 01       		.byte	0x1
 2834 022d 50       		.byte	0x50
 2835 022e 13       		.uleb128 0x13
 2836 022f 76616C00 		.ascii	"val\000"
 2837 0233 01       		.byte	0x1
 2838 0234 45       		.byte	0x45
 2839 0235 7D000000 		.4byte	0x7d
 2840 0239 01       		.byte	0x1
 2841 023a 51       		.byte	0x51
 2842 023b 00       		.byte	0
 2843 023c 14       		.uleb128 0x14
 2844 023d 92010000 		.4byte	0x192
 2845 0241 00000000 		.4byte	.LFB36
 2846 0245 10000000 		.4byte	.LFE36
 2847 0249 02       		.byte	0x2
 2848 024a 7D       		.byte	0x7d
 2849 024b 00       		.sleb128 0
 2850 024c 01       		.byte	0x1
 2851 024d 5B020000 		.4byte	0x25b
 2852 0251 0D       		.uleb128 0xd
 2853 0252 A4010000 		.4byte	0x1a4
 2854 0256 62000000 		.4byte	.LLST3
 2855 025a 00       		.byte	0
 2856 025b 14       		.uleb128 0x14
 2857 025c 3E010000 		.4byte	0x13e
 2858 0260 00000000 		.4byte	.LFB37
 2859 0264 10000000 		.4byte	.LFE37
 2860 0268 02       		.byte	0x2
 2861 0269 7D       		.byte	0x7d
 2862 026a 00       		.sleb128 0
 2863 026b 01       		.byte	0x1
 2864 026c 7A020000 		.4byte	0x27a
 2865 0270 0D       		.uleb128 0xd
 2866 0271 50010000 		.4byte	0x150
 2867 0275 83000000 		.4byte	.LLST4
 2868 0279 00       		.byte	0
 2869 027a 14       		.uleb128 0x14
 2870 027b 5A010000 		.4byte	0x15a
 2871 027f 00000000 		.4byte	.LFB38
 2872 0283 10000000 		.4byte	.LFE38
 2873 0287 02       		.byte	0x2
 2874 0288 7D       		.byte	0x7d
 2875 0289 00       		.sleb128 0
 2876 028a 01       		.byte	0x1
 2877 028b 99020000 		.4byte	0x299
 2878 028f 0D       		.uleb128 0xd
 2879 0290 6C010000 		.4byte	0x16c
 2880 0294 A4000000 		.4byte	.LLST5
 2881 0298 00       		.byte	0
 2882 0299 14       		.uleb128 0x14
 2883 029a 06010000 		.4byte	0x106
 2884 029e 00000000 		.4byte	.LFB39
 2885 02a2 10000000 		.4byte	.LFE39
 2886 02a6 02       		.byte	0x2
 2887 02a7 7D       		.byte	0x7d
 2888 02a8 00       		.sleb128 0
ARM GAS  C:\Users\atsu\AppData\Local\Temp\cc7os1vl.s 			page 67


 2889 02a9 01       		.byte	0x1
 2890 02aa B8020000 		.4byte	0x2b8
 2891 02ae 0D       		.uleb128 0xd
 2892 02af 18010000 		.4byte	0x118
 2893 02b3 C5000000 		.4byte	.LLST6
 2894 02b7 00       		.byte	0
 2895 02b8 14       		.uleb128 0x14
 2896 02b9 76010000 		.4byte	0x176
 2897 02bd 00000000 		.4byte	.LFB40
 2898 02c1 10000000 		.4byte	.LFE40
 2899 02c5 02       		.byte	0x2
 2900 02c6 7D       		.byte	0x7d
 2901 02c7 00       		.sleb128 0
 2902 02c8 01       		.byte	0x1
 2903 02c9 D7020000 		.4byte	0x2d7
 2904 02cd 0D       		.uleb128 0xd
 2905 02ce 88010000 		.4byte	0x188
 2906 02d2 E6000000 		.4byte	.LLST7
 2907 02d6 00       		.byte	0
 2908 02d7 14       		.uleb128 0x14
 2909 02d8 22010000 		.4byte	0x122
 2910 02dc 00000000 		.4byte	.LFB41
 2911 02e0 10000000 		.4byte	.LFE41
 2912 02e4 02       		.byte	0x2
 2913 02e5 7D       		.byte	0x7d
 2914 02e6 00       		.sleb128 0
 2915 02e7 01       		.byte	0x1
 2916 02e8 F6020000 		.4byte	0x2f6
 2917 02ec 0D       		.uleb128 0xd
 2918 02ed 34010000 		.4byte	0x134
 2919 02f1 07010000 		.4byte	.LLST8
 2920 02f5 00       		.byte	0
 2921 02f6 15       		.uleb128 0x15
 2922 02f7 01       		.byte	0x1
 2923 02f8 ED010000 		.4byte	.LASF28
 2924 02fc 01       		.byte	0x1
 2925 02fd 66       		.byte	0x66
 2926 02fe 01       		.byte	0x1
 2927 02ff 7D000000 		.4byte	0x7d
 2928 0303 00000000 		.4byte	.LFB42
 2929 0307 2E000000 		.4byte	.LFE42
 2930 030b 28010000 		.4byte	.LLST9
 2931 030f 01       		.byte	0x1
 2932 0310 97030000 		.4byte	0x397
 2933 0314 16       		.uleb128 0x16
 2934 0315 BA010000 		.4byte	.LASF29
 2935 0319 01       		.byte	0x1
 2936 031a 66       		.byte	0x66
 2937 031b 88000000 		.4byte	0x88
 2938 031f 48010000 		.4byte	.LLST10
 2939 0323 16       		.uleb128 0x16
 2940 0324 12030000 		.4byte	.LASF30
 2941 0328 01       		.byte	0x1
 2942 0329 66       		.byte	0x66
 2943 032a 7D000000 		.4byte	0x7d
 2944 032e 69010000 		.4byte	.LLST11
 2945 0332 17       		.uleb128 0x17
ARM GAS  C:\Users\atsu\AppData\Local\Temp\cc7os1vl.s 			page 68


 2946 0333 0A000000 		.4byte	.LVL18
 2947 0337 3A160000 		.4byte	0x163a
 2948 033b 18       		.uleb128 0x18
 2949 033c 12000000 		.4byte	.LVL19
 2950 0340 E8000000 		.4byte	0xe8
 2951 0344 4F030000 		.4byte	0x34f
 2952 0348 0F       		.uleb128 0xf
 2953 0349 01       		.byte	0x1
 2954 034a 50       		.byte	0x50
 2955 034b 02       		.byte	0x2
 2956 034c 09       		.byte	0x9
 2957 034d F0       		.byte	0xf0
 2958 034e 00       		.byte	0
 2959 034f 18       		.uleb128 0x18
 2960 0350 1A000000 		.4byte	.LVL20
 2961 0354 E8000000 		.4byte	0xe8
 2962 0358 65030000 		.4byte	0x365
 2963 035c 0F       		.uleb128 0xf
 2964 035d 01       		.byte	0x1
 2965 035e 50       		.byte	0x50
 2966 035f 04       		.byte	0x4
 2967 0360 74       		.byte	0x74
 2968 0361 00       		.sleb128 0
 2969 0362 38       		.byte	0x38
 2970 0363 25       		.byte	0x25
 2971 0364 00       		.byte	0
 2972 0365 18       		.uleb128 0x18
 2973 0366 20000000 		.4byte	.LVL21
 2974 036a E8000000 		.4byte	0xe8
 2975 036e 79030000 		.4byte	0x379
 2976 0372 0F       		.uleb128 0xf
 2977 0373 01       		.byte	0x1
 2978 0374 50       		.byte	0x50
 2979 0375 02       		.byte	0x2
 2980 0376 74       		.byte	0x74
 2981 0377 00       		.sleb128 0
 2982 0378 00       		.byte	0
 2983 0379 18       		.uleb128 0x18
 2984 037a 26000000 		.4byte	.LVL22
 2985 037e E8000000 		.4byte	0xe8
 2986 0382 8D030000 		.4byte	0x38d
 2987 0386 0F       		.uleb128 0xf
 2988 0387 01       		.byte	0x1
 2989 0388 50       		.byte	0x50
 2990 0389 02       		.byte	0x2
 2991 038a 75       		.byte	0x75
 2992 038b 00       		.sleb128 0
 2993 038c 00       		.byte	0
 2994 038d 17       		.uleb128 0x17
 2995 038e 2A000000 		.4byte	.LVL23
 2996 0392 44160000 		.4byte	0x1644
 2997 0396 00       		.byte	0
 2998 0397 15       		.uleb128 0x15
 2999 0398 01       		.byte	0x1
 3000 0399 02020000 		.4byte	.LASF31
 3001 039d 01       		.byte	0x1
 3002 039e 77       		.byte	0x77
ARM GAS  C:\Users\atsu\AppData\Local\Temp\cc7os1vl.s 			page 69


 3003 039f 01       		.byte	0x1
 3004 03a0 7D000000 		.4byte	0x7d
 3005 03a4 00000000 		.4byte	.LFB43
 3006 03a8 2C000000 		.4byte	.LFE43
 3007 03ac 8A010000 		.4byte	.LLST12
 3008 03b0 01       		.byte	0x1
 3009 03b1 4C040000 		.4byte	0x44c
 3010 03b5 16       		.uleb128 0x16
 3011 03b6 BA010000 		.4byte	.LASF29
 3012 03ba 01       		.byte	0x1
 3013 03bb 77       		.byte	0x77
 3014 03bc 88000000 		.4byte	0x88
 3015 03c0 AA010000 		.4byte	.LLST13
 3016 03c4 19       		.uleb128 0x19
 3017 03c5 12030000 		.4byte	.LASF30
 3018 03c9 01       		.byte	0x1
 3019 03ca 79       		.byte	0x79
 3020 03cb 7D000000 		.4byte	0x7d
 3021 03cf CB010000 		.4byte	.LLST14
 3022 03d3 1A       		.uleb128 0x1a
 3023 03d4 E8000000 		.4byte	0xe8
 3024 03d8 1C000000 		.4byte	.LBB26
 3025 03dc 24000000 		.4byte	.LBE26
 3026 03e0 01       		.byte	0x1
 3027 03e1 7E       		.byte	0x7e
 3028 03e2 FC030000 		.4byte	0x3fc
 3029 03e6 1B       		.uleb128 0x1b
 3030 03e7 FA000000 		.4byte	0xfa
 3031 03eb 00       		.byte	0
 3032 03ec 0E       		.uleb128 0xe
 3033 03ed 22000000 		.4byte	.LVL29
 3034 03f1 22160000 		.4byte	0x1622
 3035 03f5 0F       		.uleb128 0xf
 3036 03f6 01       		.byte	0x1
 3037 03f7 50       		.byte	0x50
 3038 03f8 01       		.byte	0x1
 3039 03f9 30       		.byte	0x30
 3040 03fa 00       		.byte	0
 3041 03fb 00       		.byte	0
 3042 03fc 17       		.uleb128 0x17
 3043 03fd 08000000 		.4byte	.LVL25
 3044 0401 3A160000 		.4byte	0x163a
 3045 0405 18       		.uleb128 0x18
 3046 0406 0E000000 		.4byte	.LVL26
 3047 040a E8000000 		.4byte	0xe8
 3048 040e 18040000 		.4byte	0x418
 3049 0412 0F       		.uleb128 0xf
 3050 0413 01       		.byte	0x1
 3051 0414 50       		.byte	0x50
 3052 0415 01       		.byte	0x1
 3053 0416 3F       		.byte	0x3f
 3054 0417 00       		.byte	0
 3055 0418 18       		.uleb128 0x18
 3056 0419 16000000 		.4byte	.LVL27
 3057 041d E8000000 		.4byte	0xe8
 3058 0421 2E040000 		.4byte	0x42e
 3059 0425 0F       		.uleb128 0xf
ARM GAS  C:\Users\atsu\AppData\Local\Temp\cc7os1vl.s 			page 70


 3060 0426 01       		.byte	0x1
 3061 0427 50       		.byte	0x50
 3062 0428 04       		.byte	0x4
 3063 0429 74       		.byte	0x74
 3064 042a 00       		.sleb128 0
 3065 042b 38       		.byte	0x38
 3066 042c 25       		.byte	0x25
 3067 042d 00       		.byte	0
 3068 042e 18       		.uleb128 0x18
 3069 042f 1C000000 		.4byte	.LVL28
 3070 0433 E8000000 		.4byte	0xe8
 3071 0437 42040000 		.4byte	0x442
 3072 043b 0F       		.uleb128 0xf
 3073 043c 01       		.byte	0x1
 3074 043d 50       		.byte	0x50
 3075 043e 02       		.byte	0x2
 3076 043f 74       		.byte	0x74
 3077 0440 00       		.sleb128 0
 3078 0441 00       		.byte	0
 3079 0442 17       		.uleb128 0x17
 3080 0443 28000000 		.4byte	.LVL31
 3081 0447 44160000 		.4byte	0x1644
 3082 044b 00       		.byte	0
 3083 044c 15       		.uleb128 0x15
 3084 044d 01       		.byte	0x1
 3085 044e F6000000 		.4byte	.LASF32
 3086 0452 01       		.byte	0x1
 3087 0453 84       		.byte	0x84
 3088 0454 01       		.byte	0x1
 3089 0455 88000000 		.4byte	0x88
 3090 0459 00000000 		.4byte	.LFB44
 3091 045d 42000000 		.4byte	.LFE44
 3092 0461 F4010000 		.4byte	.LLST15
 3093 0465 01       		.byte	0x1
 3094 0466 00050000 		.4byte	0x500
 3095 046a 16       		.uleb128 0x16
 3096 046b BA010000 		.4byte	.LASF29
 3097 046f 01       		.byte	0x1
 3098 0470 84       		.byte	0x84
 3099 0471 88000000 		.4byte	0x88
 3100 0475 14020000 		.4byte	.LLST16
 3101 0479 11       		.uleb128 0x11
 3102 047a 62756600 		.ascii	"buf\000"
 3103 047e 01       		.byte	0x1
 3104 047f 84       		.byte	0x84
 3105 0480 E2000000 		.4byte	0xe2
 3106 0484 4A020000 		.4byte	.LLST17
 3107 0488 11       		.uleb128 0x11
 3108 0489 6C656E00 		.ascii	"len\000"
 3109 048d 01       		.byte	0x1
 3110 048e 84       		.byte	0x84
 3111 048f 88000000 		.4byte	0x88
 3112 0493 6B020000 		.4byte	.LLST18
 3113 0497 1C       		.uleb128 0x1c
 3114 0498 69647800 		.ascii	"idx\000"
 3115 049c 01       		.byte	0x1
 3116 049d 86       		.byte	0x86
ARM GAS  C:\Users\atsu\AppData\Local\Temp\cc7os1vl.s 			page 71


 3117 049e 88000000 		.4byte	0x88
 3118 04a2 8C020000 		.4byte	.LLST19
 3119 04a6 17       		.uleb128 0x17
 3120 04a7 14000000 		.4byte	.LVL35
 3121 04ab 3A160000 		.4byte	0x163a
 3122 04af 18       		.uleb128 0x18
 3123 04b0 1C000000 		.4byte	.LVL36
 3124 04b4 E8000000 		.4byte	0xe8
 3125 04b8 C3040000 		.4byte	0x4c3
 3126 04bc 0F       		.uleb128 0xf
 3127 04bd 01       		.byte	0x1
 3128 04be 50       		.byte	0x50
 3129 04bf 02       		.byte	0x2
 3130 04c0 09       		.byte	0x9
 3131 04c1 F0       		.byte	0xf0
 3132 04c2 00       		.byte	0
 3133 04c3 18       		.uleb128 0x18
 3134 04c4 24000000 		.4byte	.LVL37
 3135 04c8 E8000000 		.4byte	0xe8
 3136 04cc D9040000 		.4byte	0x4d9
 3137 04d0 0F       		.uleb128 0xf
 3138 04d1 01       		.byte	0x1
 3139 04d2 50       		.byte	0x50
 3140 04d3 04       		.byte	0x4
 3141 04d4 74       		.byte	0x74
 3142 04d5 00       		.sleb128 0
 3143 04d6 38       		.byte	0x38
 3144 04d7 25       		.byte	0x25
 3145 04d8 00       		.byte	0
 3146 04d9 18       		.uleb128 0x18
 3147 04da 2A000000 		.4byte	.LVL38
 3148 04de E8000000 		.4byte	0xe8
 3149 04e2 ED040000 		.4byte	0x4ed
 3150 04e6 0F       		.uleb128 0xf
 3151 04e7 01       		.byte	0x1
 3152 04e8 50       		.byte	0x50
 3153 04e9 02       		.byte	0x2
 3154 04ea 74       		.byte	0x74
 3155 04eb 00       		.sleb128 0
 3156 04ec 00       		.byte	0
 3157 04ed 17       		.uleb128 0x17
 3158 04ee 34000000 		.4byte	.LVL40
 3159 04f2 E8000000 		.4byte	0xe8
 3160 04f6 17       		.uleb128 0x17
 3161 04f7 3A000000 		.4byte	.LVL42
 3162 04fb 44160000 		.4byte	0x1644
 3163 04ff 00       		.byte	0
 3164 0500 15       		.uleb128 0x15
 3165 0501 01       		.byte	0x1
 3166 0502 FE030000 		.4byte	.LASF33
 3167 0506 01       		.byte	0x1
 3168 0507 97       		.byte	0x97
 3169 0508 01       		.byte	0x1
 3170 0509 88000000 		.4byte	0x88
 3171 050d 00000000 		.4byte	.LFB45
 3172 0511 40000000 		.4byte	.LFE45
 3173 0515 A0020000 		.4byte	.LLST20
ARM GAS  C:\Users\atsu\AppData\Local\Temp\cc7os1vl.s 			page 72


 3174 0519 01       		.byte	0x1
 3175 051a D6050000 		.4byte	0x5d6
 3176 051e 16       		.uleb128 0x16
 3177 051f BA010000 		.4byte	.LASF29
 3178 0523 01       		.byte	0x1
 3179 0524 97       		.byte	0x97
 3180 0525 88000000 		.4byte	0x88
 3181 0529 C0020000 		.4byte	.LLST21
 3182 052d 11       		.uleb128 0x11
 3183 052e 62756600 		.ascii	"buf\000"
 3184 0532 01       		.byte	0x1
 3185 0533 97       		.byte	0x97
 3186 0534 E2000000 		.4byte	0xe2
 3187 0538 F6020000 		.4byte	.LLST22
 3188 053c 11       		.uleb128 0x11
 3189 053d 6C656E00 		.ascii	"len\000"
 3190 0541 01       		.byte	0x1
 3191 0542 97       		.byte	0x97
 3192 0543 88000000 		.4byte	0x88
 3193 0547 17030000 		.4byte	.LLST23
 3194 054b 1C       		.uleb128 0x1c
 3195 054c 69647800 		.ascii	"idx\000"
 3196 0550 01       		.byte	0x1
 3197 0551 99       		.byte	0x99
 3198 0552 88000000 		.4byte	0x88
 3199 0556 38030000 		.4byte	.LLST24
 3200 055a 1A       		.uleb128 0x1a
 3201 055b E8000000 		.4byte	0xe8
 3202 055f 28000000 		.4byte	.LBB28
 3203 0563 2E000000 		.4byte	.LBE28
 3204 0567 01       		.byte	0x1
 3205 0568 A1       		.byte	0xa1
 3206 0569 86050000 		.4byte	0x586
 3207 056d 0D       		.uleb128 0xd
 3208 056e FA000000 		.4byte	0xfa
 3209 0572 4C030000 		.4byte	.LLST25
 3210 0576 0E       		.uleb128 0xe
 3211 0577 2E000000 		.4byte	.LVL50
 3212 057b 22160000 		.4byte	0x1622
 3213 057f 0F       		.uleb128 0xf
 3214 0580 01       		.byte	0x1
 3215 0581 50       		.byte	0x50
 3216 0582 01       		.byte	0x1
 3217 0583 30       		.byte	0x30
 3218 0584 00       		.byte	0
 3219 0585 00       		.byte	0
 3220 0586 17       		.uleb128 0x17
 3221 0587 14000000 		.4byte	.LVL46
 3222 058b 3A160000 		.4byte	0x163a
 3223 058f 18       		.uleb128 0x18
 3224 0590 1A000000 		.4byte	.LVL47
 3225 0594 E8000000 		.4byte	0xe8
 3226 0598 A2050000 		.4byte	0x5a2
 3227 059c 0F       		.uleb128 0xf
 3228 059d 01       		.byte	0x1
 3229 059e 50       		.byte	0x50
 3230 059f 01       		.byte	0x1
ARM GAS  C:\Users\atsu\AppData\Local\Temp\cc7os1vl.s 			page 73


 3231 05a0 3F       		.byte	0x3f
 3232 05a1 00       		.byte	0
 3233 05a2 18       		.uleb128 0x18
 3234 05a3 22000000 		.4byte	.LVL48
 3235 05a7 E8000000 		.4byte	0xe8
 3236 05ab B8050000 		.4byte	0x5b8
 3237 05af 0F       		.uleb128 0xf
 3238 05b0 01       		.byte	0x1
 3239 05b1 50       		.byte	0x50
 3240 05b2 04       		.byte	0x4
 3241 05b3 74       		.byte	0x74
 3242 05b4 00       		.sleb128 0
 3243 05b5 38       		.byte	0x38
 3244 05b6 25       		.byte	0x25
 3245 05b7 00       		.byte	0
 3246 05b8 18       		.uleb128 0x18
 3247 05b9 28000000 		.4byte	.LVL49
 3248 05bd E8000000 		.4byte	0xe8
 3249 05c1 CC050000 		.4byte	0x5cc
 3250 05c5 0F       		.uleb128 0xf
 3251 05c6 01       		.byte	0x1
 3252 05c7 50       		.byte	0x50
 3253 05c8 02       		.byte	0x2
 3254 05c9 74       		.byte	0x74
 3255 05ca 00       		.sleb128 0
 3256 05cb 00       		.byte	0
 3257 05cc 17       		.uleb128 0x17
 3258 05cd 38000000 		.4byte	.LVL53
 3259 05d1 44160000 		.4byte	0x1644
 3260 05d5 00       		.byte	0
 3261 05d6 1D       		.uleb128 0x1d
 3262 05d7 01       		.byte	0x1
 3263 05d8 E2030000 		.4byte	.LASF35
 3264 05dc 01       		.byte	0x1
 3265 05dd 0F01     		.2byte	0x10f
 3266 05df 01       		.byte	0x1
 3267 05e0 00000000 		.4byte	.LFB47
 3268 05e4 40010000 		.4byte	.LFE47
 3269 05e8 60030000 		.4byte	.LLST26
 3270 05ec 01       		.byte	0x1
 3271 05ed 72060000 		.4byte	0x672
 3272 05f1 1E       		.uleb128 0x1e
 3273 05f2 80020000 		.4byte	.LASF36
 3274 05f6 01       		.byte	0x1
 3275 05f7 1001     		.2byte	0x110
 3276 05f9 7D000000 		.4byte	0x7d
 3277 05fd 8C030000 		.4byte	.LLST27
 3278 0601 1E       		.uleb128 0x1e
 3279 0602 35030000 		.4byte	.LASF37
 3280 0606 01       		.byte	0x1
 3281 0607 1101     		.2byte	0x111
 3282 0609 7D000000 		.4byte	0x7d
 3283 060d AD030000 		.4byte	.LLST28
 3284 0611 1F       		.uleb128 0x1f
 3285 0612 6900     		.ascii	"i\000"
 3286 0614 01       		.byte	0x1
 3287 0615 1401     		.2byte	0x114
ARM GAS  C:\Users\atsu\AppData\Local\Temp\cc7os1vl.s 			page 74


 3288 0617 9E000000 		.4byte	0x9e
 3289 061b CE030000 		.4byte	.LLST29
 3290 061f 20       		.uleb128 0x20
 3291 0620 88010000 		.4byte	.LASF38
 3292 0624 01       		.byte	0x1
 3293 0625 1501     		.2byte	0x115
 3294 0627 9E000000 		.4byte	0x9e
 3295 062b ED030000 		.4byte	.LLST30
 3296 062f 20       		.uleb128 0x20
 3297 0630 27000000 		.4byte	.LASF39
 3298 0634 01       		.byte	0x1
 3299 0635 1501     		.2byte	0x115
 3300 0637 9E000000 		.4byte	0x9e
 3301 063b 0C040000 		.4byte	.LLST31
 3302 063f 18       		.uleb128 0x18
 3303 0640 10000000 		.4byte	.LVL59
 3304 0644 F6020000 		.4byte	0x2f6
 3305 0648 5A060000 		.4byte	0x65a
 3306 064c 0F       		.uleb128 0xf
 3307 064d 01       		.byte	0x1
 3308 064e 51       		.byte	0x51
 3309 064f 04       		.byte	0x4
 3310 0650 91       		.byte	0x91
 3311 0651 60       		.sleb128 -32
 3312 0652 94       		.byte	0x94
 3313 0653 01       		.byte	0x1
 3314 0654 0F       		.uleb128 0xf
 3315 0655 01       		.byte	0x1
 3316 0656 50       		.byte	0x50
 3317 0657 01       		.byte	0x1
 3318 0658 4B       		.byte	0x4b
 3319 0659 00       		.byte	0
 3320 065a 0E       		.uleb128 0xe
 3321 065b 18000000 		.4byte	.LVL60
 3322 065f F6020000 		.4byte	0x2f6
 3323 0663 0F       		.uleb128 0xf
 3324 0664 01       		.byte	0x1
 3325 0665 51       		.byte	0x51
 3326 0666 04       		.byte	0x4
 3327 0667 91       		.byte	0x91
 3328 0668 64       		.sleb128 -28
 3329 0669 94       		.byte	0x94
 3330 066a 01       		.byte	0x1
 3331 066b 0F       		.uleb128 0xf
 3332 066c 01       		.byte	0x1
 3333 066d 50       		.byte	0x50
 3334 066e 01       		.byte	0x1
 3335 066f 4A       		.byte	0x4a
 3336 0670 00       		.byte	0
 3337 0671 00       		.byte	0
 3338 0672 1D       		.uleb128 0x1d
 3339 0673 01       		.byte	0x1
 3340 0674 30020000 		.4byte	.LASF40
 3341 0678 01       		.byte	0x1
 3342 0679 6701     		.2byte	0x167
 3343 067b 01       		.byte	0x1
 3344 067c 00000000 		.4byte	.LFB48
ARM GAS  C:\Users\atsu\AppData\Local\Temp\cc7os1vl.s 			page 75


 3345 0680 0E000000 		.4byte	.LFE48
 3346 0684 38040000 		.4byte	.LLST32
 3347 0688 01       		.byte	0x1
 3348 0689 AF060000 		.4byte	0x6af
 3349 068d 21       		.uleb128 0x21
 3350 068e 76616C00 		.ascii	"val\000"
 3351 0692 01       		.byte	0x1
 3352 0693 6701     		.2byte	0x167
 3353 0695 7D000000 		.4byte	0x7d
 3354 0699 58040000 		.4byte	.LLST33
 3355 069d 0E       		.uleb128 0xe
 3356 069e 0C000000 		.4byte	.LVL71
 3357 06a2 F6020000 		.4byte	0x2f6
 3358 06a6 0F       		.uleb128 0xf
 3359 06a7 01       		.byte	0x1
 3360 06a8 50       		.byte	0x50
 3361 06a9 03       		.byte	0x3
 3362 06aa 0B       		.byte	0xb
 3363 06ab 0080     		.2byte	0x8000
 3364 06ad 00       		.byte	0
 3365 06ae 00       		.byte	0
 3366 06af 22       		.uleb128 0x22
 3367 06b0 01       		.byte	0x1
 3368 06b1 E9000000 		.4byte	.LASF41
 3369 06b5 01       		.byte	0x1
 3370 06b6 F0       		.byte	0xf0
 3371 06b7 01       		.byte	0x1
 3372 06b8 00000000 		.4byte	.LFB46
 3373 06bc 16000000 		.4byte	.LFE46
 3374 06c0 79040000 		.4byte	.LLST34
 3375 06c4 01       		.byte	0x1
 3376 06c5 F8060000 		.4byte	0x6f8
 3377 06c9 18       		.uleb128 0x18
 3378 06ca 0A000000 		.4byte	.LVL72
 3379 06ce 4E160000 		.4byte	0x164e
 3380 06d2 DE060000 		.4byte	0x6de
 3381 06d6 0F       		.uleb128 0xf
 3382 06d7 01       		.byte	0x1
 3383 06d8 50       		.byte	0x50
 3384 06d9 03       		.byte	0x3
 3385 06da 0A       		.byte	0xa
 3386 06db 2C01     		.2byte	0x12c
 3387 06dd 00       		.byte	0
 3388 06de 17       		.uleb128 0x17
 3389 06df 0E000000 		.4byte	.LVL73
 3390 06e3 62160000 		.4byte	0x1662
 3391 06e7 0E       		.uleb128 0xe
 3392 06e8 14000000 		.4byte	.LVL74
 3393 06ec 72060000 		.4byte	0x672
 3394 06f0 0F       		.uleb128 0xf
 3395 06f1 01       		.byte	0x1
 3396 06f2 50       		.byte	0x50
 3397 06f3 02       		.byte	0x2
 3398 06f4 09       		.byte	0x9
 3399 06f5 80       		.byte	0x80
 3400 06f6 00       		.byte	0
 3401 06f7 00       		.byte	0
ARM GAS  C:\Users\atsu\AppData\Local\Temp\cc7os1vl.s 			page 76


 3402 06f8 1D       		.uleb128 0x1d
 3403 06f9 01       		.byte	0x1
 3404 06fa FB010000 		.4byte	.LASF42
 3405 06fe 01       		.byte	0x1
 3406 06ff 7101     		.2byte	0x171
 3407 0701 01       		.byte	0x1
 3408 0702 00000000 		.4byte	.LFB49
 3409 0706 26000000 		.4byte	.LFE49
 3410 070a 99040000 		.4byte	.LLST35
 3411 070e 01       		.byte	0x1
 3412 070f 6C070000 		.4byte	0x76c
 3413 0713 1E       		.uleb128 0x1e
 3414 0714 BA010000 		.4byte	.LASF29
 3415 0718 01       		.byte	0x1
 3416 0719 7201     		.2byte	0x172
 3417 071b E2000000 		.4byte	0xe2
 3418 071f B9040000 		.4byte	.LLST36
 3419 0723 18       		.uleb128 0x18
 3420 0724 0C000000 		.4byte	.LVL77
 3421 0728 F6020000 		.4byte	0x2f6
 3422 072c 36070000 		.4byte	0x736
 3423 0730 0F       		.uleb128 0xf
 3424 0731 01       		.byte	0x1
 3425 0732 50       		.byte	0x50
 3426 0733 01       		.byte	0x1
 3427 0734 31       		.byte	0x31
 3428 0735 00       		.byte	0
 3429 0736 18       		.uleb128 0x18
 3430 0737 14000000 		.4byte	.LVL78
 3431 073b F6020000 		.4byte	0x2f6
 3432 073f 49070000 		.4byte	0x749
 3433 0743 0F       		.uleb128 0xf
 3434 0744 01       		.byte	0x1
 3435 0745 50       		.byte	0x50
 3436 0746 01       		.byte	0x1
 3437 0747 32       		.byte	0x32
 3438 0748 00       		.byte	0
 3439 0749 18       		.uleb128 0x18
 3440 074a 1C000000 		.4byte	.LVL79
 3441 074e F6020000 		.4byte	0x2f6
 3442 0752 5C070000 		.4byte	0x75c
 3443 0756 0F       		.uleb128 0xf
 3444 0757 01       		.byte	0x1
 3445 0758 50       		.byte	0x50
 3446 0759 01       		.byte	0x1
 3447 075a 33       		.byte	0x33
 3448 075b 00       		.byte	0
 3449 075c 0E       		.uleb128 0xe
 3450 075d 24000000 		.4byte	.LVL80
 3451 0761 F6020000 		.4byte	0x2f6
 3452 0765 0F       		.uleb128 0xf
 3453 0766 01       		.byte	0x1
 3454 0767 50       		.byte	0x50
 3455 0768 01       		.byte	0x1
 3456 0769 34       		.byte	0x34
 3457 076a 00       		.byte	0
 3458 076b 00       		.byte	0
ARM GAS  C:\Users\atsu\AppData\Local\Temp\cc7os1vl.s 			page 77


 3459 076c 1D       		.uleb128 0x1d
 3460 076d 01       		.byte	0x1
 3461 076e 59020000 		.4byte	.LASF43
 3462 0772 01       		.byte	0x1
 3463 0773 7A01     		.2byte	0x17a
 3464 0775 01       		.byte	0x1
 3465 0776 00000000 		.4byte	.LFB50
 3466 077a 26000000 		.4byte	.LFE50
 3467 077e E5040000 		.4byte	.LLST37
 3468 0782 01       		.byte	0x1
 3469 0783 E0070000 		.4byte	0x7e0
 3470 0787 1E       		.uleb128 0x1e
 3471 0788 BA010000 		.4byte	.LASF29
 3472 078c 01       		.byte	0x1
 3473 078d 7A01     		.2byte	0x17a
 3474 078f E2000000 		.4byte	0xe2
 3475 0793 05050000 		.4byte	.LLST38
 3476 0797 18       		.uleb128 0x18
 3477 0798 0A000000 		.4byte	.LVL84
 3478 079c 97030000 		.4byte	0x397
 3479 07a0 AA070000 		.4byte	0x7aa
 3480 07a4 0F       		.uleb128 0xf
 3481 07a5 01       		.byte	0x1
 3482 07a6 50       		.byte	0x50
 3483 07a7 01       		.byte	0x1
 3484 07a8 31       		.byte	0x31
 3485 07a9 00       		.byte	0
 3486 07aa 18       		.uleb128 0x18
 3487 07ab 12000000 		.4byte	.LVL85
 3488 07af 97030000 		.4byte	0x397
 3489 07b3 BD070000 		.4byte	0x7bd
 3490 07b7 0F       		.uleb128 0xf
 3491 07b8 01       		.byte	0x1
 3492 07b9 50       		.byte	0x50
 3493 07ba 01       		.byte	0x1
 3494 07bb 32       		.byte	0x32
 3495 07bc 00       		.byte	0
 3496 07bd 18       		.uleb128 0x18
 3497 07be 1A000000 		.4byte	.LVL86
 3498 07c2 97030000 		.4byte	0x397
 3499 07c6 D0070000 		.4byte	0x7d0
 3500 07ca 0F       		.uleb128 0xf
 3501 07cb 01       		.byte	0x1
 3502 07cc 50       		.byte	0x50
 3503 07cd 01       		.byte	0x1
 3504 07ce 33       		.byte	0x33
 3505 07cf 00       		.byte	0
 3506 07d0 0E       		.uleb128 0xe
 3507 07d1 22000000 		.4byte	.LVL87
 3508 07d5 97030000 		.4byte	0x397
 3509 07d9 0F       		.uleb128 0xf
 3510 07da 01       		.byte	0x1
 3511 07db 50       		.byte	0x50
 3512 07dc 01       		.byte	0x1
 3513 07dd 34       		.byte	0x34
 3514 07de 00       		.byte	0
 3515 07df 00       		.byte	0
ARM GAS  C:\Users\atsu\AppData\Local\Temp\cc7os1vl.s 			page 78


 3516 07e0 1D       		.uleb128 0x1d
 3517 07e1 01       		.byte	0x1
 3518 07e2 08000000 		.4byte	.LASF44
 3519 07e6 01       		.byte	0x1
 3520 07e7 8601     		.2byte	0x186
 3521 07e9 01       		.byte	0x1
 3522 07ea 00000000 		.4byte	.LFB51
 3523 07ee 26000000 		.4byte	.LFE51
 3524 07f2 31050000 		.4byte	.LLST39
 3525 07f6 01       		.byte	0x1
 3526 07f7 54080000 		.4byte	0x854
 3527 07fb 1E       		.uleb128 0x1e
 3528 07fc BA010000 		.4byte	.LASF29
 3529 0800 01       		.byte	0x1
 3530 0801 8701     		.2byte	0x187
 3531 0803 E2000000 		.4byte	0xe2
 3532 0807 51050000 		.4byte	.LLST40
 3533 080b 18       		.uleb128 0x18
 3534 080c 0C000000 		.4byte	.LVL91
 3535 0810 F6020000 		.4byte	0x2f6
 3536 0814 1E080000 		.4byte	0x81e
 3537 0818 0F       		.uleb128 0xf
 3538 0819 01       		.byte	0x1
 3539 081a 50       		.byte	0x50
 3540 081b 01       		.byte	0x1
 3541 081c 35       		.byte	0x35
 3542 081d 00       		.byte	0
 3543 081e 18       		.uleb128 0x18
 3544 081f 14000000 		.4byte	.LVL92
 3545 0823 F6020000 		.4byte	0x2f6
 3546 0827 31080000 		.4byte	0x831
 3547 082b 0F       		.uleb128 0xf
 3548 082c 01       		.byte	0x1
 3549 082d 50       		.byte	0x50
 3550 082e 01       		.byte	0x1
 3551 082f 36       		.byte	0x36
 3552 0830 00       		.byte	0
 3553 0831 18       		.uleb128 0x18
 3554 0832 1C000000 		.4byte	.LVL93
 3555 0836 F6020000 		.4byte	0x2f6
 3556 083a 44080000 		.4byte	0x844
 3557 083e 0F       		.uleb128 0xf
 3558 083f 01       		.byte	0x1
 3559 0840 50       		.byte	0x50
 3560 0841 01       		.byte	0x1
 3561 0842 37       		.byte	0x37
 3562 0843 00       		.byte	0
 3563 0844 0E       		.uleb128 0xe
 3564 0845 24000000 		.4byte	.LVL94
 3565 0849 F6020000 		.4byte	0x2f6
 3566 084d 0F       		.uleb128 0xf
 3567 084e 01       		.byte	0x1
 3568 084f 50       		.byte	0x50
 3569 0850 01       		.byte	0x1
 3570 0851 38       		.byte	0x38
 3571 0852 00       		.byte	0
 3572 0853 00       		.byte	0
ARM GAS  C:\Users\atsu\AppData\Local\Temp\cc7os1vl.s 			page 79


 3573 0854 1D       		.uleb128 0x1d
 3574 0855 01       		.byte	0x1
 3575 0856 44010000 		.4byte	.LASF45
 3576 085a 01       		.byte	0x1
 3577 085b 9401     		.2byte	0x194
 3578 085d 01       		.byte	0x1
 3579 085e 00000000 		.4byte	.LFB52
 3580 0862 36000000 		.4byte	.LFE52
 3581 0866 7D050000 		.4byte	.LLST41
 3582 086a 01       		.byte	0x1
 3583 086b EE080000 		.4byte	0x8ee
 3584 086f 1E       		.uleb128 0x1e
 3585 0870 BA010000 		.4byte	.LASF29
 3586 0874 01       		.byte	0x1
 3587 0875 9501     		.2byte	0x195
 3588 0877 E2000000 		.4byte	0xe2
 3589 087b 9D050000 		.4byte	.LLST42
 3590 087f 18       		.uleb128 0x18
 3591 0880 0C000000 		.4byte	.LVL98
 3592 0884 F6020000 		.4byte	0x2f6
 3593 0888 92080000 		.4byte	0x892
 3594 088c 0F       		.uleb128 0xf
 3595 088d 01       		.byte	0x1
 3596 088e 50       		.byte	0x50
 3597 088f 01       		.byte	0x1
 3598 0890 39       		.byte	0x39
 3599 0891 00       		.byte	0
 3600 0892 18       		.uleb128 0x18
 3601 0893 14000000 		.4byte	.LVL99
 3602 0897 F6020000 		.4byte	0x2f6
 3603 089b A5080000 		.4byte	0x8a5
 3604 089f 0F       		.uleb128 0xf
 3605 08a0 01       		.byte	0x1
 3606 08a1 50       		.byte	0x50
 3607 08a2 01       		.byte	0x1
 3608 08a3 3A       		.byte	0x3a
 3609 08a4 00       		.byte	0
 3610 08a5 18       		.uleb128 0x18
 3611 08a6 1C000000 		.4byte	.LVL100
 3612 08aa F6020000 		.4byte	0x2f6
 3613 08ae B8080000 		.4byte	0x8b8
 3614 08b2 0F       		.uleb128 0xf
 3615 08b3 01       		.byte	0x1
 3616 08b4 50       		.byte	0x50
 3617 08b5 01       		.byte	0x1
 3618 08b6 3B       		.byte	0x3b
 3619 08b7 00       		.byte	0
 3620 08b8 18       		.uleb128 0x18
 3621 08b9 24000000 		.4byte	.LVL101
 3622 08bd F6020000 		.4byte	0x2f6
 3623 08c1 CB080000 		.4byte	0x8cb
 3624 08c5 0F       		.uleb128 0xf
 3625 08c6 01       		.byte	0x1
 3626 08c7 50       		.byte	0x50
 3627 08c8 01       		.byte	0x1
 3628 08c9 3C       		.byte	0x3c
 3629 08ca 00       		.byte	0
ARM GAS  C:\Users\atsu\AppData\Local\Temp\cc7os1vl.s 			page 80


 3630 08cb 18       		.uleb128 0x18
 3631 08cc 2C000000 		.4byte	.LVL102
 3632 08d0 F6020000 		.4byte	0x2f6
 3633 08d4 DE080000 		.4byte	0x8de
 3634 08d8 0F       		.uleb128 0xf
 3635 08d9 01       		.byte	0x1
 3636 08da 50       		.byte	0x50
 3637 08db 01       		.byte	0x1
 3638 08dc 3D       		.byte	0x3d
 3639 08dd 00       		.byte	0
 3640 08de 0E       		.uleb128 0xe
 3641 08df 34000000 		.4byte	.LVL103
 3642 08e3 F6020000 		.4byte	0x2f6
 3643 08e7 0F       		.uleb128 0xf
 3644 08e8 01       		.byte	0x1
 3645 08e9 50       		.byte	0x50
 3646 08ea 01       		.byte	0x1
 3647 08eb 3E       		.byte	0x3e
 3648 08ec 00       		.byte	0
 3649 08ed 00       		.byte	0
 3650 08ee 1D       		.uleb128 0x1d
 3651 08ef 01       		.byte	0x1
 3652 08f0 9C000000 		.4byte	.LASF46
 3653 08f4 01       		.byte	0x1
 3654 08f5 A401     		.2byte	0x1a4
 3655 08f7 01       		.byte	0x1
 3656 08f8 00000000 		.4byte	.LFB53
 3657 08fc 26000000 		.4byte	.LFE53
 3658 0900 C9050000 		.4byte	.LLST43
 3659 0904 01       		.byte	0x1
 3660 0905 62090000 		.4byte	0x962
 3661 0909 1E       		.uleb128 0x1e
 3662 090a BA010000 		.4byte	.LASF29
 3663 090e 01       		.byte	0x1
 3664 090f A501     		.2byte	0x1a5
 3665 0911 E2000000 		.4byte	0xe2
 3666 0915 E9050000 		.4byte	.LLST44
 3667 0919 18       		.uleb128 0x18
 3668 091a 0C000000 		.4byte	.LVL107
 3669 091e F6020000 		.4byte	0x2f6
 3670 0922 2C090000 		.4byte	0x92c
 3671 0926 0F       		.uleb128 0xf
 3672 0927 01       		.byte	0x1
 3673 0928 50       		.byte	0x50
 3674 0929 01       		.byte	0x1
 3675 092a 3F       		.byte	0x3f
 3676 092b 00       		.byte	0
 3677 092c 18       		.uleb128 0x18
 3678 092d 14000000 		.4byte	.LVL108
 3679 0931 F6020000 		.4byte	0x2f6
 3680 0935 3F090000 		.4byte	0x93f
 3681 0939 0F       		.uleb128 0xf
 3682 093a 01       		.byte	0x1
 3683 093b 50       		.byte	0x50
 3684 093c 01       		.byte	0x1
 3685 093d 40       		.byte	0x40
 3686 093e 00       		.byte	0
ARM GAS  C:\Users\atsu\AppData\Local\Temp\cc7os1vl.s 			page 81


 3687 093f 18       		.uleb128 0x18
 3688 0940 1C000000 		.4byte	.LVL109
 3689 0944 F6020000 		.4byte	0x2f6
 3690 0948 52090000 		.4byte	0x952
 3691 094c 0F       		.uleb128 0xf
 3692 094d 01       		.byte	0x1
 3693 094e 50       		.byte	0x50
 3694 094f 01       		.byte	0x1
 3695 0950 41       		.byte	0x41
 3696 0951 00       		.byte	0
 3697 0952 0E       		.uleb128 0xe
 3698 0953 24000000 		.4byte	.LVL110
 3699 0957 F6020000 		.4byte	0x2f6
 3700 095b 0F       		.uleb128 0xf
 3701 095c 01       		.byte	0x1
 3702 095d 50       		.byte	0x50
 3703 095e 01       		.byte	0x1
 3704 095f 42       		.byte	0x42
 3705 0960 00       		.byte	0
 3706 0961 00       		.byte	0
 3707 0962 23       		.uleb128 0x23
 3708 0963 01       		.byte	0x1
 3709 0964 27030000 		.4byte	.LASF47
 3710 0968 01       		.byte	0x1
 3711 0969 B201     		.2byte	0x1b2
 3712 096b 01       		.byte	0x1
 3713 096c 7D000000 		.4byte	0x7d
 3714 0970 00000000 		.4byte	.LFB54
 3715 0974 0A000000 		.4byte	.LFE54
 3716 0978 15060000 		.4byte	.LLST45
 3717 097c 01       		.byte	0x1
 3718 097d 91090000 		.4byte	0x991
 3719 0981 0E       		.uleb128 0xe
 3720 0982 08000000 		.4byte	.LVL112
 3721 0986 97030000 		.4byte	0x397
 3722 098a 0F       		.uleb128 0xf
 3723 098b 01       		.byte	0x1
 3724 098c 50       		.byte	0x50
 3725 098d 01       		.byte	0x1
 3726 098e 45       		.byte	0x45
 3727 098f 00       		.byte	0
 3728 0990 00       		.byte	0
 3729 0991 1D       		.uleb128 0x1d
 3730 0992 01       		.byte	0x1
 3731 0993 4C010000 		.4byte	.LASF48
 3732 0997 01       		.byte	0x1
 3733 0998 BF01     		.2byte	0x1bf
 3734 099a 01       		.byte	0x1
 3735 099b 00000000 		.4byte	.LFB55
 3736 099f 16000000 		.4byte	.LFE55
 3737 09a3 35060000 		.4byte	.LLST46
 3738 09a7 01       		.byte	0x1
 3739 09a8 ED090000 		.4byte	0x9ed
 3740 09ac 1E       		.uleb128 0x1e
 3741 09ad 35040000 		.4byte	.LASF49
 3742 09b1 01       		.byte	0x1
 3743 09b2 BF01     		.2byte	0x1bf
ARM GAS  C:\Users\atsu\AppData\Local\Temp\cc7os1vl.s 			page 82


 3744 09b4 88000000 		.4byte	0x88
 3745 09b8 55060000 		.4byte	.LLST47
 3746 09bc 18       		.uleb128 0x18
 3747 09bd 0C000000 		.4byte	.LVL115
 3748 09c1 F6020000 		.4byte	0x2f6
 3749 09c5 D7090000 		.4byte	0x9d7
 3750 09c9 0F       		.uleb128 0xf
 3751 09ca 01       		.byte	0x1
 3752 09cb 51       		.byte	0x51
 3753 09cc 04       		.byte	0x4
 3754 09cd 74       		.byte	0x74
 3755 09ce 00       		.sleb128 0
 3756 09cf 38       		.byte	0x38
 3757 09d0 25       		.byte	0x25
 3758 09d1 0F       		.uleb128 0xf
 3759 09d2 01       		.byte	0x1
 3760 09d3 50       		.byte	0x50
 3761 09d4 01       		.byte	0x1
 3762 09d5 47       		.byte	0x47
 3763 09d6 00       		.byte	0
 3764 09d7 0E       		.uleb128 0xe
 3765 09d8 14000000 		.4byte	.LVL116
 3766 09dc F6020000 		.4byte	0x2f6
 3767 09e0 0F       		.uleb128 0xf
 3768 09e1 01       		.byte	0x1
 3769 09e2 51       		.byte	0x51
 3770 09e3 02       		.byte	0x2
 3771 09e4 74       		.byte	0x74
 3772 09e5 00       		.sleb128 0
 3773 09e6 0F       		.uleb128 0xf
 3774 09e7 01       		.byte	0x1
 3775 09e8 50       		.byte	0x50
 3776 09e9 01       		.byte	0x1
 3777 09ea 48       		.byte	0x48
 3778 09eb 00       		.byte	0
 3779 09ec 00       		.byte	0
 3780 09ed 1D       		.uleb128 0x1d
 3781 09ee 01       		.byte	0x1
 3782 09ef 10000000 		.4byte	.LASF50
 3783 09f3 01       		.byte	0x1
 3784 09f4 CC01     		.2byte	0x1cc
 3785 09f6 01       		.byte	0x1
 3786 09f7 00000000 		.4byte	.LFB56
 3787 09fb 0C000000 		.4byte	.LFE56
 3788 09ff 76060000 		.4byte	.LLST48
 3789 0a03 01       		.byte	0x1
 3790 0a04 280A0000 		.4byte	0xa28
 3791 0a08 1E       		.uleb128 0x1e
 3792 0a09 CA000000 		.4byte	.LASF51
 3793 0a0d 01       		.byte	0x1
 3794 0a0e CC01     		.2byte	0x1cc
 3795 0a10 7D000000 		.4byte	0x7d
 3796 0a14 96060000 		.4byte	.LLST49
 3797 0a18 0E       		.uleb128 0xe
 3798 0a19 0A000000 		.4byte	.LVL119
 3799 0a1d F6020000 		.4byte	0x2f6
 3800 0a21 0F       		.uleb128 0xf
ARM GAS  C:\Users\atsu\AppData\Local\Temp\cc7os1vl.s 			page 83


 3801 0a22 01       		.byte	0x1
 3802 0a23 50       		.byte	0x50
 3803 0a24 01       		.byte	0x1
 3804 0a25 49       		.byte	0x49
 3805 0a26 00       		.byte	0
 3806 0a27 00       		.byte	0
 3807 0a28 1D       		.uleb128 0x1d
 3808 0a29 01       		.byte	0x1
 3809 0a2a D8010000 		.4byte	.LASF52
 3810 0a2e 01       		.byte	0x1
 3811 0a2f D801     		.2byte	0x1d8
 3812 0a31 01       		.byte	0x1
 3813 0a32 00000000 		.4byte	.LFB57
 3814 0a36 0C000000 		.4byte	.LFE57
 3815 0a3a B7060000 		.4byte	.LLST50
 3816 0a3e 01       		.byte	0x1
 3817 0a3f 630A0000 		.4byte	0xa63
 3818 0a43 1E       		.uleb128 0x1e
 3819 0a44 59040000 		.4byte	.LASF53
 3820 0a48 01       		.byte	0x1
 3821 0a49 D801     		.2byte	0x1d8
 3822 0a4b 7D000000 		.4byte	0x7d
 3823 0a4f D7060000 		.4byte	.LLST51
 3824 0a53 0E       		.uleb128 0xe
 3825 0a54 0A000000 		.4byte	.LVL122
 3826 0a58 F6020000 		.4byte	0x2f6
 3827 0a5c 0F       		.uleb128 0xf
 3828 0a5d 01       		.byte	0x1
 3829 0a5e 50       		.byte	0x50
 3830 0a5f 01       		.byte	0x1
 3831 0a60 46       		.byte	0x46
 3832 0a61 00       		.byte	0
 3833 0a62 00       		.byte	0
 3834 0a63 1D       		.uleb128 0x1d
 3835 0a64 01       		.byte	0x1
 3836 0a65 61020000 		.4byte	.LASF54
 3837 0a69 01       		.byte	0x1
 3838 0a6a E201     		.2byte	0x1e2
 3839 0a6c 01       		.byte	0x1
 3840 0a6d 00000000 		.4byte	.LFB58
 3841 0a71 26000000 		.4byte	.LFE58
 3842 0a75 F8060000 		.4byte	.LLST52
 3843 0a79 01       		.byte	0x1
 3844 0a7a D70A0000 		.4byte	0xad7
 3845 0a7e 1E       		.uleb128 0x1e
 3846 0a7f BA010000 		.4byte	.LASF29
 3847 0a83 01       		.byte	0x1
 3848 0a84 E201     		.2byte	0x1e2
 3849 0a86 E2000000 		.4byte	0xe2
 3850 0a8a 18070000 		.4byte	.LLST53
 3851 0a8e 18       		.uleb128 0x18
 3852 0a8f 0A000000 		.4byte	.LVL125
 3853 0a93 97030000 		.4byte	0x397
 3854 0a97 A10A0000 		.4byte	0xaa1
 3855 0a9b 0F       		.uleb128 0xf
 3856 0a9c 01       		.byte	0x1
 3857 0a9d 50       		.byte	0x50
ARM GAS  C:\Users\atsu\AppData\Local\Temp\cc7os1vl.s 			page 84


 3858 0a9e 01       		.byte	0x1
 3859 0a9f 31       		.byte	0x31
 3860 0aa0 00       		.byte	0
 3861 0aa1 18       		.uleb128 0x18
 3862 0aa2 12000000 		.4byte	.LVL126
 3863 0aa6 97030000 		.4byte	0x397
 3864 0aaa B40A0000 		.4byte	0xab4
 3865 0aae 0F       		.uleb128 0xf
 3866 0aaf 01       		.byte	0x1
 3867 0ab0 50       		.byte	0x50
 3868 0ab1 01       		.byte	0x1
 3869 0ab2 32       		.byte	0x32
 3870 0ab3 00       		.byte	0
 3871 0ab4 18       		.uleb128 0x18
 3872 0ab5 1A000000 		.4byte	.LVL127
 3873 0ab9 97030000 		.4byte	0x397
 3874 0abd C70A0000 		.4byte	0xac7
 3875 0ac1 0F       		.uleb128 0xf
 3876 0ac2 01       		.byte	0x1
 3877 0ac3 50       		.byte	0x50
 3878 0ac4 01       		.byte	0x1
 3879 0ac5 33       		.byte	0x33
 3880 0ac6 00       		.byte	0
 3881 0ac7 0E       		.uleb128 0xe
 3882 0ac8 22000000 		.4byte	.LVL128
 3883 0acc 97030000 		.4byte	0x397
 3884 0ad0 0F       		.uleb128 0xf
 3885 0ad1 01       		.byte	0x1
 3886 0ad2 50       		.byte	0x50
 3887 0ad3 01       		.byte	0x1
 3888 0ad4 34       		.byte	0x34
 3889 0ad5 00       		.byte	0
 3890 0ad6 00       		.byte	0
 3891 0ad7 1D       		.uleb128 0x1d
 3892 0ad8 01       		.byte	0x1
 3893 0ad9 00000000 		.4byte	.LASF55
 3894 0add 01       		.byte	0x1
 3895 0ade E901     		.2byte	0x1e9
 3896 0ae0 01       		.byte	0x1
 3897 0ae1 00000000 		.4byte	.LFB59
 3898 0ae5 26000000 		.4byte	.LFE59
 3899 0ae9 44070000 		.4byte	.LLST54
 3900 0aed 01       		.byte	0x1
 3901 0aee 4B0B0000 		.4byte	0xb4b
 3902 0af2 1E       		.uleb128 0x1e
 3903 0af3 BA010000 		.4byte	.LASF29
 3904 0af7 01       		.byte	0x1
 3905 0af8 E901     		.2byte	0x1e9
 3906 0afa E2000000 		.4byte	0xe2
 3907 0afe 64070000 		.4byte	.LLST55
 3908 0b02 18       		.uleb128 0x18
 3909 0b03 0A000000 		.4byte	.LVL132
 3910 0b07 97030000 		.4byte	0x397
 3911 0b0b 150B0000 		.4byte	0xb15
 3912 0b0f 0F       		.uleb128 0xf
 3913 0b10 01       		.byte	0x1
 3914 0b11 50       		.byte	0x50
ARM GAS  C:\Users\atsu\AppData\Local\Temp\cc7os1vl.s 			page 85


 3915 0b12 01       		.byte	0x1
 3916 0b13 35       		.byte	0x35
 3917 0b14 00       		.byte	0
 3918 0b15 18       		.uleb128 0x18
 3919 0b16 12000000 		.4byte	.LVL133
 3920 0b1a 97030000 		.4byte	0x397
 3921 0b1e 280B0000 		.4byte	0xb28
 3922 0b22 0F       		.uleb128 0xf
 3923 0b23 01       		.byte	0x1
 3924 0b24 50       		.byte	0x50
 3925 0b25 01       		.byte	0x1
 3926 0b26 36       		.byte	0x36
 3927 0b27 00       		.byte	0
 3928 0b28 18       		.uleb128 0x18
 3929 0b29 1A000000 		.4byte	.LVL134
 3930 0b2d 97030000 		.4byte	0x397
 3931 0b31 3B0B0000 		.4byte	0xb3b
 3932 0b35 0F       		.uleb128 0xf
 3933 0b36 01       		.byte	0x1
 3934 0b37 50       		.byte	0x50
 3935 0b38 01       		.byte	0x1
 3936 0b39 37       		.byte	0x37
 3937 0b3a 00       		.byte	0
 3938 0b3b 0E       		.uleb128 0xe
 3939 0b3c 22000000 		.4byte	.LVL135
 3940 0b40 97030000 		.4byte	0x397
 3941 0b44 0F       		.uleb128 0xf
 3942 0b45 01       		.byte	0x1
 3943 0b46 50       		.byte	0x50
 3944 0b47 01       		.byte	0x1
 3945 0b48 38       		.byte	0x38
 3946 0b49 00       		.byte	0
 3947 0b4a 00       		.byte	0
 3948 0b4b 1D       		.uleb128 0x1d
 3949 0b4c 01       		.byte	0x1
 3950 0b4d 36010000 		.4byte	.LASF56
 3951 0b51 01       		.byte	0x1
 3952 0b52 F001     		.2byte	0x1f0
 3953 0b54 01       		.byte	0x1
 3954 0b55 00000000 		.4byte	.LFB60
 3955 0b59 36000000 		.4byte	.LFE60
 3956 0b5d 90070000 		.4byte	.LLST56
 3957 0b61 01       		.byte	0x1
 3958 0b62 E50B0000 		.4byte	0xbe5
 3959 0b66 1E       		.uleb128 0x1e
 3960 0b67 BA010000 		.4byte	.LASF29
 3961 0b6b 01       		.byte	0x1
 3962 0b6c F001     		.2byte	0x1f0
 3963 0b6e E2000000 		.4byte	0xe2
 3964 0b72 B0070000 		.4byte	.LLST57
 3965 0b76 18       		.uleb128 0x18
 3966 0b77 0A000000 		.4byte	.LVL139
 3967 0b7b 97030000 		.4byte	0x397
 3968 0b7f 890B0000 		.4byte	0xb89
 3969 0b83 0F       		.uleb128 0xf
 3970 0b84 01       		.byte	0x1
 3971 0b85 50       		.byte	0x50
ARM GAS  C:\Users\atsu\AppData\Local\Temp\cc7os1vl.s 			page 86


 3972 0b86 01       		.byte	0x1
 3973 0b87 39       		.byte	0x39
 3974 0b88 00       		.byte	0
 3975 0b89 18       		.uleb128 0x18
 3976 0b8a 12000000 		.4byte	.LVL140
 3977 0b8e 97030000 		.4byte	0x397
 3978 0b92 9C0B0000 		.4byte	0xb9c
 3979 0b96 0F       		.uleb128 0xf
 3980 0b97 01       		.byte	0x1
 3981 0b98 50       		.byte	0x50
 3982 0b99 01       		.byte	0x1
 3983 0b9a 3A       		.byte	0x3a
 3984 0b9b 00       		.byte	0
 3985 0b9c 18       		.uleb128 0x18
 3986 0b9d 1A000000 		.4byte	.LVL141
 3987 0ba1 97030000 		.4byte	0x397
 3988 0ba5 AF0B0000 		.4byte	0xbaf
 3989 0ba9 0F       		.uleb128 0xf
 3990 0baa 01       		.byte	0x1
 3991 0bab 50       		.byte	0x50
 3992 0bac 01       		.byte	0x1
 3993 0bad 3B       		.byte	0x3b
 3994 0bae 00       		.byte	0
 3995 0baf 18       		.uleb128 0x18
 3996 0bb0 22000000 		.4byte	.LVL142
 3997 0bb4 97030000 		.4byte	0x397
 3998 0bb8 C20B0000 		.4byte	0xbc2
 3999 0bbc 0F       		.uleb128 0xf
 4000 0bbd 01       		.byte	0x1
 4001 0bbe 50       		.byte	0x50
 4002 0bbf 01       		.byte	0x1
 4003 0bc0 3C       		.byte	0x3c
 4004 0bc1 00       		.byte	0
 4005 0bc2 18       		.uleb128 0x18
 4006 0bc3 2A000000 		.4byte	.LVL143
 4007 0bc7 97030000 		.4byte	0x397
 4008 0bcb D50B0000 		.4byte	0xbd5
 4009 0bcf 0F       		.uleb128 0xf
 4010 0bd0 01       		.byte	0x1
 4011 0bd1 50       		.byte	0x50
 4012 0bd2 01       		.byte	0x1
 4013 0bd3 3D       		.byte	0x3d
 4014 0bd4 00       		.byte	0
 4015 0bd5 0E       		.uleb128 0xe
 4016 0bd6 32000000 		.4byte	.LVL144
 4017 0bda 97030000 		.4byte	0x397
 4018 0bde 0F       		.uleb128 0xf
 4019 0bdf 01       		.byte	0x1
 4020 0be0 50       		.byte	0x50
 4021 0be1 01       		.byte	0x1
 4022 0be2 3E       		.byte	0x3e
 4023 0be3 00       		.byte	0
 4024 0be4 00       		.byte	0
 4025 0be5 1D       		.uleb128 0x1d
 4026 0be6 01       		.byte	0x1
 4027 0be7 56000000 		.4byte	.LASF57
 4028 0beb 01       		.byte	0x1
ARM GAS  C:\Users\atsu\AppData\Local\Temp\cc7os1vl.s 			page 87


 4029 0bec F901     		.2byte	0x1f9
 4030 0bee 01       		.byte	0x1
 4031 0bef 00000000 		.4byte	.LFB61
 4032 0bf3 26000000 		.4byte	.LFE61
 4033 0bf7 DC070000 		.4byte	.LLST58
 4034 0bfb 01       		.byte	0x1
 4035 0bfc 590C0000 		.4byte	0xc59
 4036 0c00 1E       		.uleb128 0x1e
 4037 0c01 BA010000 		.4byte	.LASF29
 4038 0c05 01       		.byte	0x1
 4039 0c06 F901     		.2byte	0x1f9
 4040 0c08 E2000000 		.4byte	0xe2
 4041 0c0c FC070000 		.4byte	.LLST59
 4042 0c10 18       		.uleb128 0x18
 4043 0c11 0A000000 		.4byte	.LVL148
 4044 0c15 97030000 		.4byte	0x397
 4045 0c19 230C0000 		.4byte	0xc23
 4046 0c1d 0F       		.uleb128 0xf
 4047 0c1e 01       		.byte	0x1
 4048 0c1f 50       		.byte	0x50
 4049 0c20 01       		.byte	0x1
 4050 0c21 3F       		.byte	0x3f
 4051 0c22 00       		.byte	0
 4052 0c23 18       		.uleb128 0x18
 4053 0c24 12000000 		.4byte	.LVL149
 4054 0c28 97030000 		.4byte	0x397
 4055 0c2c 360C0000 		.4byte	0xc36
 4056 0c30 0F       		.uleb128 0xf
 4057 0c31 01       		.byte	0x1
 4058 0c32 50       		.byte	0x50
 4059 0c33 01       		.byte	0x1
 4060 0c34 40       		.byte	0x40
 4061 0c35 00       		.byte	0
 4062 0c36 18       		.uleb128 0x18
 4063 0c37 1A000000 		.4byte	.LVL150
 4064 0c3b 97030000 		.4byte	0x397
 4065 0c3f 490C0000 		.4byte	0xc49
 4066 0c43 0F       		.uleb128 0xf
 4067 0c44 01       		.byte	0x1
 4068 0c45 50       		.byte	0x50
 4069 0c46 01       		.byte	0x1
 4070 0c47 41       		.byte	0x41
 4071 0c48 00       		.byte	0
 4072 0c49 0E       		.uleb128 0xe
 4073 0c4a 22000000 		.4byte	.LVL151
 4074 0c4e 97030000 		.4byte	0x397
 4075 0c52 0F       		.uleb128 0xf
 4076 0c53 01       		.byte	0x1
 4077 0c54 50       		.byte	0x50
 4078 0c55 01       		.byte	0x1
 4079 0c56 42       		.byte	0x42
 4080 0c57 00       		.byte	0
 4081 0c58 00       		.byte	0
 4082 0c59 1D       		.uleb128 0x1d
 4083 0c5a 01       		.byte	0x1
 4084 0c5b DC020000 		.4byte	.LASF58
 4085 0c5f 01       		.byte	0x1
ARM GAS  C:\Users\atsu\AppData\Local\Temp\cc7os1vl.s 			page 88


 4086 0c60 0502     		.2byte	0x205
 4087 0c62 01       		.byte	0x1
 4088 0c63 00000000 		.4byte	.LFB62
 4089 0c67 4E000000 		.4byte	.LFE62
 4090 0c6b 28080000 		.4byte	.LLST60
 4091 0c6f 01       		.byte	0x1
 4092 0c70 070D0000 		.4byte	0xd07
 4093 0c74 21       		.uleb128 0x21
 4094 0c75 7300     		.ascii	"s\000"
 4095 0c77 01       		.byte	0x1
 4096 0c78 0502     		.2byte	0x205
 4097 0c7a D7000000 		.4byte	0xd7
 4098 0c7e 48080000 		.4byte	.LLST61
 4099 0c82 1E       		.uleb128 0x1e
 4100 0c83 BA010000 		.4byte	.LASF29
 4101 0c87 01       		.byte	0x1
 4102 0c88 0502     		.2byte	0x205
 4103 0c8a E2000000 		.4byte	0xe2
 4104 0c8e 69080000 		.4byte	.LLST62
 4105 0c92 18       		.uleb128 0x18
 4106 0c93 12000000 		.4byte	.LVL156
 4107 0c97 97030000 		.4byte	0x397
 4108 0c9b A60C0000 		.4byte	0xca6
 4109 0c9f 0F       		.uleb128 0xf
 4110 0ca0 01       		.byte	0x1
 4111 0ca1 50       		.byte	0x50
 4112 0ca2 02       		.byte	0x2
 4113 0ca3 75       		.byte	0x75
 4114 0ca4 06       		.sleb128 6
 4115 0ca5 00       		.byte	0
 4116 0ca6 18       		.uleb128 0x18
 4117 0ca7 1C000000 		.4byte	.LVL157
 4118 0cab 97030000 		.4byte	0x397
 4119 0caf BA0C0000 		.4byte	0xcba
 4120 0cb3 0F       		.uleb128 0xf
 4121 0cb4 01       		.byte	0x1
 4122 0cb5 50       		.byte	0x50
 4123 0cb6 02       		.byte	0x2
 4124 0cb7 75       		.byte	0x75
 4125 0cb8 07       		.sleb128 7
 4126 0cb9 00       		.byte	0
 4127 0cba 18       		.uleb128 0x18
 4128 0cbb 28000000 		.4byte	.LVL158
 4129 0cbf 97030000 		.4byte	0x397
 4130 0cc3 CE0C0000 		.4byte	0xcce
 4131 0cc7 0F       		.uleb128 0xf
 4132 0cc8 01       		.byte	0x1
 4133 0cc9 50       		.byte	0x50
 4134 0cca 02       		.byte	0x2
 4135 0ccb 75       		.byte	0x75
 4136 0ccc 08       		.sleb128 8
 4137 0ccd 00       		.byte	0
 4138 0cce 18       		.uleb128 0x18
 4139 0ccf 34000000 		.4byte	.LVL159
 4140 0cd3 97030000 		.4byte	0x397
 4141 0cd7 E20C0000 		.4byte	0xce2
 4142 0cdb 0F       		.uleb128 0xf
ARM GAS  C:\Users\atsu\AppData\Local\Temp\cc7os1vl.s 			page 89


 4143 0cdc 01       		.byte	0x1
 4144 0cdd 50       		.byte	0x50
 4145 0cde 02       		.byte	0x2
 4146 0cdf 75       		.byte	0x75
 4147 0ce0 09       		.sleb128 9
 4148 0ce1 00       		.byte	0
 4149 0ce2 18       		.uleb128 0x18
 4150 0ce3 40000000 		.4byte	.LVL160
 4151 0ce7 97030000 		.4byte	0x397
 4152 0ceb F60C0000 		.4byte	0xcf6
 4153 0cef 0F       		.uleb128 0xf
 4154 0cf0 01       		.byte	0x1
 4155 0cf1 50       		.byte	0x50
 4156 0cf2 02       		.byte	0x2
 4157 0cf3 75       		.byte	0x75
 4158 0cf4 0A       		.sleb128 10
 4159 0cf5 00       		.byte	0
 4160 0cf6 0E       		.uleb128 0xe
 4161 0cf7 4A000000 		.4byte	.LVL161
 4162 0cfb 97030000 		.4byte	0x397
 4163 0cff 0F       		.uleb128 0xf
 4164 0d00 01       		.byte	0x1
 4165 0d01 50       		.byte	0x50
 4166 0d02 02       		.byte	0x2
 4167 0d03 75       		.byte	0x75
 4168 0d04 00       		.sleb128 0
 4169 0d05 00       		.byte	0
 4170 0d06 00       		.byte	0
 4171 0d07 1D       		.uleb128 0x1d
 4172 0d08 01       		.byte	0x1
 4173 0d09 B9000000 		.4byte	.LASF59
 4174 0d0d 01       		.byte	0x1
 4175 0d0e 0E02     		.2byte	0x20e
 4176 0d10 01       		.byte	0x1
 4177 0d11 00000000 		.4byte	.LFB63
 4178 0d15 4E000000 		.4byte	.LFE63
 4179 0d19 95080000 		.4byte	.LLST63
 4180 0d1d 01       		.byte	0x1
 4181 0d1e B50D0000 		.4byte	0xdb5
 4182 0d22 21       		.uleb128 0x21
 4183 0d23 7300     		.ascii	"s\000"
 4184 0d25 01       		.byte	0x1
 4185 0d26 0E02     		.2byte	0x20e
 4186 0d28 D7000000 		.4byte	0xd7
 4187 0d2c B5080000 		.4byte	.LLST64
 4188 0d30 1E       		.uleb128 0x1e
 4189 0d31 BA010000 		.4byte	.LASF29
 4190 0d35 01       		.byte	0x1
 4191 0d36 0E02     		.2byte	0x20e
 4192 0d38 E2000000 		.4byte	0xe2
 4193 0d3c D6080000 		.4byte	.LLST65
 4194 0d40 18       		.uleb128 0x18
 4195 0d41 14000000 		.4byte	.LVL166
 4196 0d45 F6020000 		.4byte	0x2f6
 4197 0d49 540D0000 		.4byte	0xd54
 4198 0d4d 0F       		.uleb128 0xf
 4199 0d4e 01       		.byte	0x1
ARM GAS  C:\Users\atsu\AppData\Local\Temp\cc7os1vl.s 			page 90


 4200 0d4f 50       		.byte	0x50
 4201 0d50 02       		.byte	0x2
 4202 0d51 75       		.byte	0x75
 4203 0d52 06       		.sleb128 6
 4204 0d53 00       		.byte	0
 4205 0d54 18       		.uleb128 0x18
 4206 0d55 1E000000 		.4byte	.LVL167
 4207 0d59 F6020000 		.4byte	0x2f6
 4208 0d5d 680D0000 		.4byte	0xd68
 4209 0d61 0F       		.uleb128 0xf
 4210 0d62 01       		.byte	0x1
 4211 0d63 50       		.byte	0x50
 4212 0d64 02       		.byte	0x2
 4213 0d65 75       		.byte	0x75
 4214 0d66 07       		.sleb128 7
 4215 0d67 00       		.byte	0
 4216 0d68 18       		.uleb128 0x18
 4217 0d69 2A000000 		.4byte	.LVL168
 4218 0d6d F6020000 		.4byte	0x2f6
 4219 0d71 7C0D0000 		.4byte	0xd7c
 4220 0d75 0F       		.uleb128 0xf
 4221 0d76 01       		.byte	0x1
 4222 0d77 50       		.byte	0x50
 4223 0d78 02       		.byte	0x2
 4224 0d79 75       		.byte	0x75
 4225 0d7a 08       		.sleb128 8
 4226 0d7b 00       		.byte	0
 4227 0d7c 18       		.uleb128 0x18
 4228 0d7d 36000000 		.4byte	.LVL169
 4229 0d81 F6020000 		.4byte	0x2f6
 4230 0d85 900D0000 		.4byte	0xd90
 4231 0d89 0F       		.uleb128 0xf
 4232 0d8a 01       		.byte	0x1
 4233 0d8b 50       		.byte	0x50
 4234 0d8c 02       		.byte	0x2
 4235 0d8d 75       		.byte	0x75
 4236 0d8e 09       		.sleb128 9
 4237 0d8f 00       		.byte	0
 4238 0d90 18       		.uleb128 0x18
 4239 0d91 44000000 		.4byte	.LVL170
 4240 0d95 F6020000 		.4byte	0x2f6
 4241 0d99 A40D0000 		.4byte	0xda4
 4242 0d9d 0F       		.uleb128 0xf
 4243 0d9e 01       		.byte	0x1
 4244 0d9f 50       		.byte	0x50
 4245 0da0 02       		.byte	0x2
 4246 0da1 75       		.byte	0x75
 4247 0da2 7F       		.sleb128 -1
 4248 0da3 00       		.byte	0
 4249 0da4 0E       		.uleb128 0xe
 4250 0da5 4C000000 		.4byte	.LVL171
 4251 0da9 F6020000 		.4byte	0x2f6
 4252 0dad 0F       		.uleb128 0xf
 4253 0dae 01       		.byte	0x1
 4254 0daf 50       		.byte	0x50
 4255 0db0 02       		.byte	0x2
 4256 0db1 75       		.byte	0x75
ARM GAS  C:\Users\atsu\AppData\Local\Temp\cc7os1vl.s 			page 91


 4257 0db2 00       		.sleb128 0
 4258 0db3 00       		.byte	0
 4259 0db4 00       		.byte	0
 4260 0db5 1D       		.uleb128 0x1d
 4261 0db6 01       		.byte	0x1
 4262 0db7 75020000 		.4byte	.LASF60
 4263 0dbb 01       		.byte	0x1
 4264 0dbc 1702     		.2byte	0x217
 4265 0dbe 01       		.byte	0x1
 4266 0dbf 00000000 		.4byte	.LFB64
 4267 0dc3 3A000000 		.4byte	.LFE64
 4268 0dc7 02090000 		.4byte	.LLST66
 4269 0dcb 01       		.byte	0x1
 4270 0dcc 3B0E0000 		.4byte	0xe3b
 4271 0dd0 21       		.uleb128 0x21
 4272 0dd1 7300     		.ascii	"s\000"
 4273 0dd3 01       		.byte	0x1
 4274 0dd4 1702     		.2byte	0x217
 4275 0dd6 D7000000 		.4byte	0xd7
 4276 0dda 22090000 		.4byte	.LLST67
 4277 0dde 1E       		.uleb128 0x1e
 4278 0ddf BA010000 		.4byte	.LASF29
 4279 0de3 01       		.byte	0x1
 4280 0de4 1702     		.2byte	0x217
 4281 0de6 E2000000 		.4byte	0xe2
 4282 0dea 43090000 		.4byte	.LLST68
 4283 0dee 18       		.uleb128 0x18
 4284 0def 14000000 		.4byte	.LVL176
 4285 0df3 97030000 		.4byte	0x397
 4286 0df7 020E0000 		.4byte	0xe02
 4287 0dfb 0F       		.uleb128 0xf
 4288 0dfc 01       		.byte	0x1
 4289 0dfd 50       		.byte	0x50
 4290 0dfe 02       		.byte	0x2
 4291 0dff 75       		.byte	0x75
 4292 0e00 0C       		.sleb128 12
 4293 0e01 00       		.byte	0
 4294 0e02 18       		.uleb128 0x18
 4295 0e03 20000000 		.4byte	.LVL177
 4296 0e07 97030000 		.4byte	0x397
 4297 0e0b 160E0000 		.4byte	0xe16
 4298 0e0f 0F       		.uleb128 0xf
 4299 0e10 01       		.byte	0x1
 4300 0e11 50       		.byte	0x50
 4301 0e12 02       		.byte	0x2
 4302 0e13 75       		.byte	0x75
 4303 0e14 0D       		.sleb128 13
 4304 0e15 00       		.byte	0
 4305 0e16 18       		.uleb128 0x18
 4306 0e17 2C000000 		.4byte	.LVL178
 4307 0e1b 97030000 		.4byte	0x397
 4308 0e1f 2A0E0000 		.4byte	0xe2a
 4309 0e23 0F       		.uleb128 0xf
 4310 0e24 01       		.byte	0x1
 4311 0e25 50       		.byte	0x50
 4312 0e26 02       		.byte	0x2
 4313 0e27 75       		.byte	0x75
ARM GAS  C:\Users\atsu\AppData\Local\Temp\cc7os1vl.s 			page 92


 4314 0e28 0E       		.sleb128 14
 4315 0e29 00       		.byte	0
 4316 0e2a 0E       		.uleb128 0xe
 4317 0e2b 36000000 		.4byte	.LVL179
 4318 0e2f 97030000 		.4byte	0x397
 4319 0e33 0F       		.uleb128 0xf
 4320 0e34 01       		.byte	0x1
 4321 0e35 50       		.byte	0x50
 4322 0e36 02       		.byte	0x2
 4323 0e37 75       		.byte	0x75
 4324 0e38 00       		.sleb128 0
 4325 0e39 00       		.byte	0
 4326 0e3a 00       		.byte	0
 4327 0e3b 1D       		.uleb128 0x1d
 4328 0e3c 01       		.byte	0x1
 4329 0e3d D7030000 		.4byte	.LASF61
 4330 0e41 01       		.byte	0x1
 4331 0e42 1E02     		.2byte	0x21e
 4332 0e44 01       		.byte	0x1
 4333 0e45 00000000 		.4byte	.LFB65
 4334 0e49 3A000000 		.4byte	.LFE65
 4335 0e4d 6F090000 		.4byte	.LLST69
 4336 0e51 01       		.byte	0x1
 4337 0e52 C10E0000 		.4byte	0xec1
 4338 0e56 21       		.uleb128 0x21
 4339 0e57 7300     		.ascii	"s\000"
 4340 0e59 01       		.byte	0x1
 4341 0e5a 1E02     		.2byte	0x21e
 4342 0e5c D7000000 		.4byte	0xd7
 4343 0e60 8F090000 		.4byte	.LLST70
 4344 0e64 1E       		.uleb128 0x1e
 4345 0e65 BA010000 		.4byte	.LASF29
 4346 0e69 01       		.byte	0x1
 4347 0e6a 1E02     		.2byte	0x21e
 4348 0e6c E2000000 		.4byte	0xe2
 4349 0e70 B0090000 		.4byte	.LLST71
 4350 0e74 18       		.uleb128 0x18
 4351 0e75 16000000 		.4byte	.LVL184
 4352 0e79 F6020000 		.4byte	0x2f6
 4353 0e7d 880E0000 		.4byte	0xe88
 4354 0e81 0F       		.uleb128 0xf
 4355 0e82 01       		.byte	0x1
 4356 0e83 50       		.byte	0x50
 4357 0e84 02       		.byte	0x2
 4358 0e85 75       		.byte	0x75
 4359 0e86 0C       		.sleb128 12
 4360 0e87 00       		.byte	0
 4361 0e88 18       		.uleb128 0x18
 4362 0e89 22000000 		.4byte	.LVL185
 4363 0e8d F6020000 		.4byte	0x2f6
 4364 0e91 9C0E0000 		.4byte	0xe9c
 4365 0e95 0F       		.uleb128 0xf
 4366 0e96 01       		.byte	0x1
 4367 0e97 50       		.byte	0x50
 4368 0e98 02       		.byte	0x2
 4369 0e99 75       		.byte	0x75
 4370 0e9a 0D       		.sleb128 13
ARM GAS  C:\Users\atsu\AppData\Local\Temp\cc7os1vl.s 			page 93


 4371 0e9b 00       		.byte	0
 4372 0e9c 18       		.uleb128 0x18
 4373 0e9d 30000000 		.4byte	.LVL186
 4374 0ea1 F6020000 		.4byte	0x2f6
 4375 0ea5 B00E0000 		.4byte	0xeb0
 4376 0ea9 0F       		.uleb128 0xf
 4377 0eaa 01       		.byte	0x1
 4378 0eab 50       		.byte	0x50
 4379 0eac 02       		.byte	0x2
 4380 0ead 75       		.byte	0x75
 4381 0eae 7F       		.sleb128 -1
 4382 0eaf 00       		.byte	0
 4383 0eb0 0E       		.uleb128 0xe
 4384 0eb1 38000000 		.4byte	.LVL187
 4385 0eb5 F6020000 		.4byte	0x2f6
 4386 0eb9 0F       		.uleb128 0xf
 4387 0eba 01       		.byte	0x1
 4388 0ebb 50       		.byte	0x50
 4389 0ebc 02       		.byte	0x2
 4390 0ebd 75       		.byte	0x75
 4391 0ebe 00       		.sleb128 0
 4392 0ebf 00       		.byte	0
 4393 0ec0 00       		.byte	0
 4394 0ec1 1D       		.uleb128 0x1d
 4395 0ec2 01       		.byte	0x1
 4396 0ec3 D0020000 		.4byte	.LASF62
 4397 0ec7 01       		.byte	0x1
 4398 0ec8 2502     		.2byte	0x225
 4399 0eca 01       		.byte	0x1
 4400 0ecb 00000000 		.4byte	.LFB66
 4401 0ecf 22000000 		.4byte	.LFE66
 4402 0ed3 DC090000 		.4byte	.LLST72
 4403 0ed7 01       		.byte	0x1
 4404 0ed8 1F0F0000 		.4byte	0xf1f
 4405 0edc 21       		.uleb128 0x21
 4406 0edd 7300     		.ascii	"s\000"
 4407 0edf 01       		.byte	0x1
 4408 0ee0 2502     		.2byte	0x225
 4409 0ee2 D7000000 		.4byte	0xd7
 4410 0ee6 FC090000 		.4byte	.LLST73
 4411 0eea 1E       		.uleb128 0x1e
 4412 0eeb BA010000 		.4byte	.LASF29
 4413 0eef 01       		.byte	0x1
 4414 0ef0 2502     		.2byte	0x225
 4415 0ef2 E2000000 		.4byte	0xe2
 4416 0ef6 1D0A0000 		.4byte	.LLST74
 4417 0efa 18       		.uleb128 0x18
 4418 0efb 14000000 		.4byte	.LVL192
 4419 0eff 97030000 		.4byte	0x397
 4420 0f03 0E0F0000 		.4byte	0xf0e
 4421 0f07 0F       		.uleb128 0xf
 4422 0f08 01       		.byte	0x1
 4423 0f09 50       		.byte	0x50
 4424 0f0a 02       		.byte	0x2
 4425 0f0b 75       		.byte	0x75
 4426 0f0c 10       		.sleb128 16
 4427 0f0d 00       		.byte	0
ARM GAS  C:\Users\atsu\AppData\Local\Temp\cc7os1vl.s 			page 94


 4428 0f0e 0E       		.uleb128 0xe
 4429 0f0f 1E000000 		.4byte	.LVL193
 4430 0f13 97030000 		.4byte	0x397
 4431 0f17 0F       		.uleb128 0xf
 4432 0f18 01       		.byte	0x1
 4433 0f19 50       		.byte	0x50
 4434 0f1a 02       		.byte	0x2
 4435 0f1b 75       		.byte	0x75
 4436 0f1c 00       		.sleb128 0
 4437 0f1d 00       		.byte	0
 4438 0f1e 00       		.byte	0
 4439 0f1f 1D       		.uleb128 0x1d
 4440 0f20 01       		.byte	0x1
 4441 0f21 3D040000 		.4byte	.LASF63
 4442 0f25 01       		.byte	0x1
 4443 0f26 2A02     		.2byte	0x22a
 4444 0f28 01       		.byte	0x1
 4445 0f29 00000000 		.4byte	.LFB67
 4446 0f2d 22000000 		.4byte	.LFE67
 4447 0f31 490A0000 		.4byte	.LLST75
 4448 0f35 01       		.byte	0x1
 4449 0f36 7D0F0000 		.4byte	0xf7d
 4450 0f3a 21       		.uleb128 0x21
 4451 0f3b 7300     		.ascii	"s\000"
 4452 0f3d 01       		.byte	0x1
 4453 0f3e 2A02     		.2byte	0x22a
 4454 0f40 D7000000 		.4byte	0xd7
 4455 0f44 690A0000 		.4byte	.LLST76
 4456 0f48 1E       		.uleb128 0x1e
 4457 0f49 BA010000 		.4byte	.LASF29
 4458 0f4d 01       		.byte	0x1
 4459 0f4e 2A02     		.2byte	0x22a
 4460 0f50 E2000000 		.4byte	0xe2
 4461 0f54 8A0A0000 		.4byte	.LLST77
 4462 0f58 18       		.uleb128 0x18
 4463 0f59 18000000 		.4byte	.LVL198
 4464 0f5d F6020000 		.4byte	0x2f6
 4465 0f61 6C0F0000 		.4byte	0xf6c
 4466 0f65 0F       		.uleb128 0xf
 4467 0f66 01       		.byte	0x1
 4468 0f67 50       		.byte	0x50
 4469 0f68 02       		.byte	0x2
 4470 0f69 75       		.byte	0x75
 4471 0f6a 7F       		.sleb128 -1
 4472 0f6b 00       		.byte	0
 4473 0f6c 0E       		.uleb128 0xe
 4474 0f6d 20000000 		.4byte	.LVL199
 4475 0f71 F6020000 		.4byte	0x2f6
 4476 0f75 0F       		.uleb128 0xf
 4477 0f76 01       		.byte	0x1
 4478 0f77 50       		.byte	0x50
 4479 0f78 02       		.byte	0x2
 4480 0f79 75       		.byte	0x75
 4481 0f7a 00       		.sleb128 0
 4482 0f7b 00       		.byte	0
 4483 0f7c 00       		.byte	0
 4484 0f7d 1D       		.uleb128 0x1d
ARM GAS  C:\Users\atsu\AppData\Local\Temp\cc7os1vl.s 			page 95


 4485 0f7e 01       		.byte	0x1
 4486 0f7f 99020000 		.4byte	.LASF64
 4487 0f83 01       		.byte	0x1
 4488 0f84 3402     		.2byte	0x234
 4489 0f86 01       		.byte	0x1
 4490 0f87 00000000 		.4byte	.LFB68
 4491 0f8b 22000000 		.4byte	.LFE68
 4492 0f8f B60A0000 		.4byte	.LLST78
 4493 0f93 01       		.byte	0x1
 4494 0f94 E90F0000 		.4byte	0xfe9
 4495 0f98 21       		.uleb128 0x21
 4496 0f99 7300     		.ascii	"s\000"
 4497 0f9b 01       		.byte	0x1
 4498 0f9c 3402     		.2byte	0x234
 4499 0f9e D7000000 		.4byte	0xd7
 4500 0fa2 D60A0000 		.4byte	.LLST79
 4501 0fa6 1E       		.uleb128 0x1e
 4502 0fa7 17030000 		.4byte	.LASF65
 4503 0fab 01       		.byte	0x1
 4504 0fac 3402     		.2byte	0x234
 4505 0fae 88000000 		.4byte	0x88
 4506 0fb2 F70A0000 		.4byte	.LLST80
 4507 0fb6 18       		.uleb128 0x18
 4508 0fb7 18000000 		.4byte	.LVL204
 4509 0fbb F6020000 		.4byte	0x2f6
 4510 0fbf D20F0000 		.4byte	0xfd2
 4511 0fc3 0F       		.uleb128 0xf
 4512 0fc4 01       		.byte	0x1
 4513 0fc5 51       		.byte	0x51
 4514 0fc6 04       		.byte	0x4
 4515 0fc7 74       		.byte	0x74
 4516 0fc8 00       		.sleb128 0
 4517 0fc9 38       		.byte	0x38
 4518 0fca 25       		.byte	0x25
 4519 0fcb 0F       		.uleb128 0xf
 4520 0fcc 01       		.byte	0x1
 4521 0fcd 50       		.byte	0x50
 4522 0fce 02       		.byte	0x2
 4523 0fcf 75       		.byte	0x75
 4524 0fd0 7F       		.sleb128 -1
 4525 0fd1 00       		.byte	0
 4526 0fd2 0E       		.uleb128 0xe
 4527 0fd3 20000000 		.4byte	.LVL205
 4528 0fd7 F6020000 		.4byte	0x2f6
 4529 0fdb 0F       		.uleb128 0xf
 4530 0fdc 01       		.byte	0x1
 4531 0fdd 51       		.byte	0x51
 4532 0fde 02       		.byte	0x2
 4533 0fdf 74       		.byte	0x74
 4534 0fe0 00       		.sleb128 0
 4535 0fe1 0F       		.uleb128 0xf
 4536 0fe2 01       		.byte	0x1
 4537 0fe3 50       		.byte	0x50
 4538 0fe4 02       		.byte	0x2
 4539 0fe5 75       		.byte	0x75
 4540 0fe6 00       		.sleb128 0
 4541 0fe7 00       		.byte	0
ARM GAS  C:\Users\atsu\AppData\Local\Temp\cc7os1vl.s 			page 96


 4542 0fe8 00       		.byte	0
 4543 0fe9 1D       		.uleb128 0x1d
 4544 0fea 01       		.byte	0x1
 4545 0feb 17000000 		.4byte	.LASF66
 4546 0fef 01       		.byte	0x1
 4547 0ff0 3A02     		.2byte	0x23a
 4548 0ff2 01       		.byte	0x1
 4549 0ff3 00000000 		.4byte	.LFB69
 4550 0ff7 14000000 		.4byte	.LFE69
 4551 0ffb 180B0000 		.4byte	.LLST81
 4552 0fff 01       		.byte	0x1
 4553 1000 2C100000 		.4byte	0x102c
 4554 1004 21       		.uleb128 0x21
 4555 1005 7300     		.ascii	"s\000"
 4556 1007 01       		.byte	0x1
 4557 1008 3A02     		.2byte	0x23a
 4558 100a D7000000 		.4byte	0xd7
 4559 100e 380B0000 		.4byte	.LLST82
 4560 1012 21       		.uleb128 0x21
 4561 1013 74746C00 		.ascii	"ttl\000"
 4562 1017 01       		.byte	0x1
 4563 1018 3A02     		.2byte	0x23a
 4564 101a 7D000000 		.4byte	0x7d
 4565 101e 590B0000 		.4byte	.LLST83
 4566 1022 17       		.uleb128 0x17
 4567 1023 0E000000 		.4byte	.LVL208
 4568 1027 F6020000 		.4byte	0x2f6
 4569 102b 00       		.byte	0
 4570 102c 1D       		.uleb128 0x1d
 4571 102d 01       		.byte	0x1
 4572 102e BF020000 		.4byte	.LASF67
 4573 1032 01       		.byte	0x1
 4574 1033 4402     		.2byte	0x244
 4575 1035 01       		.byte	0x1
 4576 1036 00000000 		.4byte	.LFB70
 4577 103a 14000000 		.4byte	.LFE70
 4578 103e 7A0B0000 		.4byte	.LLST84
 4579 1042 01       		.byte	0x1
 4580 1043 6F100000 		.4byte	0x106f
 4581 1047 21       		.uleb128 0x21
 4582 1048 7300     		.ascii	"s\000"
 4583 104a 01       		.byte	0x1
 4584 104b 4402     		.2byte	0x244
 4585 104d D7000000 		.4byte	0xd7
 4586 1051 9A0B0000 		.4byte	.LLST85
 4587 1055 1E       		.uleb128 0x1e
 4588 1056 D2010000 		.4byte	.LASF68
 4589 105a 01       		.byte	0x1
 4590 105b 4402     		.2byte	0x244
 4591 105d 7D000000 		.4byte	0x7d
 4592 1061 BB0B0000 		.4byte	.LLST86
 4593 1065 17       		.uleb128 0x17
 4594 1066 0E000000 		.4byte	.LVL211
 4595 106a F6020000 		.4byte	0x2f6
 4596 106e 00       		.byte	0
 4597 106f 23       		.uleb128 0x23
 4598 1070 01       		.byte	0x1
ARM GAS  C:\Users\atsu\AppData\Local\Temp\cc7os1vl.s 			page 97


 4599 1071 21020000 		.4byte	.LASF69
 4600 1075 01       		.byte	0x1
 4601 1076 4F02     		.2byte	0x24f
 4602 1078 01       		.byte	0x1
 4603 1079 7D000000 		.4byte	0x7d
 4604 107d 00000000 		.4byte	.LFB71
 4605 1081 14000000 		.4byte	.LFE71
 4606 1085 DC0B0000 		.4byte	.LLST87
 4607 1089 01       		.byte	0x1
 4608 108a A6100000 		.4byte	0x10a6
 4609 108e 21       		.uleb128 0x21
 4610 108f 7300     		.ascii	"s\000"
 4611 1091 01       		.byte	0x1
 4612 1092 4F02     		.2byte	0x24f
 4613 1094 D7000000 		.4byte	0xd7
 4614 1098 FC0B0000 		.4byte	.LLST88
 4615 109c 17       		.uleb128 0x17
 4616 109d 0E000000 		.4byte	.LVL214
 4617 10a1 97030000 		.4byte	0x397
 4618 10a5 00       		.byte	0
 4619 10a6 23       		.uleb128 0x23
 4620 10a7 01       		.byte	0x1
 4621 10a8 D0000000 		.4byte	.LASF70
 4622 10ac 01       		.byte	0x1
 4623 10ad 5802     		.2byte	0x258
 4624 10af 01       		.byte	0x1
 4625 10b0 7D000000 		.4byte	0x7d
 4626 10b4 00000000 		.4byte	.LFB72
 4627 10b8 14000000 		.4byte	.LFE72
 4628 10bc 1D0C0000 		.4byte	.LLST89
 4629 10c0 01       		.byte	0x1
 4630 10c1 DD100000 		.4byte	0x10dd
 4631 10c5 21       		.uleb128 0x21
 4632 10c6 7300     		.ascii	"s\000"
 4633 10c8 01       		.byte	0x1
 4634 10c9 5802     		.2byte	0x258
 4635 10cb D7000000 		.4byte	0xd7
 4636 10cf 3D0C0000 		.4byte	.LLST90
 4637 10d3 17       		.uleb128 0x17
 4638 10d4 0E000000 		.4byte	.LVL217
 4639 10d8 97030000 		.4byte	0x397
 4640 10dc 00       		.byte	0
 4641 10dd 23       		.uleb128 0x23
 4642 10de 01       		.byte	0x1
 4643 10df 4F030000 		.4byte	.LASF71
 4644 10e3 01       		.byte	0x1
 4645 10e4 6402     		.2byte	0x264
 4646 10e6 01       		.byte	0x1
 4647 10e7 88000000 		.4byte	0x88
 4648 10eb 00000000 		.4byte	.LFB73
 4649 10ef 48000000 		.4byte	.LFE73
 4650 10f3 5E0C0000 		.4byte	.LLST91
 4651 10f7 01       		.byte	0x1
 4652 10f8 77110000 		.4byte	0x1177
 4653 10fc 21       		.uleb128 0x21
 4654 10fd 7300     		.ascii	"s\000"
 4655 10ff 01       		.byte	0x1
ARM GAS  C:\Users\atsu\AppData\Local\Temp\cc7os1vl.s 			page 98


 4656 1100 6402     		.2byte	0x264
 4657 1102 D7000000 		.4byte	0xd7
 4658 1106 7E0C0000 		.4byte	.LLST92
 4659 110a 1F       		.uleb128 0x1f
 4660 110b 76616C00 		.ascii	"val\000"
 4661 110f 01       		.byte	0x1
 4662 1110 6602     		.2byte	0x266
 4663 1112 88000000 		.4byte	0x88
 4664 1116 9F0C0000 		.4byte	.LLST93
 4665 111a 20       		.uleb128 0x20
 4666 111b 0B040000 		.4byte	.LASF72
 4667 111f 01       		.byte	0x1
 4668 1120 6602     		.2byte	0x266
 4669 1122 88000000 		.4byte	0x88
 4670 1126 E40C0000 		.4byte	.LLST94
 4671 112a 18       		.uleb128 0x18
 4672 112b 1A000000 		.4byte	.LVL221
 4673 112f 97030000 		.4byte	0x397
 4674 1133 3E110000 		.4byte	0x113e
 4675 1137 0F       		.uleb128 0xf
 4676 1138 01       		.byte	0x1
 4677 1139 50       		.byte	0x50
 4678 113a 02       		.byte	0x2
 4679 113b 76       		.byte	0x76
 4680 113c 00       		.sleb128 0
 4681 113d 00       		.byte	0
 4682 113e 18       		.uleb128 0x18
 4683 113f 22000000 		.4byte	.LVL223
 4684 1143 97030000 		.4byte	0x397
 4685 1147 52110000 		.4byte	0x1152
 4686 114b 0F       		.uleb128 0xf
 4687 114c 01       		.byte	0x1
 4688 114d 50       		.byte	0x50
 4689 114e 02       		.byte	0x2
 4690 114f 77       		.byte	0x77
 4691 1150 00       		.sleb128 0
 4692 1151 00       		.byte	0
 4693 1152 18       		.uleb128 0x18
 4694 1153 32000000 		.4byte	.LVL225
 4695 1157 97030000 		.4byte	0x397
 4696 115b 66110000 		.4byte	0x1166
 4697 115f 0F       		.uleb128 0xf
 4698 1160 01       		.byte	0x1
 4699 1161 50       		.byte	0x50
 4700 1162 02       		.byte	0x2
 4701 1163 76       		.byte	0x76
 4702 1164 00       		.sleb128 0
 4703 1165 00       		.byte	0
 4704 1166 0E       		.uleb128 0xe
 4705 1167 3A000000 		.4byte	.LVL227
 4706 116b 97030000 		.4byte	0x397
 4707 116f 0F       		.uleb128 0xf
 4708 1170 01       		.byte	0x1
 4709 1171 50       		.byte	0x50
 4710 1172 02       		.byte	0x2
 4711 1173 77       		.byte	0x77
 4712 1174 00       		.sleb128 0
ARM GAS  C:\Users\atsu\AppData\Local\Temp\cc7os1vl.s 			page 99


 4713 1175 00       		.byte	0
 4714 1176 00       		.byte	0
 4715 1177 23       		.uleb128 0x23
 4716 1178 01       		.byte	0x1
 4717 1179 EA030000 		.4byte	.LASF73
 4718 117d 01       		.byte	0x1
 4719 117e 7A02     		.2byte	0x27a
 4720 1180 01       		.byte	0x1
 4721 1181 88000000 		.4byte	0x88
 4722 1185 00000000 		.4byte	.LFB74
 4723 1189 48000000 		.4byte	.LFE74
 4724 118d 1E0D0000 		.4byte	.LLST95
 4725 1191 01       		.byte	0x1
 4726 1192 11120000 		.4byte	0x1211
 4727 1196 21       		.uleb128 0x21
 4728 1197 7300     		.ascii	"s\000"
 4729 1199 01       		.byte	0x1
 4730 119a 7A02     		.2byte	0x27a
 4731 119c D7000000 		.4byte	0xd7
 4732 11a0 3E0D0000 		.4byte	.LLST96
 4733 11a4 1F       		.uleb128 0x1f
 4734 11a5 76616C00 		.ascii	"val\000"
 4735 11a9 01       		.byte	0x1
 4736 11aa 7C02     		.2byte	0x27c
 4737 11ac 88000000 		.4byte	0x88
 4738 11b0 5F0D0000 		.4byte	.LLST97
 4739 11b4 20       		.uleb128 0x20
 4740 11b5 0B040000 		.4byte	.LASF72
 4741 11b9 01       		.byte	0x1
 4742 11ba 7C02     		.2byte	0x27c
 4743 11bc 88000000 		.4byte	0x88
 4744 11c0 A40D0000 		.4byte	.LLST98
 4745 11c4 18       		.uleb128 0x18
 4746 11c5 1A000000 		.4byte	.LVL234
 4747 11c9 97030000 		.4byte	0x397
 4748 11cd D8110000 		.4byte	0x11d8
 4749 11d1 0F       		.uleb128 0xf
 4750 11d2 01       		.byte	0x1
 4751 11d3 50       		.byte	0x50
 4752 11d4 02       		.byte	0x2
 4753 11d5 76       		.byte	0x76
 4754 11d6 00       		.sleb128 0
 4755 11d7 00       		.byte	0
 4756 11d8 18       		.uleb128 0x18
 4757 11d9 22000000 		.4byte	.LVL236
 4758 11dd 97030000 		.4byte	0x397
 4759 11e1 EC110000 		.4byte	0x11ec
 4760 11e5 0F       		.uleb128 0xf
 4761 11e6 01       		.byte	0x1
 4762 11e7 50       		.byte	0x50
 4763 11e8 02       		.byte	0x2
 4764 11e9 77       		.byte	0x77
 4765 11ea 00       		.sleb128 0
 4766 11eb 00       		.byte	0
 4767 11ec 18       		.uleb128 0x18
 4768 11ed 32000000 		.4byte	.LVL238
 4769 11f1 97030000 		.4byte	0x397
ARM GAS  C:\Users\atsu\AppData\Local\Temp\cc7os1vl.s 			page 100


 4770 11f5 00120000 		.4byte	0x1200
 4771 11f9 0F       		.uleb128 0xf
 4772 11fa 01       		.byte	0x1
 4773 11fb 50       		.byte	0x50
 4774 11fc 02       		.byte	0x2
 4775 11fd 76       		.byte	0x76
 4776 11fe 00       		.sleb128 0
 4777 11ff 00       		.byte	0
 4778 1200 0E       		.uleb128 0xe
 4779 1201 3A000000 		.4byte	.LVL240
 4780 1205 97030000 		.4byte	0x397
 4781 1209 0F       		.uleb128 0xf
 4782 120a 01       		.byte	0x1
 4783 120b 50       		.byte	0x50
 4784 120c 02       		.byte	0x2
 4785 120d 77       		.byte	0x77
 4786 120e 00       		.sleb128 0
 4787 120f 00       		.byte	0
 4788 1210 00       		.byte	0
 4789 1211 1D       		.uleb128 0x1d
 4790 1212 01       		.byte	0x1
 4791 1213 63010000 		.4byte	.LASF74
 4792 1217 01       		.byte	0x1
 4793 1218 BB02     		.2byte	0x2bb
 4794 121a 01       		.byte	0x1
 4795 121b 00000000 		.4byte	.LFB77
 4796 121f 44000000 		.4byte	.LFE77
 4797 1223 DE0D0000 		.4byte	.LLST99
 4798 1227 01       		.byte	0x1
 4799 1228 F6120000 		.4byte	0x12f6
 4800 122c 21       		.uleb128 0x21
 4801 122d 7300     		.ascii	"s\000"
 4802 122f 01       		.byte	0x1
 4803 1230 BB02     		.2byte	0x2bb
 4804 1232 D7000000 		.4byte	0xd7
 4805 1236 FE0D0000 		.4byte	.LLST100
 4806 123a 21       		.uleb128 0x21
 4807 123b 73726300 		.ascii	"src\000"
 4808 123f 01       		.byte	0x1
 4809 1240 BB02     		.2byte	0x2bb
 4810 1242 F6120000 		.4byte	0x12f6
 4811 1246 1F0E0000 		.4byte	.LLST101
 4812 124a 21       		.uleb128 0x21
 4813 124b 64737400 		.ascii	"dst\000"
 4814 124f 01       		.byte	0x1
 4815 1250 BB02     		.2byte	0x2bb
 4816 1252 F6120000 		.4byte	0x12f6
 4817 1256 710E0000 		.4byte	.LLST102
 4818 125a 21       		.uleb128 0x21
 4819 125b 6C656E00 		.ascii	"len\000"
 4820 125f 01       		.byte	0x1
 4821 1260 BB02     		.2byte	0x2bb
 4822 1262 88000000 		.4byte	0x88
 4823 1266 920E0000 		.4byte	.LLST103
 4824 126a 20       		.uleb128 0x20
 4825 126b AC030000 		.4byte	.LASF75
 4826 126f 01       		.byte	0x1
ARM GAS  C:\Users\atsu\AppData\Local\Temp\cc7os1vl.s 			page 101


 4827 1270 BD02     		.2byte	0x2bd
 4828 1272 88000000 		.4byte	0x88
 4829 1276 B30E0000 		.4byte	.LLST104
 4830 127a 20       		.uleb128 0x20
 4831 127b A3020000 		.4byte	.LASF76
 4832 127f 01       		.byte	0x1
 4833 1280 BE02     		.2byte	0x2be
 4834 1282 88000000 		.4byte	0x88
 4835 1286 E10E0000 		.4byte	.LLST105
 4836 128a 20       		.uleb128 0x20
 4837 128b 2D030000 		.4byte	.LASF77
 4838 128f 01       		.byte	0x1
 4839 1290 BF02     		.2byte	0x2bf
 4840 1292 E2000000 		.4byte	0xe2
 4841 1296 160F0000 		.4byte	.LLST106
 4842 129a 24       		.uleb128 0x24
 4843 129b 06010000 		.4byte	0x106
 4844 129f 02000000 		.4byte	.LBB30
 4845 12a3 08000000 		.4byte	.LBE30
 4846 12a7 01       		.byte	0x1
 4847 12a8 C102     		.2byte	0x2c1
 4848 12aa B8120000 		.4byte	0x12b8
 4849 12ae 0D       		.uleb128 0xd
 4850 12af 18010000 		.4byte	0x118
 4851 12b3 990F0000 		.4byte	.LLST107
 4852 12b7 00       		.byte	0
 4853 12b8 24       		.uleb128 0x24
 4854 12b9 3E010000 		.4byte	0x13e
 4855 12bd 10000000 		.4byte	.LBB32
 4856 12c1 12000000 		.4byte	.LBE32
 4857 12c5 01       		.byte	0x1
 4858 12c6 C402     		.2byte	0x2c4
 4859 12c8 D2120000 		.4byte	0x12d2
 4860 12cc 25       		.uleb128 0x25
 4861 12cd 50010000 		.4byte	0x150
 4862 12d1 00       		.byte	0
 4863 12d2 18       		.uleb128 0x18
 4864 12d3 2A000000 		.4byte	.LVL254
 4865 12d7 4C040000 		.4byte	0x44c
 4866 12db EC120000 		.4byte	0x12ec
 4867 12df 0F       		.uleb128 0xf
 4868 12e0 01       		.byte	0x1
 4869 12e1 52       		.byte	0x52
 4870 12e2 02       		.byte	0x2
 4871 12e3 77       		.byte	0x77
 4872 12e4 00       		.sleb128 0
 4873 12e5 0F       		.uleb128 0xf
 4874 12e6 01       		.byte	0x1
 4875 12e7 51       		.byte	0x51
 4876 12e8 02       		.byte	0x2
 4877 12e9 76       		.byte	0x76
 4878 12ea 00       		.sleb128 0
 4879 12eb 00       		.byte	0
 4880 12ec 17       		.uleb128 0x17
 4881 12ed 3C000000 		.4byte	.LVL259
 4882 12f1 4C040000 		.4byte	0x44c
 4883 12f5 00       		.byte	0
ARM GAS  C:\Users\atsu\AppData\Local\Temp\cc7os1vl.s 			page 102


 4884 12f6 08       		.uleb128 0x8
 4885 12f7 04       		.byte	0x4
 4886 12f8 B7000000 		.4byte	0xb7
 4887 12fc 1D       		.uleb128 0x1d
 4888 12fd 01       		.byte	0x1
 4889 12fe 17010000 		.4byte	.LASF78
 4890 1302 01       		.byte	0x1
 4891 1303 9102     		.2byte	0x291
 4892 1305 01       		.byte	0x1
 4893 1306 00000000 		.4byte	.LFB75
 4894 130a 50000000 		.4byte	.LFE75
 4895 130e AC0F0000 		.4byte	.LLST108
 4896 1312 01       		.byte	0x1
 4897 1313 D9130000 		.4byte	0x13d9
 4898 1317 21       		.uleb128 0x21
 4899 1318 7300     		.ascii	"s\000"
 4900 131a 01       		.byte	0x1
 4901 131b 9102     		.2byte	0x291
 4902 131d D7000000 		.4byte	0xd7
 4903 1321 CC0F0000 		.4byte	.LLST109
 4904 1325 1E       		.uleb128 0x1e
 4905 1326 12030000 		.4byte	.LASF30
 4906 132a 01       		.byte	0x1
 4907 132b 9102     		.2byte	0x291
 4908 132d E2000000 		.4byte	0xe2
 4909 1331 ED0F0000 		.4byte	.LLST110
 4910 1335 21       		.uleb128 0x21
 4911 1336 6C656E00 		.ascii	"len\000"
 4912 133a 01       		.byte	0x1
 4913 133b 9102     		.2byte	0x291
 4914 133d 88000000 		.4byte	0x88
 4915 1341 0C100000 		.4byte	.LLST111
 4916 1345 1F       		.uleb128 0x1f
 4917 1346 70747200 		.ascii	"ptr\000"
 4918 134a 01       		.byte	0x1
 4919 134b 9302     		.2byte	0x293
 4920 134d 88000000 		.4byte	0x88
 4921 1351 2D100000 		.4byte	.LLST112
 4922 1355 18       		.uleb128 0x18
 4923 1356 1A000000 		.4byte	.LVL262
 4924 135a 97030000 		.4byte	0x397
 4925 135e 69130000 		.4byte	0x1369
 4926 1362 0F       		.uleb128 0xf
 4927 1363 01       		.byte	0x1
 4928 1364 50       		.byte	0x50
 4929 1365 02       		.byte	0x2
 4930 1366 75       		.byte	0x75
 4931 1367 00       		.sleb128 0
 4932 1368 00       		.byte	0
 4933 1369 18       		.uleb128 0x18
 4934 136a 26000000 		.4byte	.LVL265
 4935 136e 97030000 		.4byte	0x397
 4936 1372 7D130000 		.4byte	0x137d
 4937 1376 0F       		.uleb128 0xf
 4938 1377 01       		.byte	0x1
 4939 1378 50       		.byte	0x50
 4940 1379 02       		.byte	0x2
ARM GAS  C:\Users\atsu\AppData\Local\Temp\cc7os1vl.s 			page 103


 4941 137a 74       		.byte	0x74
 4942 137b 00       		.sleb128 0
 4943 137c 00       		.byte	0
 4944 137d 18       		.uleb128 0x18
 4945 137e 38000000 		.4byte	.LVL267
 4946 1382 11120000 		.4byte	0x1211
 4947 1386 A6130000 		.4byte	0x13a6
 4948 138a 0F       		.uleb128 0xf
 4949 138b 01       		.byte	0x1
 4950 138c 53       		.byte	0x53
 4951 138d 04       		.byte	0x4
 4952 138e 91       		.byte	0x91
 4953 138f 60       		.sleb128 -32
 4954 1390 94       		.byte	0x94
 4955 1391 02       		.byte	0x2
 4956 1392 0F       		.uleb128 0xf
 4957 1393 01       		.byte	0x1
 4958 1394 52       		.byte	0x52
 4959 1395 02       		.byte	0x2
 4960 1396 76       		.byte	0x76
 4961 1397 00       		.sleb128 0
 4962 1398 0F       		.uleb128 0xf
 4963 1399 01       		.byte	0x1
 4964 139a 51       		.byte	0x51
 4965 139b 03       		.byte	0x3
 4966 139c 91       		.byte	0x91
 4967 139d 64       		.sleb128 -28
 4968 139e 06       		.byte	0x6
 4969 139f 0F       		.uleb128 0xf
 4970 13a0 01       		.byte	0x1
 4971 13a1 50       		.byte	0x50
 4972 13a2 02       		.byte	0x2
 4973 13a3 77       		.byte	0x77
 4974 13a4 00       		.sleb128 0
 4975 13a5 00       		.byte	0
 4976 13a6 18       		.uleb128 0x18
 4977 13a7 46000000 		.4byte	.LVL269
 4978 13ab F6020000 		.4byte	0x2f6
 4979 13af C2130000 		.4byte	0x13c2
 4980 13b3 0F       		.uleb128 0xf
 4981 13b4 01       		.byte	0x1
 4982 13b5 51       		.byte	0x51
 4983 13b6 04       		.byte	0x4
 4984 13b7 76       		.byte	0x76
 4985 13b8 00       		.sleb128 0
 4986 13b9 38       		.byte	0x38
 4987 13ba 25       		.byte	0x25
 4988 13bb 0F       		.uleb128 0xf
 4989 13bc 01       		.byte	0x1
 4990 13bd 50       		.byte	0x50
 4991 13be 02       		.byte	0x2
 4992 13bf 75       		.byte	0x75
 4993 13c0 00       		.sleb128 0
 4994 13c1 00       		.byte	0
 4995 13c2 0E       		.uleb128 0xe
 4996 13c3 4E000000 		.4byte	.LVL270
 4997 13c7 F6020000 		.4byte	0x2f6
ARM GAS  C:\Users\atsu\AppData\Local\Temp\cc7os1vl.s 			page 104


 4998 13cb 0F       		.uleb128 0xf
 4999 13cc 01       		.byte	0x1
 5000 13cd 51       		.byte	0x51
 5001 13ce 02       		.byte	0x2
 5002 13cf 76       		.byte	0x76
 5003 13d0 00       		.sleb128 0
 5004 13d1 0F       		.uleb128 0xf
 5005 13d2 01       		.byte	0x1
 5006 13d3 50       		.byte	0x50
 5007 13d4 02       		.byte	0x2
 5008 13d5 74       		.byte	0x74
 5009 13d6 00       		.sleb128 0
 5010 13d7 00       		.byte	0
 5011 13d8 00       		.byte	0
 5012 13d9 1D       		.uleb128 0x1d
 5013 13da 01       		.byte	0x1
 5014 13db 2C010000 		.4byte	.LASF79
 5015 13df 01       		.byte	0x1
 5016 13e0 DB02     		.2byte	0x2db
 5017 13e2 01       		.byte	0x1
 5018 13e3 00000000 		.4byte	.LFB78
 5019 13e7 44000000 		.4byte	.LFE78
 5020 13eb 76100000 		.4byte	.LLST113
 5021 13ef 01       		.byte	0x1
 5022 13f0 BE140000 		.4byte	0x14be
 5023 13f4 21       		.uleb128 0x21
 5024 13f5 7300     		.ascii	"s\000"
 5025 13f7 01       		.byte	0x1
 5026 13f8 DB02     		.2byte	0x2db
 5027 13fa D7000000 		.4byte	0xd7
 5028 13fe 96100000 		.4byte	.LLST114
 5029 1402 21       		.uleb128 0x21
 5030 1403 73726300 		.ascii	"src\000"
 5031 1407 01       		.byte	0x1
 5032 1408 DB02     		.2byte	0x2db
 5033 140a F6120000 		.4byte	0x12f6
 5034 140e B7100000 		.4byte	.LLST115
 5035 1412 21       		.uleb128 0x21
 5036 1413 64737400 		.ascii	"dst\000"
 5037 1417 01       		.byte	0x1
 5038 1418 DB02     		.2byte	0x2db
 5039 141a F6120000 		.4byte	0x12f6
 5040 141e D8100000 		.4byte	.LLST116
 5041 1422 21       		.uleb128 0x21
 5042 1423 6C656E00 		.ascii	"len\000"
 5043 1427 01       		.byte	0x1
 5044 1428 DB02     		.2byte	0x2db
 5045 142a 88000000 		.4byte	0x88
 5046 142e 2A110000 		.4byte	.LLST117
 5047 1432 20       		.uleb128 0x20
 5048 1433 AC030000 		.4byte	.LASF75
 5049 1437 01       		.byte	0x1
 5050 1438 DD02     		.2byte	0x2dd
 5051 143a 88000000 		.4byte	0x88
 5052 143e 4B110000 		.4byte	.LLST118
 5053 1442 20       		.uleb128 0x20
 5054 1443 C5030000 		.4byte	.LASF80
ARM GAS  C:\Users\atsu\AppData\Local\Temp\cc7os1vl.s 			page 105


 5055 1447 01       		.byte	0x1
 5056 1448 DE02     		.2byte	0x2de
 5057 144a 88000000 		.4byte	0x88
 5058 144e 84110000 		.4byte	.LLST119
 5059 1452 20       		.uleb128 0x20
 5060 1453 10040000 		.4byte	.LASF81
 5061 1457 01       		.byte	0x1
 5062 1458 DF02     		.2byte	0x2df
 5063 145a E2000000 		.4byte	0xe2
 5064 145e D0110000 		.4byte	.LLST120
 5065 1462 24       		.uleb128 0x24
 5066 1463 5A010000 		.4byte	0x15a
 5067 1467 02000000 		.4byte	.LBB34
 5068 146b 08000000 		.4byte	.LBE34
 5069 146f 01       		.byte	0x1
 5070 1470 E102     		.2byte	0x2e1
 5071 1472 80140000 		.4byte	0x1480
 5072 1476 0D       		.uleb128 0xd
 5073 1477 6C010000 		.4byte	0x16c
 5074 147b 57120000 		.4byte	.LLST121
 5075 147f 00       		.byte	0
 5076 1480 24       		.uleb128 0x24
 5077 1481 92010000 		.4byte	0x192
 5078 1485 10000000 		.4byte	.LBB36
 5079 1489 12000000 		.4byte	.LBE36
 5080 148d 01       		.byte	0x1
 5081 148e E402     		.2byte	0x2e4
 5082 1490 9A140000 		.4byte	0x149a
 5083 1494 25       		.uleb128 0x25
 5084 1495 A4010000 		.4byte	0x1a4
 5085 1499 00       		.byte	0
 5086 149a 18       		.uleb128 0x18
 5087 149b 2A000000 		.4byte	.LVL283
 5088 149f 00050000 		.4byte	0x500
 5089 14a3 B4140000 		.4byte	0x14b4
 5090 14a7 0F       		.uleb128 0xf
 5091 14a8 01       		.byte	0x1
 5092 14a9 52       		.byte	0x52
 5093 14aa 02       		.byte	0x2
 5094 14ab 77       		.byte	0x77
 5095 14ac 00       		.sleb128 0
 5096 14ad 0F       		.uleb128 0xf
 5097 14ae 01       		.byte	0x1
 5098 14af 51       		.byte	0x51
 5099 14b0 02       		.byte	0x2
 5100 14b1 76       		.byte	0x76
 5101 14b2 00       		.sleb128 0
 5102 14b3 00       		.byte	0
 5103 14b4 17       		.uleb128 0x17
 5104 14b5 3C000000 		.4byte	.LVL288
 5105 14b9 00050000 		.4byte	0x500
 5106 14bd 00       		.byte	0
 5107 14be 1D       		.uleb128 0x1d
 5108 14bf 01       		.byte	0x1
 5109 14c0 A4000000 		.4byte	.LASF82
 5110 14c4 01       		.byte	0x1
 5111 14c5 A402     		.2byte	0x2a4
ARM GAS  C:\Users\atsu\AppData\Local\Temp\cc7os1vl.s 			page 106


 5112 14c7 01       		.byte	0x1
 5113 14c8 00000000 		.4byte	.LFB76
 5114 14cc 50000000 		.4byte	.LFE76
 5115 14d0 6A120000 		.4byte	.LLST122
 5116 14d4 01       		.byte	0x1
 5117 14d5 9B150000 		.4byte	0x159b
 5118 14d9 21       		.uleb128 0x21
 5119 14da 7300     		.ascii	"s\000"
 5120 14dc 01       		.byte	0x1
 5121 14dd A402     		.2byte	0x2a4
 5122 14df D7000000 		.4byte	0xd7
 5123 14e3 8A120000 		.4byte	.LLST123
 5124 14e7 1E       		.uleb128 0x1e
 5125 14e8 12030000 		.4byte	.LASF30
 5126 14ec 01       		.byte	0x1
 5127 14ed A402     		.2byte	0x2a4
 5128 14ef E2000000 		.4byte	0xe2
 5129 14f3 AB120000 		.4byte	.LLST124
 5130 14f7 21       		.uleb128 0x21
 5131 14f8 6C656E00 		.ascii	"len\000"
 5132 14fc 01       		.byte	0x1
 5133 14fd A402     		.2byte	0x2a4
 5134 14ff 88000000 		.4byte	0x88
 5135 1503 CA120000 		.4byte	.LLST125
 5136 1507 1F       		.uleb128 0x1f
 5137 1508 70747200 		.ascii	"ptr\000"
 5138 150c 01       		.byte	0x1
 5139 150d A602     		.2byte	0x2a6
 5140 150f 88000000 		.4byte	0x88
 5141 1513 EB120000 		.4byte	.LLST126
 5142 1517 18       		.uleb128 0x18
 5143 1518 1A000000 		.4byte	.LVL291
 5144 151c 97030000 		.4byte	0x397
 5145 1520 2B150000 		.4byte	0x152b
 5146 1524 0F       		.uleb128 0xf
 5147 1525 01       		.byte	0x1
 5148 1526 50       		.byte	0x50
 5149 1527 02       		.byte	0x2
 5150 1528 75       		.byte	0x75
 5151 1529 00       		.sleb128 0
 5152 152a 00       		.byte	0
 5153 152b 18       		.uleb128 0x18
 5154 152c 26000000 		.4byte	.LVL294
 5155 1530 97030000 		.4byte	0x397
 5156 1534 3F150000 		.4byte	0x153f
 5157 1538 0F       		.uleb128 0xf
 5158 1539 01       		.byte	0x1
 5159 153a 50       		.byte	0x50
 5160 153b 02       		.byte	0x2
 5161 153c 74       		.byte	0x74
 5162 153d 00       		.sleb128 0
 5163 153e 00       		.byte	0
 5164 153f 18       		.uleb128 0x18
 5165 1540 38000000 		.4byte	.LVL297
 5166 1544 D9130000 		.4byte	0x13d9
 5167 1548 68150000 		.4byte	0x1568
 5168 154c 0F       		.uleb128 0xf
ARM GAS  C:\Users\atsu\AppData\Local\Temp\cc7os1vl.s 			page 107


 5169 154d 01       		.byte	0x1
 5170 154e 53       		.byte	0x53
 5171 154f 04       		.byte	0x4
 5172 1550 91       		.byte	0x91
 5173 1551 60       		.sleb128 -32
 5174 1552 94       		.byte	0x94
 5175 1553 02       		.byte	0x2
 5176 1554 0F       		.uleb128 0xf
 5177 1555 01       		.byte	0x1
 5178 1556 52       		.byte	0x52
 5179 1557 03       		.byte	0x3
 5180 1558 91       		.byte	0x91
 5181 1559 64       		.sleb128 -28
 5182 155a 06       		.byte	0x6
 5183 155b 0F       		.uleb128 0xf
 5184 155c 01       		.byte	0x1
 5185 155d 51       		.byte	0x51
 5186 155e 02       		.byte	0x2
 5187 155f 76       		.byte	0x76
 5188 1560 00       		.sleb128 0
 5189 1561 0F       		.uleb128 0xf
 5190 1562 01       		.byte	0x1
 5191 1563 50       		.byte	0x50
 5192 1564 02       		.byte	0x2
 5193 1565 77       		.byte	0x77
 5194 1566 00       		.sleb128 0
 5195 1567 00       		.byte	0
 5196 1568 18       		.uleb128 0x18
 5197 1569 46000000 		.4byte	.LVL299
 5198 156d F6020000 		.4byte	0x2f6
 5199 1571 84150000 		.4byte	0x1584
 5200 1575 0F       		.uleb128 0xf
 5201 1576 01       		.byte	0x1
 5202 1577 51       		.byte	0x51
 5203 1578 04       		.byte	0x4
 5204 1579 76       		.byte	0x76
 5205 157a 00       		.sleb128 0
 5206 157b 38       		.byte	0x38
 5207 157c 25       		.byte	0x25
 5208 157d 0F       		.uleb128 0xf
 5209 157e 01       		.byte	0x1
 5210 157f 50       		.byte	0x50
 5211 1580 02       		.byte	0x2
 5212 1581 75       		.byte	0x75
 5213 1582 00       		.sleb128 0
 5214 1583 00       		.byte	0
 5215 1584 0E       		.uleb128 0xe
 5216 1585 4E000000 		.4byte	.LVL300
 5217 1589 F6020000 		.4byte	0x2f6
 5218 158d 0F       		.uleb128 0xf
 5219 158e 01       		.byte	0x1
 5220 158f 51       		.byte	0x51
 5221 1590 02       		.byte	0x2
 5222 1591 76       		.byte	0x76
 5223 1592 00       		.sleb128 0
 5224 1593 0F       		.uleb128 0xf
 5225 1594 01       		.byte	0x1
ARM GAS  C:\Users\atsu\AppData\Local\Temp\cc7os1vl.s 			page 108


 5226 1595 50       		.byte	0x50
 5227 1596 02       		.byte	0x2
 5228 1597 74       		.byte	0x74
 5229 1598 00       		.sleb128 0
 5230 1599 00       		.byte	0
 5231 159a 00       		.byte	0
 5232 159b 26       		.uleb128 0x26
 5233 159c CE030000 		.4byte	.LASF83
 5234 15a0 01       		.byte	0x1
 5235 15a1 35       		.byte	0x35
 5236 15a2 C7000000 		.4byte	0xc7
 5237 15a6 05       		.byte	0x5
 5238 15a7 03       		.byte	0x3
 5239 15a8 00000000 		.4byte	I_STATUS
 5240 15ac 06       		.uleb128 0x6
 5241 15ad 88000000 		.4byte	0x88
 5242 15b1 BC150000 		.4byte	0x15bc
 5243 15b5 07       		.uleb128 0x7
 5244 15b6 68000000 		.4byte	0x68
 5245 15ba 03       		.byte	0x3
 5246 15bb 00       		.byte	0
 5247 15bc 26       		.uleb128 0x26
 5248 15bd 21000000 		.4byte	.LASF84
 5249 15c1 01       		.byte	0x1
 5250 15c2 36       		.byte	0x36
 5251 15c3 AC150000 		.4byte	0x15ac
 5252 15c7 05       		.byte	0x5
 5253 15c8 03       		.byte	0x3
 5254 15c9 1C000000 		.4byte	SMASK
 5255 15cd 26       		.uleb128 0x26
 5256 15ce 0C030000 		.4byte	.LASF85
 5257 15d2 01       		.byte	0x1
 5258 15d3 37       		.byte	0x37
 5259 15d4 AC150000 		.4byte	0x15ac
 5260 15d8 05       		.byte	0x5
 5261 15d9 03       		.byte	0x3
 5262 15da 14000000 		.4byte	RMASK
 5263 15de 26       		.uleb128 0x26
 5264 15df 2A020000 		.4byte	.LASF86
 5265 15e3 01       		.byte	0x1
 5266 15e4 38       		.byte	0x38
 5267 15e5 AC150000 		.4byte	0x15ac
 5268 15e9 05       		.byte	0x5
 5269 15ea 03       		.byte	0x3
 5270 15eb 0C000000 		.4byte	SSIZE
 5271 15ef 26       		.uleb128 0x26
 5272 15f0 C4000000 		.4byte	.LASF87
 5273 15f4 01       		.byte	0x1
 5274 15f5 39       		.byte	0x39
 5275 15f6 AC150000 		.4byte	0x15ac
 5276 15fa 05       		.byte	0x5
 5277 15fb 03       		.byte	0x3
 5278 15fc 04000000 		.4byte	RSIZE
 5279 1600 26       		.uleb128 0x26
 5280 1601 2C000000 		.4byte	.LASF88
 5281 1605 01       		.byte	0x1
 5282 1606 3A       		.byte	0x3a
ARM GAS  C:\Users\atsu\AppData\Local\Temp\cc7os1vl.s 			page 109


 5283 1607 AC150000 		.4byte	0x15ac
 5284 160b 05       		.byte	0x5
 5285 160c 03       		.byte	0x3
 5286 160d 2C000000 		.4byte	SBUFBASEADDRESS
 5287 1611 26       		.uleb128 0x26
 5288 1612 49040000 		.4byte	.LASF89
 5289 1616 01       		.byte	0x1
 5290 1617 3B       		.byte	0x3b
 5291 1618 AC150000 		.4byte	0x15ac
 5292 161c 05       		.byte	0x5
 5293 161d 03       		.byte	0x3
 5294 161e 24000000 		.4byte	RBUFBASEADDRESS
 5295 1622 27       		.uleb128 0x27
 5296 1623 01       		.byte	0x1
 5297 1624 D9000000 		.4byte	.LASF90
 5298 1628 05       		.byte	0x5
 5299 1629 10       		.byte	0x10
 5300 162a 01       		.byte	0x1
 5301 162b 76000000 		.4byte	0x76
 5302 162f 01       		.byte	0x1
 5303 1630 3A160000 		.4byte	0x163a
 5304 1634 28       		.uleb128 0x28
 5305 1635 76000000 		.4byte	0x76
 5306 1639 00       		.byte	0
 5307 163a 29       		.uleb128 0x29
 5308 163b 01       		.byte	0x1
 5309 163c 2A040000 		.4byte	.LASF91
 5310 1640 05       		.byte	0x5
 5311 1641 12       		.byte	0x12
 5312 1642 01       		.byte	0x1
 5313 1643 01       		.byte	0x1
 5314 1644 29       		.uleb128 0x29
 5315 1645 01       		.byte	0x1
 5316 1646 0B010000 		.4byte	.LASF92
 5317 164a 05       		.byte	0x5
 5318 164b 13       		.byte	0x13
 5319 164c 01       		.byte	0x1
 5320 164d 01       		.byte	0x1
 5321 164e 2A       		.uleb128 0x2a
 5322 164f 01       		.byte	0x1
 5323 1650 C4010000 		.4byte	.LASF97
 5324 1654 05       		.byte	0x5
 5325 1655 11       		.byte	0x11
 5326 1656 01       		.byte	0x1
 5327 1657 01       		.byte	0x1
 5328 1658 62160000 		.4byte	0x1662
 5329 165c 28       		.uleb128 0x28
 5330 165d 4C000000 		.4byte	0x4c
 5331 1661 00       		.byte	0
 5332 1662 29       		.uleb128 0x29
 5333 1663 01       		.byte	0x1
 5334 1664 53010000 		.4byte	.LASF93
 5335 1668 05       		.byte	0x5
 5336 1669 0F       		.byte	0xf
 5337 166a 01       		.byte	0x1
 5338 166b 01       		.byte	0x1
 5339 166c 00       		.byte	0
ARM GAS  C:\Users\atsu\AppData\Local\Temp\cc7os1vl.s 			page 110


 5340              		.section	.debug_abbrev,"",%progbits
 5341              	.Ldebug_abbrev0:
 5342 0000 01       		.uleb128 0x1
 5343 0001 11       		.uleb128 0x11
 5344 0002 01       		.byte	0x1
 5345 0003 25       		.uleb128 0x25
 5346 0004 0E       		.uleb128 0xe
 5347 0005 13       		.uleb128 0x13
 5348 0006 0B       		.uleb128 0xb
 5349 0007 03       		.uleb128 0x3
 5350 0008 0E       		.uleb128 0xe
 5351 0009 1B       		.uleb128 0x1b
 5352 000a 0E       		.uleb128 0xe
 5353 000b 55       		.uleb128 0x55
 5354 000c 06       		.uleb128 0x6
 5355 000d 11       		.uleb128 0x11
 5356 000e 01       		.uleb128 0x1
 5357 000f 52       		.uleb128 0x52
 5358 0010 01       		.uleb128 0x1
 5359 0011 10       		.uleb128 0x10
 5360 0012 06       		.uleb128 0x6
 5361 0013 00       		.byte	0
 5362 0014 00       		.byte	0
 5363 0015 02       		.uleb128 0x2
 5364 0016 24       		.uleb128 0x24
 5365 0017 00       		.byte	0
 5366 0018 0B       		.uleb128 0xb
 5367 0019 0B       		.uleb128 0xb
 5368 001a 3E       		.uleb128 0x3e
 5369 001b 0B       		.uleb128 0xb
 5370 001c 03       		.uleb128 0x3
 5371 001d 0E       		.uleb128 0xe
 5372 001e 00       		.byte	0
 5373 001f 00       		.byte	0
 5374 0020 03       		.uleb128 0x3
 5375 0021 24       		.uleb128 0x24
 5376 0022 00       		.byte	0
 5377 0023 0B       		.uleb128 0xb
 5378 0024 0B       		.uleb128 0xb
 5379 0025 3E       		.uleb128 0x3e
 5380 0026 0B       		.uleb128 0xb
 5381 0027 03       		.uleb128 0x3
 5382 0028 08       		.uleb128 0x8
 5383 0029 00       		.byte	0
 5384 002a 00       		.byte	0
 5385 002b 04       		.uleb128 0x4
 5386 002c 16       		.uleb128 0x16
 5387 002d 00       		.byte	0
 5388 002e 03       		.uleb128 0x3
 5389 002f 0E       		.uleb128 0xe
 5390 0030 3A       		.uleb128 0x3a
 5391 0031 0B       		.uleb128 0xb
 5392 0032 3B       		.uleb128 0x3b
 5393 0033 0B       		.uleb128 0xb
 5394 0034 49       		.uleb128 0x49
 5395 0035 13       		.uleb128 0x13
 5396 0036 00       		.byte	0
ARM GAS  C:\Users\atsu\AppData\Local\Temp\cc7os1vl.s 			page 111


 5397 0037 00       		.byte	0
 5398 0038 05       		.uleb128 0x5
 5399 0039 35       		.uleb128 0x35
 5400 003a 00       		.byte	0
 5401 003b 49       		.uleb128 0x49
 5402 003c 13       		.uleb128 0x13
 5403 003d 00       		.byte	0
 5404 003e 00       		.byte	0
 5405 003f 06       		.uleb128 0x6
 5406 0040 01       		.uleb128 0x1
 5407 0041 01       		.byte	0x1
 5408 0042 49       		.uleb128 0x49
 5409 0043 13       		.uleb128 0x13
 5410 0044 01       		.uleb128 0x1
 5411 0045 13       		.uleb128 0x13
 5412 0046 00       		.byte	0
 5413 0047 00       		.byte	0
 5414 0048 07       		.uleb128 0x7
 5415 0049 21       		.uleb128 0x21
 5416 004a 00       		.byte	0
 5417 004b 49       		.uleb128 0x49
 5418 004c 13       		.uleb128 0x13
 5419 004d 2F       		.uleb128 0x2f
 5420 004e 0B       		.uleb128 0xb
 5421 004f 00       		.byte	0
 5422 0050 00       		.byte	0
 5423 0051 08       		.uleb128 0x8
 5424 0052 0F       		.uleb128 0xf
 5425 0053 00       		.byte	0
 5426 0054 0B       		.uleb128 0xb
 5427 0055 0B       		.uleb128 0xb
 5428 0056 49       		.uleb128 0x49
 5429 0057 13       		.uleb128 0x13
 5430 0058 00       		.byte	0
 5431 0059 00       		.byte	0
 5432 005a 09       		.uleb128 0x9
 5433 005b 2E       		.uleb128 0x2e
 5434 005c 01       		.byte	0x1
 5435 005d 3F       		.uleb128 0x3f
 5436 005e 0C       		.uleb128 0xc
 5437 005f 03       		.uleb128 0x3
 5438 0060 0E       		.uleb128 0xe
 5439 0061 3A       		.uleb128 0x3a
 5440 0062 0B       		.uleb128 0xb
 5441 0063 3B       		.uleb128 0x3b
 5442 0064 0B       		.uleb128 0xb
 5443 0065 27       		.uleb128 0x27
 5444 0066 0C       		.uleb128 0xc
 5445 0067 49       		.uleb128 0x49
 5446 0068 13       		.uleb128 0x13
 5447 0069 20       		.uleb128 0x20
 5448 006a 0B       		.uleb128 0xb
 5449 006b 01       		.uleb128 0x1
 5450 006c 13       		.uleb128 0x13
 5451 006d 00       		.byte	0
 5452 006e 00       		.byte	0
 5453 006f 0A       		.uleb128 0xa
ARM GAS  C:\Users\atsu\AppData\Local\Temp\cc7os1vl.s 			page 112


 5454 0070 05       		.uleb128 0x5
 5455 0071 00       		.byte	0
 5456 0072 03       		.uleb128 0x3
 5457 0073 0E       		.uleb128 0xe
 5458 0074 3A       		.uleb128 0x3a
 5459 0075 0B       		.uleb128 0xb
 5460 0076 3B       		.uleb128 0x3b
 5461 0077 0B       		.uleb128 0xb
 5462 0078 49       		.uleb128 0x49
 5463 0079 13       		.uleb128 0x13
 5464 007a 00       		.byte	0
 5465 007b 00       		.byte	0
 5466 007c 0B       		.uleb128 0xb
 5467 007d 05       		.uleb128 0x5
 5468 007e 00       		.byte	0
 5469 007f 03       		.uleb128 0x3
 5470 0080 08       		.uleb128 0x8
 5471 0081 3A       		.uleb128 0x3a
 5472 0082 0B       		.uleb128 0xb
 5473 0083 3B       		.uleb128 0x3b
 5474 0084 0B       		.uleb128 0xb
 5475 0085 49       		.uleb128 0x49
 5476 0086 13       		.uleb128 0x13
 5477 0087 00       		.byte	0
 5478 0088 00       		.byte	0
 5479 0089 0C       		.uleb128 0xc
 5480 008a 2E       		.uleb128 0x2e
 5481 008b 01       		.byte	0x1
 5482 008c 31       		.uleb128 0x31
 5483 008d 13       		.uleb128 0x13
 5484 008e 11       		.uleb128 0x11
 5485 008f 01       		.uleb128 0x1
 5486 0090 12       		.uleb128 0x12
 5487 0091 01       		.uleb128 0x1
 5488 0092 40       		.uleb128 0x40
 5489 0093 06       		.uleb128 0x6
 5490 0094 9742     		.uleb128 0x2117
 5491 0096 0C       		.uleb128 0xc
 5492 0097 01       		.uleb128 0x1
 5493 0098 13       		.uleb128 0x13
 5494 0099 00       		.byte	0
 5495 009a 00       		.byte	0
 5496 009b 0D       		.uleb128 0xd
 5497 009c 05       		.uleb128 0x5
 5498 009d 00       		.byte	0
 5499 009e 31       		.uleb128 0x31
 5500 009f 13       		.uleb128 0x13
 5501 00a0 02       		.uleb128 0x2
 5502 00a1 06       		.uleb128 0x6
 5503 00a2 00       		.byte	0
 5504 00a3 00       		.byte	0
 5505 00a4 0E       		.uleb128 0xe
 5506 00a5 898201   		.uleb128 0x4109
 5507 00a8 01       		.byte	0x1
 5508 00a9 11       		.uleb128 0x11
 5509 00aa 01       		.uleb128 0x1
 5510 00ab 31       		.uleb128 0x31
ARM GAS  C:\Users\atsu\AppData\Local\Temp\cc7os1vl.s 			page 113


 5511 00ac 13       		.uleb128 0x13
 5512 00ad 00       		.byte	0
 5513 00ae 00       		.byte	0
 5514 00af 0F       		.uleb128 0xf
 5515 00b0 8A8201   		.uleb128 0x410a
 5516 00b3 00       		.byte	0
 5517 00b4 02       		.uleb128 0x2
 5518 00b5 0A       		.uleb128 0xa
 5519 00b6 9142     		.uleb128 0x2111
 5520 00b8 0A       		.uleb128 0xa
 5521 00b9 00       		.byte	0
 5522 00ba 00       		.byte	0
 5523 00bb 10       		.uleb128 0x10
 5524 00bc 2E       		.uleb128 0x2e
 5525 00bd 01       		.byte	0x1
 5526 00be 3F       		.uleb128 0x3f
 5527 00bf 0C       		.uleb128 0xc
 5528 00c0 03       		.uleb128 0x3
 5529 00c1 0E       		.uleb128 0xe
 5530 00c2 3A       		.uleb128 0x3a
 5531 00c3 0B       		.uleb128 0xb
 5532 00c4 3B       		.uleb128 0x3b
 5533 00c5 0B       		.uleb128 0xb
 5534 00c6 27       		.uleb128 0x27
 5535 00c7 0C       		.uleb128 0xc
 5536 00c8 49       		.uleb128 0x49
 5537 00c9 13       		.uleb128 0x13
 5538 00ca 11       		.uleb128 0x11
 5539 00cb 01       		.uleb128 0x1
 5540 00cc 12       		.uleb128 0x12
 5541 00cd 01       		.uleb128 0x1
 5542 00ce 40       		.uleb128 0x40
 5543 00cf 0A       		.uleb128 0xa
 5544 00d0 9742     		.uleb128 0x2117
 5545 00d2 0C       		.uleb128 0xc
 5546 00d3 01       		.uleb128 0x1
 5547 00d4 13       		.uleb128 0x13
 5548 00d5 00       		.byte	0
 5549 00d6 00       		.byte	0
 5550 00d7 11       		.uleb128 0x11
 5551 00d8 05       		.uleb128 0x5
 5552 00d9 00       		.byte	0
 5553 00da 03       		.uleb128 0x3
 5554 00db 08       		.uleb128 0x8
 5555 00dc 3A       		.uleb128 0x3a
 5556 00dd 0B       		.uleb128 0xb
 5557 00de 3B       		.uleb128 0x3b
 5558 00df 0B       		.uleb128 0xb
 5559 00e0 49       		.uleb128 0x49
 5560 00e1 13       		.uleb128 0x13
 5561 00e2 02       		.uleb128 0x2
 5562 00e3 06       		.uleb128 0x6
 5563 00e4 00       		.byte	0
 5564 00e5 00       		.byte	0
 5565 00e6 12       		.uleb128 0x12
 5566 00e7 2E       		.uleb128 0x2e
 5567 00e8 01       		.byte	0x1
ARM GAS  C:\Users\atsu\AppData\Local\Temp\cc7os1vl.s 			page 114


 5568 00e9 3F       		.uleb128 0x3f
 5569 00ea 0C       		.uleb128 0xc
 5570 00eb 03       		.uleb128 0x3
 5571 00ec 0E       		.uleb128 0xe
 5572 00ed 3A       		.uleb128 0x3a
 5573 00ee 0B       		.uleb128 0xb
 5574 00ef 3B       		.uleb128 0x3b
 5575 00f0 0B       		.uleb128 0xb
 5576 00f1 27       		.uleb128 0x27
 5577 00f2 0C       		.uleb128 0xc
 5578 00f3 11       		.uleb128 0x11
 5579 00f4 01       		.uleb128 0x1
 5580 00f5 12       		.uleb128 0x12
 5581 00f6 01       		.uleb128 0x1
 5582 00f7 40       		.uleb128 0x40
 5583 00f8 0A       		.uleb128 0xa
 5584 00f9 9742     		.uleb128 0x2117
 5585 00fb 0C       		.uleb128 0xc
 5586 00fc 01       		.uleb128 0x1
 5587 00fd 13       		.uleb128 0x13
 5588 00fe 00       		.byte	0
 5589 00ff 00       		.byte	0
 5590 0100 13       		.uleb128 0x13
 5591 0101 05       		.uleb128 0x5
 5592 0102 00       		.byte	0
 5593 0103 03       		.uleb128 0x3
 5594 0104 08       		.uleb128 0x8
 5595 0105 3A       		.uleb128 0x3a
 5596 0106 0B       		.uleb128 0xb
 5597 0107 3B       		.uleb128 0x3b
 5598 0108 0B       		.uleb128 0xb
 5599 0109 49       		.uleb128 0x49
 5600 010a 13       		.uleb128 0x13
 5601 010b 02       		.uleb128 0x2
 5602 010c 0A       		.uleb128 0xa
 5603 010d 00       		.byte	0
 5604 010e 00       		.byte	0
 5605 010f 14       		.uleb128 0x14
 5606 0110 2E       		.uleb128 0x2e
 5607 0111 01       		.byte	0x1
 5608 0112 31       		.uleb128 0x31
 5609 0113 13       		.uleb128 0x13
 5610 0114 11       		.uleb128 0x11
 5611 0115 01       		.uleb128 0x1
 5612 0116 12       		.uleb128 0x12
 5613 0117 01       		.uleb128 0x1
 5614 0118 40       		.uleb128 0x40
 5615 0119 0A       		.uleb128 0xa
 5616 011a 9742     		.uleb128 0x2117
 5617 011c 0C       		.uleb128 0xc
 5618 011d 01       		.uleb128 0x1
 5619 011e 13       		.uleb128 0x13
 5620 011f 00       		.byte	0
 5621 0120 00       		.byte	0
 5622 0121 15       		.uleb128 0x15
 5623 0122 2E       		.uleb128 0x2e
 5624 0123 01       		.byte	0x1
ARM GAS  C:\Users\atsu\AppData\Local\Temp\cc7os1vl.s 			page 115


 5625 0124 3F       		.uleb128 0x3f
 5626 0125 0C       		.uleb128 0xc
 5627 0126 03       		.uleb128 0x3
 5628 0127 0E       		.uleb128 0xe
 5629 0128 3A       		.uleb128 0x3a
 5630 0129 0B       		.uleb128 0xb
 5631 012a 3B       		.uleb128 0x3b
 5632 012b 0B       		.uleb128 0xb
 5633 012c 27       		.uleb128 0x27
 5634 012d 0C       		.uleb128 0xc
 5635 012e 49       		.uleb128 0x49
 5636 012f 13       		.uleb128 0x13
 5637 0130 11       		.uleb128 0x11
 5638 0131 01       		.uleb128 0x1
 5639 0132 12       		.uleb128 0x12
 5640 0133 01       		.uleb128 0x1
 5641 0134 40       		.uleb128 0x40
 5642 0135 06       		.uleb128 0x6
 5643 0136 9742     		.uleb128 0x2117
 5644 0138 0C       		.uleb128 0xc
 5645 0139 01       		.uleb128 0x1
 5646 013a 13       		.uleb128 0x13
 5647 013b 00       		.byte	0
 5648 013c 00       		.byte	0
 5649 013d 16       		.uleb128 0x16
 5650 013e 05       		.uleb128 0x5
 5651 013f 00       		.byte	0
 5652 0140 03       		.uleb128 0x3
 5653 0141 0E       		.uleb128 0xe
 5654 0142 3A       		.uleb128 0x3a
 5655 0143 0B       		.uleb128 0xb
 5656 0144 3B       		.uleb128 0x3b
 5657 0145 0B       		.uleb128 0xb
 5658 0146 49       		.uleb128 0x49
 5659 0147 13       		.uleb128 0x13
 5660 0148 02       		.uleb128 0x2
 5661 0149 06       		.uleb128 0x6
 5662 014a 00       		.byte	0
 5663 014b 00       		.byte	0
 5664 014c 17       		.uleb128 0x17
 5665 014d 898201   		.uleb128 0x4109
 5666 0150 00       		.byte	0
 5667 0151 11       		.uleb128 0x11
 5668 0152 01       		.uleb128 0x1
 5669 0153 31       		.uleb128 0x31
 5670 0154 13       		.uleb128 0x13
 5671 0155 00       		.byte	0
 5672 0156 00       		.byte	0
 5673 0157 18       		.uleb128 0x18
 5674 0158 898201   		.uleb128 0x4109
 5675 015b 01       		.byte	0x1
 5676 015c 11       		.uleb128 0x11
 5677 015d 01       		.uleb128 0x1
 5678 015e 31       		.uleb128 0x31
 5679 015f 13       		.uleb128 0x13
 5680 0160 01       		.uleb128 0x1
 5681 0161 13       		.uleb128 0x13
ARM GAS  C:\Users\atsu\AppData\Local\Temp\cc7os1vl.s 			page 116


 5682 0162 00       		.byte	0
 5683 0163 00       		.byte	0
 5684 0164 19       		.uleb128 0x19
 5685 0165 34       		.uleb128 0x34
 5686 0166 00       		.byte	0
 5687 0167 03       		.uleb128 0x3
 5688 0168 0E       		.uleb128 0xe
 5689 0169 3A       		.uleb128 0x3a
 5690 016a 0B       		.uleb128 0xb
 5691 016b 3B       		.uleb128 0x3b
 5692 016c 0B       		.uleb128 0xb
 5693 016d 49       		.uleb128 0x49
 5694 016e 13       		.uleb128 0x13
 5695 016f 02       		.uleb128 0x2
 5696 0170 06       		.uleb128 0x6
 5697 0171 00       		.byte	0
 5698 0172 00       		.byte	0
 5699 0173 1A       		.uleb128 0x1a
 5700 0174 1D       		.uleb128 0x1d
 5701 0175 01       		.byte	0x1
 5702 0176 31       		.uleb128 0x31
 5703 0177 13       		.uleb128 0x13
 5704 0178 11       		.uleb128 0x11
 5705 0179 01       		.uleb128 0x1
 5706 017a 12       		.uleb128 0x12
 5707 017b 01       		.uleb128 0x1
 5708 017c 58       		.uleb128 0x58
 5709 017d 0B       		.uleb128 0xb
 5710 017e 59       		.uleb128 0x59
 5711 017f 0B       		.uleb128 0xb
 5712 0180 01       		.uleb128 0x1
 5713 0181 13       		.uleb128 0x13
 5714 0182 00       		.byte	0
 5715 0183 00       		.byte	0
 5716 0184 1B       		.uleb128 0x1b
 5717 0185 05       		.uleb128 0x5
 5718 0186 00       		.byte	0
 5719 0187 31       		.uleb128 0x31
 5720 0188 13       		.uleb128 0x13
 5721 0189 1C       		.uleb128 0x1c
 5722 018a 0B       		.uleb128 0xb
 5723 018b 00       		.byte	0
 5724 018c 00       		.byte	0
 5725 018d 1C       		.uleb128 0x1c
 5726 018e 34       		.uleb128 0x34
 5727 018f 00       		.byte	0
 5728 0190 03       		.uleb128 0x3
 5729 0191 08       		.uleb128 0x8
 5730 0192 3A       		.uleb128 0x3a
 5731 0193 0B       		.uleb128 0xb
 5732 0194 3B       		.uleb128 0x3b
 5733 0195 0B       		.uleb128 0xb
 5734 0196 49       		.uleb128 0x49
 5735 0197 13       		.uleb128 0x13
 5736 0198 02       		.uleb128 0x2
 5737 0199 06       		.uleb128 0x6
 5738 019a 00       		.byte	0
ARM GAS  C:\Users\atsu\AppData\Local\Temp\cc7os1vl.s 			page 117


 5739 019b 00       		.byte	0
 5740 019c 1D       		.uleb128 0x1d
 5741 019d 2E       		.uleb128 0x2e
 5742 019e 01       		.byte	0x1
 5743 019f 3F       		.uleb128 0x3f
 5744 01a0 0C       		.uleb128 0xc
 5745 01a1 03       		.uleb128 0x3
 5746 01a2 0E       		.uleb128 0xe
 5747 01a3 3A       		.uleb128 0x3a
 5748 01a4 0B       		.uleb128 0xb
 5749 01a5 3B       		.uleb128 0x3b
 5750 01a6 05       		.uleb128 0x5
 5751 01a7 27       		.uleb128 0x27
 5752 01a8 0C       		.uleb128 0xc
 5753 01a9 11       		.uleb128 0x11
 5754 01aa 01       		.uleb128 0x1
 5755 01ab 12       		.uleb128 0x12
 5756 01ac 01       		.uleb128 0x1
 5757 01ad 40       		.uleb128 0x40
 5758 01ae 06       		.uleb128 0x6
 5759 01af 9742     		.uleb128 0x2117
 5760 01b1 0C       		.uleb128 0xc
 5761 01b2 01       		.uleb128 0x1
 5762 01b3 13       		.uleb128 0x13
 5763 01b4 00       		.byte	0
 5764 01b5 00       		.byte	0
 5765 01b6 1E       		.uleb128 0x1e
 5766 01b7 05       		.uleb128 0x5
 5767 01b8 00       		.byte	0
 5768 01b9 03       		.uleb128 0x3
 5769 01ba 0E       		.uleb128 0xe
 5770 01bb 3A       		.uleb128 0x3a
 5771 01bc 0B       		.uleb128 0xb
 5772 01bd 3B       		.uleb128 0x3b
 5773 01be 05       		.uleb128 0x5
 5774 01bf 49       		.uleb128 0x49
 5775 01c0 13       		.uleb128 0x13
 5776 01c1 02       		.uleb128 0x2
 5777 01c2 06       		.uleb128 0x6
 5778 01c3 00       		.byte	0
 5779 01c4 00       		.byte	0
 5780 01c5 1F       		.uleb128 0x1f
 5781 01c6 34       		.uleb128 0x34
 5782 01c7 00       		.byte	0
 5783 01c8 03       		.uleb128 0x3
 5784 01c9 08       		.uleb128 0x8
 5785 01ca 3A       		.uleb128 0x3a
 5786 01cb 0B       		.uleb128 0xb
 5787 01cc 3B       		.uleb128 0x3b
 5788 01cd 05       		.uleb128 0x5
 5789 01ce 49       		.uleb128 0x49
 5790 01cf 13       		.uleb128 0x13
 5791 01d0 02       		.uleb128 0x2
 5792 01d1 06       		.uleb128 0x6
 5793 01d2 00       		.byte	0
 5794 01d3 00       		.byte	0
 5795 01d4 20       		.uleb128 0x20
ARM GAS  C:\Users\atsu\AppData\Local\Temp\cc7os1vl.s 			page 118


 5796 01d5 34       		.uleb128 0x34
 5797 01d6 00       		.byte	0
 5798 01d7 03       		.uleb128 0x3
 5799 01d8 0E       		.uleb128 0xe
 5800 01d9 3A       		.uleb128 0x3a
 5801 01da 0B       		.uleb128 0xb
 5802 01db 3B       		.uleb128 0x3b
 5803 01dc 05       		.uleb128 0x5
 5804 01dd 49       		.uleb128 0x49
 5805 01de 13       		.uleb128 0x13
 5806 01df 02       		.uleb128 0x2
 5807 01e0 06       		.uleb128 0x6
 5808 01e1 00       		.byte	0
 5809 01e2 00       		.byte	0
 5810 01e3 21       		.uleb128 0x21
 5811 01e4 05       		.uleb128 0x5
 5812 01e5 00       		.byte	0
 5813 01e6 03       		.uleb128 0x3
 5814 01e7 08       		.uleb128 0x8
 5815 01e8 3A       		.uleb128 0x3a
 5816 01e9 0B       		.uleb128 0xb
 5817 01ea 3B       		.uleb128 0x3b
 5818 01eb 05       		.uleb128 0x5
 5819 01ec 49       		.uleb128 0x49
 5820 01ed 13       		.uleb128 0x13
 5821 01ee 02       		.uleb128 0x2
 5822 01ef 06       		.uleb128 0x6
 5823 01f0 00       		.byte	0
 5824 01f1 00       		.byte	0
 5825 01f2 22       		.uleb128 0x22
 5826 01f3 2E       		.uleb128 0x2e
 5827 01f4 01       		.byte	0x1
 5828 01f5 3F       		.uleb128 0x3f
 5829 01f6 0C       		.uleb128 0xc
 5830 01f7 03       		.uleb128 0x3
 5831 01f8 0E       		.uleb128 0xe
 5832 01f9 3A       		.uleb128 0x3a
 5833 01fa 0B       		.uleb128 0xb
 5834 01fb 3B       		.uleb128 0x3b
 5835 01fc 0B       		.uleb128 0xb
 5836 01fd 27       		.uleb128 0x27
 5837 01fe 0C       		.uleb128 0xc
 5838 01ff 11       		.uleb128 0x11
 5839 0200 01       		.uleb128 0x1
 5840 0201 12       		.uleb128 0x12
 5841 0202 01       		.uleb128 0x1
 5842 0203 40       		.uleb128 0x40
 5843 0204 06       		.uleb128 0x6
 5844 0205 9742     		.uleb128 0x2117
 5845 0207 0C       		.uleb128 0xc
 5846 0208 01       		.uleb128 0x1
 5847 0209 13       		.uleb128 0x13
 5848 020a 00       		.byte	0
 5849 020b 00       		.byte	0
 5850 020c 23       		.uleb128 0x23
 5851 020d 2E       		.uleb128 0x2e
 5852 020e 01       		.byte	0x1
ARM GAS  C:\Users\atsu\AppData\Local\Temp\cc7os1vl.s 			page 119


 5853 020f 3F       		.uleb128 0x3f
 5854 0210 0C       		.uleb128 0xc
 5855 0211 03       		.uleb128 0x3
 5856 0212 0E       		.uleb128 0xe
 5857 0213 3A       		.uleb128 0x3a
 5858 0214 0B       		.uleb128 0xb
 5859 0215 3B       		.uleb128 0x3b
 5860 0216 05       		.uleb128 0x5
 5861 0217 27       		.uleb128 0x27
 5862 0218 0C       		.uleb128 0xc
 5863 0219 49       		.uleb128 0x49
 5864 021a 13       		.uleb128 0x13
 5865 021b 11       		.uleb128 0x11
 5866 021c 01       		.uleb128 0x1
 5867 021d 12       		.uleb128 0x12
 5868 021e 01       		.uleb128 0x1
 5869 021f 40       		.uleb128 0x40
 5870 0220 06       		.uleb128 0x6
 5871 0221 9742     		.uleb128 0x2117
 5872 0223 0C       		.uleb128 0xc
 5873 0224 01       		.uleb128 0x1
 5874 0225 13       		.uleb128 0x13
 5875 0226 00       		.byte	0
 5876 0227 00       		.byte	0
 5877 0228 24       		.uleb128 0x24
 5878 0229 1D       		.uleb128 0x1d
 5879 022a 01       		.byte	0x1
 5880 022b 31       		.uleb128 0x31
 5881 022c 13       		.uleb128 0x13
 5882 022d 11       		.uleb128 0x11
 5883 022e 01       		.uleb128 0x1
 5884 022f 12       		.uleb128 0x12
 5885 0230 01       		.uleb128 0x1
 5886 0231 58       		.uleb128 0x58
 5887 0232 0B       		.uleb128 0xb
 5888 0233 59       		.uleb128 0x59
 5889 0234 05       		.uleb128 0x5
 5890 0235 01       		.uleb128 0x1
 5891 0236 13       		.uleb128 0x13
 5892 0237 00       		.byte	0
 5893 0238 00       		.byte	0
 5894 0239 25       		.uleb128 0x25
 5895 023a 05       		.uleb128 0x5
 5896 023b 00       		.byte	0
 5897 023c 31       		.uleb128 0x31
 5898 023d 13       		.uleb128 0x13
 5899 023e 00       		.byte	0
 5900 023f 00       		.byte	0
 5901 0240 26       		.uleb128 0x26
 5902 0241 34       		.uleb128 0x34
 5903 0242 00       		.byte	0
 5904 0243 03       		.uleb128 0x3
 5905 0244 0E       		.uleb128 0xe
 5906 0245 3A       		.uleb128 0x3a
 5907 0246 0B       		.uleb128 0xb
 5908 0247 3B       		.uleb128 0x3b
 5909 0248 0B       		.uleb128 0xb
ARM GAS  C:\Users\atsu\AppData\Local\Temp\cc7os1vl.s 			page 120


 5910 0249 49       		.uleb128 0x49
 5911 024a 13       		.uleb128 0x13
 5912 024b 02       		.uleb128 0x2
 5913 024c 0A       		.uleb128 0xa
 5914 024d 00       		.byte	0
 5915 024e 00       		.byte	0
 5916 024f 27       		.uleb128 0x27
 5917 0250 2E       		.uleb128 0x2e
 5918 0251 01       		.byte	0x1
 5919 0252 3F       		.uleb128 0x3f
 5920 0253 0C       		.uleb128 0xc
 5921 0254 03       		.uleb128 0x3
 5922 0255 0E       		.uleb128 0xe
 5923 0256 3A       		.uleb128 0x3a
 5924 0257 0B       		.uleb128 0xb
 5925 0258 3B       		.uleb128 0x3b
 5926 0259 0B       		.uleb128 0xb
 5927 025a 27       		.uleb128 0x27
 5928 025b 0C       		.uleb128 0xc
 5929 025c 49       		.uleb128 0x49
 5930 025d 13       		.uleb128 0x13
 5931 025e 3C       		.uleb128 0x3c
 5932 025f 0C       		.uleb128 0xc
 5933 0260 01       		.uleb128 0x1
 5934 0261 13       		.uleb128 0x13
 5935 0262 00       		.byte	0
 5936 0263 00       		.byte	0
 5937 0264 28       		.uleb128 0x28
 5938 0265 05       		.uleb128 0x5
 5939 0266 00       		.byte	0
 5940 0267 49       		.uleb128 0x49
 5941 0268 13       		.uleb128 0x13
 5942 0269 00       		.byte	0
 5943 026a 00       		.byte	0
 5944 026b 29       		.uleb128 0x29
 5945 026c 2E       		.uleb128 0x2e
 5946 026d 00       		.byte	0
 5947 026e 3F       		.uleb128 0x3f
 5948 026f 0C       		.uleb128 0xc
 5949 0270 03       		.uleb128 0x3
 5950 0271 0E       		.uleb128 0xe
 5951 0272 3A       		.uleb128 0x3a
 5952 0273 0B       		.uleb128 0xb
 5953 0274 3B       		.uleb128 0x3b
 5954 0275 0B       		.uleb128 0xb
 5955 0276 27       		.uleb128 0x27
 5956 0277 0C       		.uleb128 0xc
 5957 0278 3C       		.uleb128 0x3c
 5958 0279 0C       		.uleb128 0xc
 5959 027a 00       		.byte	0
 5960 027b 00       		.byte	0
 5961 027c 2A       		.uleb128 0x2a
 5962 027d 2E       		.uleb128 0x2e
 5963 027e 01       		.byte	0x1
 5964 027f 3F       		.uleb128 0x3f
 5965 0280 0C       		.uleb128 0xc
 5966 0281 03       		.uleb128 0x3
ARM GAS  C:\Users\atsu\AppData\Local\Temp\cc7os1vl.s 			page 121


 5967 0282 0E       		.uleb128 0xe
 5968 0283 3A       		.uleb128 0x3a
 5969 0284 0B       		.uleb128 0xb
 5970 0285 3B       		.uleb128 0x3b
 5971 0286 0B       		.uleb128 0xb
 5972 0287 27       		.uleb128 0x27
 5973 0288 0C       		.uleb128 0xc
 5974 0289 3C       		.uleb128 0x3c
 5975 028a 0C       		.uleb128 0xc
 5976 028b 01       		.uleb128 0x1
 5977 028c 13       		.uleb128 0x13
 5978 028d 00       		.byte	0
 5979 028e 00       		.byte	0
 5980 028f 00       		.byte	0
 5981              		.section	.debug_loc,"",%progbits
 5982              	.Ldebug_loc0:
 5983              	.LLST0:
 5984 0000 00000000 		.4byte	.LFB33
 5985 0004 02000000 		.4byte	.LCFI0
 5986 0008 0200     		.2byte	0x2
 5987 000a 7D       		.byte	0x7d
 5988 000b 00       		.sleb128 0
 5989 000c 02000000 		.4byte	.LCFI0
 5990 0010 0C000000 		.4byte	.LFE33
 5991 0014 0200     		.2byte	0x2
 5992 0016 7D       		.byte	0x7d
 5993 0017 08       		.sleb128 8
 5994 0018 00000000 		.4byte	0
 5995 001c 00000000 		.4byte	0
 5996              	.LLST1:
 5997 0020 00000000 		.4byte	.LVL0
 5998 0024 07000000 		.4byte	.LVL1-1
 5999 0028 0100     		.2byte	0x1
 6000 002a 50       		.byte	0x50
 6001 002b 07000000 		.4byte	.LVL1-1
 6002 002f 0C000000 		.4byte	.LFE33
 6003 0033 0400     		.2byte	0x4
 6004 0035 F3       		.byte	0xf3
 6005 0036 01       		.uleb128 0x1
 6006 0037 50       		.byte	0x50
 6007 0038 9F       		.byte	0x9f
 6008 0039 00000000 		.4byte	0
 6009 003d 00000000 		.4byte	0
 6010              	.LLST2:
 6011 0041 00000000 		.4byte	.LVL2
 6012 0045 04000000 		.4byte	.LVL3
 6013 0049 0100     		.2byte	0x1
 6014 004b 50       		.byte	0x50
 6015 004c 04000000 		.4byte	.LVL3
 6016 0050 0C000000 		.4byte	.LFE34
 6017 0054 0400     		.2byte	0x4
 6018 0056 F3       		.byte	0xf3
 6019 0057 01       		.uleb128 0x1
 6020 0058 50       		.byte	0x50
 6021 0059 9F       		.byte	0x9f
 6022 005a 00000000 		.4byte	0
 6023 005e 00000000 		.4byte	0
ARM GAS  C:\Users\atsu\AppData\Local\Temp\cc7os1vl.s 			page 122


 6024              	.LLST3:
 6025 0062 00000000 		.4byte	.LVL5
 6026 0066 04000000 		.4byte	.LVL6
 6027 006a 0100     		.2byte	0x1
 6028 006c 50       		.byte	0x50
 6029 006d 04000000 		.4byte	.LVL6
 6030 0071 10000000 		.4byte	.LFE36
 6031 0075 0400     		.2byte	0x4
 6032 0077 F3       		.byte	0xf3
 6033 0078 01       		.uleb128 0x1
 6034 0079 50       		.byte	0x50
 6035 007a 9F       		.byte	0x9f
 6036 007b 00000000 		.4byte	0
 6037 007f 00000000 		.4byte	0
 6038              	.LLST4:
 6039 0083 00000000 		.4byte	.LVL7
 6040 0087 04000000 		.4byte	.LVL8
 6041 008b 0100     		.2byte	0x1
 6042 008d 50       		.byte	0x50
 6043 008e 04000000 		.4byte	.LVL8
 6044 0092 10000000 		.4byte	.LFE37
 6045 0096 0400     		.2byte	0x4
 6046 0098 F3       		.byte	0xf3
 6047 0099 01       		.uleb128 0x1
 6048 009a 50       		.byte	0x50
 6049 009b 9F       		.byte	0x9f
 6050 009c 00000000 		.4byte	0
 6051 00a0 00000000 		.4byte	0
 6052              	.LLST5:
 6053 00a4 00000000 		.4byte	.LVL9
 6054 00a8 04000000 		.4byte	.LVL10
 6055 00ac 0100     		.2byte	0x1
 6056 00ae 50       		.byte	0x50
 6057 00af 04000000 		.4byte	.LVL10
 6058 00b3 10000000 		.4byte	.LFE38
 6059 00b7 0400     		.2byte	0x4
 6060 00b9 F3       		.byte	0xf3
 6061 00ba 01       		.uleb128 0x1
 6062 00bb 50       		.byte	0x50
 6063 00bc 9F       		.byte	0x9f
 6064 00bd 00000000 		.4byte	0
 6065 00c1 00000000 		.4byte	0
 6066              	.LLST6:
 6067 00c5 00000000 		.4byte	.LVL11
 6068 00c9 04000000 		.4byte	.LVL12
 6069 00cd 0100     		.2byte	0x1
 6070 00cf 50       		.byte	0x50
 6071 00d0 04000000 		.4byte	.LVL12
 6072 00d4 10000000 		.4byte	.LFE39
 6073 00d8 0400     		.2byte	0x4
 6074 00da F3       		.byte	0xf3
 6075 00db 01       		.uleb128 0x1
 6076 00dc 50       		.byte	0x50
 6077 00dd 9F       		.byte	0x9f
 6078 00de 00000000 		.4byte	0
 6079 00e2 00000000 		.4byte	0
 6080              	.LLST7:
ARM GAS  C:\Users\atsu\AppData\Local\Temp\cc7os1vl.s 			page 123


 6081 00e6 00000000 		.4byte	.LVL13
 6082 00ea 04000000 		.4byte	.LVL14
 6083 00ee 0100     		.2byte	0x1
 6084 00f0 50       		.byte	0x50
 6085 00f1 04000000 		.4byte	.LVL14
 6086 00f5 10000000 		.4byte	.LFE40
 6087 00f9 0400     		.2byte	0x4
 6088 00fb F3       		.byte	0xf3
 6089 00fc 01       		.uleb128 0x1
 6090 00fd 50       		.byte	0x50
 6091 00fe 9F       		.byte	0x9f
 6092 00ff 00000000 		.4byte	0
 6093 0103 00000000 		.4byte	0
 6094              	.LLST8:
 6095 0107 00000000 		.4byte	.LVL15
 6096 010b 04000000 		.4byte	.LVL16
 6097 010f 0100     		.2byte	0x1
 6098 0111 50       		.byte	0x50
 6099 0112 04000000 		.4byte	.LVL16
 6100 0116 10000000 		.4byte	.LFE41
 6101 011a 0400     		.2byte	0x4
 6102 011c F3       		.byte	0xf3
 6103 011d 01       		.uleb128 0x1
 6104 011e 50       		.byte	0x50
 6105 011f 9F       		.byte	0x9f
 6106 0120 00000000 		.4byte	0
 6107 0124 00000000 		.4byte	0
 6108              	.LLST9:
 6109 0128 00000000 		.4byte	.LFB42
 6110 012c 02000000 		.4byte	.LCFI1
 6111 0130 0200     		.2byte	0x2
 6112 0132 7D       		.byte	0x7d
 6113 0133 00       		.sleb128 0
 6114 0134 02000000 		.4byte	.LCFI1
 6115 0138 2E000000 		.4byte	.LFE42
 6116 013c 0200     		.2byte	0x2
 6117 013e 7D       		.byte	0x7d
 6118 013f 10       		.sleb128 16
 6119 0140 00000000 		.4byte	0
 6120 0144 00000000 		.4byte	0
 6121              	.LLST10:
 6122 0148 00000000 		.4byte	.LVL17
 6123 014c 09000000 		.4byte	.LVL18-1
 6124 0150 0100     		.2byte	0x1
 6125 0152 50       		.byte	0x50
 6126 0153 09000000 		.4byte	.LVL18-1
 6127 0157 2E000000 		.4byte	.LFE42
 6128 015b 0400     		.2byte	0x4
 6129 015d F3       		.byte	0xf3
 6130 015e 01       		.uleb128 0x1
 6131 015f 50       		.byte	0x50
 6132 0160 9F       		.byte	0x9f
 6133 0161 00000000 		.4byte	0
 6134 0165 00000000 		.4byte	0
 6135              	.LLST11:
 6136 0169 00000000 		.4byte	.LVL17
 6137 016d 09000000 		.4byte	.LVL18-1
ARM GAS  C:\Users\atsu\AppData\Local\Temp\cc7os1vl.s 			page 124


 6138 0171 0100     		.2byte	0x1
 6139 0173 51       		.byte	0x51
 6140 0174 09000000 		.4byte	.LVL18-1
 6141 0178 2E000000 		.4byte	.LFE42
 6142 017c 0400     		.2byte	0x4
 6143 017e F3       		.byte	0xf3
 6144 017f 01       		.uleb128 0x1
 6145 0180 51       		.byte	0x51
 6146 0181 9F       		.byte	0x9f
 6147 0182 00000000 		.4byte	0
 6148 0186 00000000 		.4byte	0
 6149              	.LLST12:
 6150 018a 00000000 		.4byte	.LFB43
 6151 018e 02000000 		.4byte	.LCFI2
 6152 0192 0200     		.2byte	0x2
 6153 0194 7D       		.byte	0x7d
 6154 0195 00       		.sleb128 0
 6155 0196 02000000 		.4byte	.LCFI2
 6156 019a 2C000000 		.4byte	.LFE43
 6157 019e 0200     		.2byte	0x2
 6158 01a0 7D       		.byte	0x7d
 6159 01a1 08       		.sleb128 8
 6160 01a2 00000000 		.4byte	0
 6161 01a6 00000000 		.4byte	0
 6162              	.LLST13:
 6163 01aa 00000000 		.4byte	.LVL24
 6164 01ae 07000000 		.4byte	.LVL25-1
 6165 01b2 0100     		.2byte	0x1
 6166 01b4 50       		.byte	0x50
 6167 01b5 07000000 		.4byte	.LVL25-1
 6168 01b9 2C000000 		.4byte	.LFE43
 6169 01bd 0400     		.2byte	0x4
 6170 01bf F3       		.byte	0xf3
 6171 01c0 01       		.uleb128 0x1
 6172 01c1 50       		.byte	0x50
 6173 01c2 9F       		.byte	0x9f
 6174 01c3 00000000 		.4byte	0
 6175 01c7 00000000 		.4byte	0
 6176              	.LLST14:
 6177 01cb 24000000 		.4byte	.LVL30
 6178 01cf 27000000 		.4byte	.LVL31-1
 6179 01d3 0100     		.2byte	0x1
 6180 01d5 50       		.byte	0x50
 6181 01d6 27000000 		.4byte	.LVL31-1
 6182 01da 2A000000 		.4byte	.LVL32
 6183 01de 0100     		.2byte	0x1
 6184 01e0 54       		.byte	0x54
 6185 01e1 2A000000 		.4byte	.LVL32
 6186 01e5 2C000000 		.4byte	.LFE43
 6187 01e9 0100     		.2byte	0x1
 6188 01eb 50       		.byte	0x50
 6189 01ec 00000000 		.4byte	0
 6190 01f0 00000000 		.4byte	0
 6191              	.LLST15:
 6192 01f4 00000000 		.4byte	.LFB44
 6193 01f8 02000000 		.4byte	.LCFI3
 6194 01fc 0200     		.2byte	0x2
ARM GAS  C:\Users\atsu\AppData\Local\Temp\cc7os1vl.s 			page 125


 6195 01fe 7D       		.byte	0x7d
 6196 01ff 00       		.sleb128 0
 6197 0200 02000000 		.4byte	.LCFI3
 6198 0204 42000000 		.4byte	.LFE44
 6199 0208 0200     		.2byte	0x2
 6200 020a 7D       		.byte	0x7d
 6201 020b 18       		.sleb128 24
 6202 020c 00000000 		.4byte	0
 6203 0210 00000000 		.4byte	0
 6204              	.LLST16:
 6205 0214 00000000 		.4byte	.LVL33
 6206 0218 0C000000 		.4byte	.LVL34
 6207 021c 0100     		.2byte	0x1
 6208 021e 50       		.byte	0x50
 6209 021f 0C000000 		.4byte	.LVL34
 6210 0223 30000000 		.4byte	.LVL39
 6211 0227 0100     		.2byte	0x1
 6212 0229 54       		.byte	0x54
 6213 022a 30000000 		.4byte	.LVL39
 6214 022e 36000000 		.4byte	.LVL41
 6215 0232 0300     		.2byte	0x3
 6216 0234 74       		.byte	0x74
 6217 0235 7F       		.sleb128 -1
 6218 0236 9F       		.byte	0x9f
 6219 0237 36000000 		.4byte	.LVL41
 6220 023b 40000000 		.4byte	.LVL43
 6221 023f 0100     		.2byte	0x1
 6222 0241 54       		.byte	0x54
 6223 0242 00000000 		.4byte	0
 6224 0246 00000000 		.4byte	0
 6225              	.LLST17:
 6226 024a 00000000 		.4byte	.LVL33
 6227 024e 0C000000 		.4byte	.LVL34
 6228 0252 0100     		.2byte	0x1
 6229 0254 51       		.byte	0x51
 6230 0255 0C000000 		.4byte	.LVL34
 6231 0259 42000000 		.4byte	.LFE44
 6232 025d 0400     		.2byte	0x4
 6233 025f F3       		.byte	0xf3
 6234 0260 01       		.uleb128 0x1
 6235 0261 51       		.byte	0x51
 6236 0262 9F       		.byte	0x9f
 6237 0263 00000000 		.4byte	0
 6238 0267 00000000 		.4byte	0
 6239              	.LLST18:
 6240 026b 00000000 		.4byte	.LVL33
 6241 026f 0C000000 		.4byte	.LVL34
 6242 0273 0100     		.2byte	0x1
 6243 0275 52       		.byte	0x52
 6244 0276 0C000000 		.4byte	.LVL34
 6245 027a 42000000 		.4byte	.LFE44
 6246 027e 0400     		.2byte	0x4
 6247 0280 F3       		.byte	0xf3
 6248 0281 01       		.uleb128 0x1
 6249 0282 52       		.byte	0x52
 6250 0283 9F       		.byte	0x9f
 6251 0284 00000000 		.4byte	0
ARM GAS  C:\Users\atsu\AppData\Local\Temp\cc7os1vl.s 			page 126


 6252 0288 00000000 		.4byte	0
 6253              	.LLST19:
 6254 028c 00000000 		.4byte	.LVL33
 6255 0290 0C000000 		.4byte	.LVL34
 6256 0294 0200     		.2byte	0x2
 6257 0296 30       		.byte	0x30
 6258 0297 9F       		.byte	0x9f
 6259 0298 00000000 		.4byte	0
 6260 029c 00000000 		.4byte	0
 6261              	.LLST20:
 6262 02a0 00000000 		.4byte	.LFB45
 6263 02a4 02000000 		.4byte	.LCFI4
 6264 02a8 0200     		.2byte	0x2
 6265 02aa 7D       		.byte	0x7d
 6266 02ab 00       		.sleb128 0
 6267 02ac 02000000 		.4byte	.LCFI4
 6268 02b0 40000000 		.4byte	.LFE45
 6269 02b4 0200     		.2byte	0x2
 6270 02b6 7D       		.byte	0x7d
 6271 02b7 18       		.sleb128 24
 6272 02b8 00000000 		.4byte	0
 6273 02bc 00000000 		.4byte	0
 6274              	.LLST21:
 6275 02c0 00000000 		.4byte	.LVL44
 6276 02c4 0C000000 		.4byte	.LVL45
 6277 02c8 0100     		.2byte	0x1
 6278 02ca 50       		.byte	0x50
 6279 02cb 0C000000 		.4byte	.LVL45
 6280 02cf 30000000 		.4byte	.LVL51
 6281 02d3 0100     		.2byte	0x1
 6282 02d5 54       		.byte	0x54
 6283 02d6 30000000 		.4byte	.LVL51
 6284 02da 34000000 		.4byte	.LVL52
 6285 02de 0300     		.2byte	0x3
 6286 02e0 74       		.byte	0x74
 6287 02e1 7F       		.sleb128 -1
 6288 02e2 9F       		.byte	0x9f
 6289 02e3 34000000 		.4byte	.LVL52
 6290 02e7 3E000000 		.4byte	.LVL55
 6291 02eb 0100     		.2byte	0x1
 6292 02ed 54       		.byte	0x54
 6293 02ee 00000000 		.4byte	0
 6294 02f2 00000000 		.4byte	0
 6295              	.LLST22:
 6296 02f6 00000000 		.4byte	.LVL44
 6297 02fa 0C000000 		.4byte	.LVL45
 6298 02fe 0100     		.2byte	0x1
 6299 0300 51       		.byte	0x51
 6300 0301 0C000000 		.4byte	.LVL45
 6301 0305 40000000 		.4byte	.LFE45
 6302 0309 0400     		.2byte	0x4
 6303 030b F3       		.byte	0xf3
 6304 030c 01       		.uleb128 0x1
 6305 030d 51       		.byte	0x51
 6306 030e 9F       		.byte	0x9f
 6307 030f 00000000 		.4byte	0
 6308 0313 00000000 		.4byte	0
ARM GAS  C:\Users\atsu\AppData\Local\Temp\cc7os1vl.s 			page 127


 6309              	.LLST23:
 6310 0317 00000000 		.4byte	.LVL44
 6311 031b 0C000000 		.4byte	.LVL45
 6312 031f 0100     		.2byte	0x1
 6313 0321 52       		.byte	0x52
 6314 0322 0C000000 		.4byte	.LVL45
 6315 0326 40000000 		.4byte	.LFE45
 6316 032a 0400     		.2byte	0x4
 6317 032c F3       		.byte	0xf3
 6318 032d 01       		.uleb128 0x1
 6319 032e 52       		.byte	0x52
 6320 032f 9F       		.byte	0x9f
 6321 0330 00000000 		.4byte	0
 6322 0334 00000000 		.4byte	0
 6323              	.LLST24:
 6324 0338 00000000 		.4byte	.LVL44
 6325 033c 0C000000 		.4byte	.LVL45
 6326 0340 0200     		.2byte	0x2
 6327 0342 30       		.byte	0x30
 6328 0343 9F       		.byte	0x9f
 6329 0344 00000000 		.4byte	0
 6330 0348 00000000 		.4byte	0
 6331              	.LLST25:
 6332 034c 34000000 		.4byte	.LVL52
 6333 0350 3C000000 		.4byte	.LVL54
 6334 0354 0200     		.2byte	0x2
 6335 0356 30       		.byte	0x30
 6336 0357 9F       		.byte	0x9f
 6337 0358 00000000 		.4byte	0
 6338 035c 00000000 		.4byte	0
 6339              	.LLST26:
 6340 0360 00000000 		.4byte	.LFB47
 6341 0364 02000000 		.4byte	.LCFI5
 6342 0368 0200     		.2byte	0x2
 6343 036a 7D       		.byte	0x7d
 6344 036b 00       		.sleb128 0
 6345 036c 02000000 		.4byte	.LCFI5
 6346 0370 04000000 		.4byte	.LCFI6
 6347 0374 0200     		.2byte	0x2
 6348 0376 7D       		.byte	0x7d
 6349 0377 14       		.sleb128 20
 6350 0378 04000000 		.4byte	.LCFI6
 6351 037c 40010000 		.4byte	.LFE47
 6352 0380 0200     		.2byte	0x2
 6353 0382 7D       		.byte	0x7d
 6354 0383 28       		.sleb128 40
 6355 0384 00000000 		.4byte	0
 6356 0388 00000000 		.4byte	0
 6357              	.LLST27:
 6358 038c 00000000 		.4byte	.LVL56
 6359 0390 0A000000 		.4byte	.LVL57
 6360 0394 0100     		.2byte	0x1
 6361 0396 50       		.byte	0x50
 6362 0397 0A000000 		.4byte	.LVL57
 6363 039b 40010000 		.4byte	.LFE47
 6364 039f 0400     		.2byte	0x4
 6365 03a1 F3       		.byte	0xf3
ARM GAS  C:\Users\atsu\AppData\Local\Temp\cc7os1vl.s 			page 128


 6366 03a2 01       		.uleb128 0x1
 6367 03a3 50       		.byte	0x50
 6368 03a4 9F       		.byte	0x9f
 6369 03a5 00000000 		.4byte	0
 6370 03a9 00000000 		.4byte	0
 6371              	.LLST28:
 6372 03ad 00000000 		.4byte	.LVL56
 6373 03b1 0C000000 		.4byte	.LVL58
 6374 03b5 0100     		.2byte	0x1
 6375 03b7 51       		.byte	0x51
 6376 03b8 0C000000 		.4byte	.LVL58
 6377 03bc 40010000 		.4byte	.LFE47
 6378 03c0 0400     		.2byte	0x4
 6379 03c2 F3       		.byte	0xf3
 6380 03c3 01       		.uleb128 0x1
 6381 03c4 51       		.byte	0x51
 6382 03c5 9F       		.byte	0x9f
 6383 03c6 00000000 		.4byte	0
 6384 03ca 00000000 		.4byte	0
 6385              	.LLST29:
 6386 03ce 24000000 		.4byte	.LVL61
 6387 03d2 2E000000 		.4byte	.LVL62
 6388 03d6 0200     		.2byte	0x2
 6389 03d8 30       		.byte	0x30
 6390 03d9 9F       		.byte	0x9f
 6391 03da 22010000 		.4byte	.LVL65
 6392 03de 2A010000 		.4byte	.LVL67
 6393 03e2 0100     		.2byte	0x1
 6394 03e4 54       		.byte	0x54
 6395 03e5 00000000 		.4byte	0
 6396 03e9 00000000 		.4byte	0
 6397              	.LLST30:
 6398 03ed 00000000 		.4byte	.LVL56
 6399 03f1 2E000000 		.4byte	.LVL62
 6400 03f5 0200     		.2byte	0x2
 6401 03f7 30       		.byte	0x30
 6402 03f8 9F       		.byte	0x9f
 6403 03f9 E6000000 		.4byte	.LVL63
 6404 03fd 2A010000 		.4byte	.LVL68
 6405 0401 0100     		.2byte	0x1
 6406 0403 55       		.byte	0x55
 6407 0404 00000000 		.4byte	0
 6408 0408 00000000 		.4byte	0
 6409              	.LLST31:
 6410 040c 00000000 		.4byte	.LVL56
 6411 0410 2E000000 		.4byte	.LVL62
 6412 0414 0200     		.2byte	0x2
 6413 0416 30       		.byte	0x30
 6414 0417 9F       		.byte	0x9f
 6415 0418 EC000000 		.4byte	.LVL64
 6416 041c 2A010000 		.4byte	.LVL66
 6417 0420 0200     		.2byte	0x2
 6418 0422 7D       		.byte	0x7d
 6419 0423 00       		.sleb128 0
 6420 0424 2A010000 		.4byte	.LVL66
 6421 0428 40010000 		.4byte	.LFE47
 6422 042c 0200     		.2byte	0x2
ARM GAS  C:\Users\atsu\AppData\Local\Temp\cc7os1vl.s 			page 129


 6423 042e 91       		.byte	0x91
 6424 042f 58       		.sleb128 -40
 6425 0430 00000000 		.4byte	0
 6426 0434 00000000 		.4byte	0
 6427              	.LLST32:
 6428 0438 00000000 		.4byte	.LFB48
 6429 043c 02000000 		.4byte	.LCFI7
 6430 0440 0200     		.2byte	0x2
 6431 0442 7D       		.byte	0x7d
 6432 0443 00       		.sleb128 0
 6433 0444 02000000 		.4byte	.LCFI7
 6434 0448 0E000000 		.4byte	.LFE48
 6435 044c 0200     		.2byte	0x2
 6436 044e 7D       		.byte	0x7d
 6437 044f 08       		.sleb128 8
 6438 0450 00000000 		.4byte	0
 6439 0454 00000000 		.4byte	0
 6440              	.LLST33:
 6441 0458 00000000 		.4byte	.LVL69
 6442 045c 06000000 		.4byte	.LVL70
 6443 0460 0100     		.2byte	0x1
 6444 0462 50       		.byte	0x50
 6445 0463 06000000 		.4byte	.LVL70
 6446 0467 0E000000 		.4byte	.LFE48
 6447 046b 0400     		.2byte	0x4
 6448 046d F3       		.byte	0xf3
 6449 046e 01       		.uleb128 0x1
 6450 046f 50       		.byte	0x50
 6451 0470 9F       		.byte	0x9f
 6452 0471 00000000 		.4byte	0
 6453 0475 00000000 		.4byte	0
 6454              	.LLST34:
 6455 0479 00000000 		.4byte	.LFB46
 6456 047d 02000000 		.4byte	.LCFI8
 6457 0481 0200     		.2byte	0x2
 6458 0483 7D       		.byte	0x7d
 6459 0484 00       		.sleb128 0
 6460 0485 02000000 		.4byte	.LCFI8
 6461 0489 16000000 		.4byte	.LFE46
 6462 048d 0200     		.2byte	0x2
 6463 048f 7D       		.byte	0x7d
 6464 0490 08       		.sleb128 8
 6465 0491 00000000 		.4byte	0
 6466 0495 00000000 		.4byte	0
 6467              	.LLST35:
 6468 0499 00000000 		.4byte	.LFB49
 6469 049d 02000000 		.4byte	.LCFI9
 6470 04a1 0200     		.2byte	0x2
 6471 04a3 7D       		.byte	0x7d
 6472 04a4 00       		.sleb128 0
 6473 04a5 02000000 		.4byte	.LCFI9
 6474 04a9 26000000 		.4byte	.LFE49
 6475 04ad 0200     		.2byte	0x2
 6476 04af 7D       		.byte	0x7d
 6477 04b0 08       		.sleb128 8
 6478 04b1 00000000 		.4byte	0
 6479 04b5 00000000 		.4byte	0
ARM GAS  C:\Users\atsu\AppData\Local\Temp\cc7os1vl.s 			page 130


 6480              	.LLST36:
 6481 04b9 00000000 		.4byte	.LVL75
 6482 04bd 08000000 		.4byte	.LVL76
 6483 04c1 0100     		.2byte	0x1
 6484 04c3 50       		.byte	0x50
 6485 04c4 08000000 		.4byte	.LVL76
 6486 04c8 24000000 		.4byte	.LVL81
 6487 04cc 0100     		.2byte	0x1
 6488 04ce 54       		.byte	0x54
 6489 04cf 24000000 		.4byte	.LVL81
 6490 04d3 26000000 		.4byte	.LFE49
 6491 04d7 0400     		.2byte	0x4
 6492 04d9 F3       		.byte	0xf3
 6493 04da 01       		.uleb128 0x1
 6494 04db 50       		.byte	0x50
 6495 04dc 9F       		.byte	0x9f
 6496 04dd 00000000 		.4byte	0
 6497 04e1 00000000 		.4byte	0
 6498              	.LLST37:
 6499 04e5 00000000 		.4byte	.LFB50
 6500 04e9 02000000 		.4byte	.LCFI10
 6501 04ed 0200     		.2byte	0x2
 6502 04ef 7D       		.byte	0x7d
 6503 04f0 00       		.sleb128 0
 6504 04f1 02000000 		.4byte	.LCFI10
 6505 04f5 26000000 		.4byte	.LFE50
 6506 04f9 0200     		.2byte	0x2
 6507 04fb 7D       		.byte	0x7d
 6508 04fc 08       		.sleb128 8
 6509 04fd 00000000 		.4byte	0
 6510 0501 00000000 		.4byte	0
 6511              	.LLST38:
 6512 0505 00000000 		.4byte	.LVL82
 6513 0509 06000000 		.4byte	.LVL83
 6514 050d 0100     		.2byte	0x1
 6515 050f 50       		.byte	0x50
 6516 0510 06000000 		.4byte	.LVL83
 6517 0514 24000000 		.4byte	.LVL88
 6518 0518 0100     		.2byte	0x1
 6519 051a 54       		.byte	0x54
 6520 051b 24000000 		.4byte	.LVL88
 6521 051f 26000000 		.4byte	.LFE50
 6522 0523 0400     		.2byte	0x4
 6523 0525 F3       		.byte	0xf3
 6524 0526 01       		.uleb128 0x1
 6525 0527 50       		.byte	0x50
 6526 0528 9F       		.byte	0x9f
 6527 0529 00000000 		.4byte	0
 6528 052d 00000000 		.4byte	0
 6529              	.LLST39:
 6530 0531 00000000 		.4byte	.LFB51
 6531 0535 02000000 		.4byte	.LCFI11
 6532 0539 0200     		.2byte	0x2
 6533 053b 7D       		.byte	0x7d
 6534 053c 00       		.sleb128 0
 6535 053d 02000000 		.4byte	.LCFI11
 6536 0541 26000000 		.4byte	.LFE51
ARM GAS  C:\Users\atsu\AppData\Local\Temp\cc7os1vl.s 			page 131


 6537 0545 0200     		.2byte	0x2
 6538 0547 7D       		.byte	0x7d
 6539 0548 08       		.sleb128 8
 6540 0549 00000000 		.4byte	0
 6541 054d 00000000 		.4byte	0
 6542              	.LLST40:
 6543 0551 00000000 		.4byte	.LVL89
 6544 0555 08000000 		.4byte	.LVL90
 6545 0559 0100     		.2byte	0x1
 6546 055b 50       		.byte	0x50
 6547 055c 08000000 		.4byte	.LVL90
 6548 0560 24000000 		.4byte	.LVL95
 6549 0564 0100     		.2byte	0x1
 6550 0566 54       		.byte	0x54
 6551 0567 24000000 		.4byte	.LVL95
 6552 056b 26000000 		.4byte	.LFE51
 6553 056f 0400     		.2byte	0x4
 6554 0571 F3       		.byte	0xf3
 6555 0572 01       		.uleb128 0x1
 6556 0573 50       		.byte	0x50
 6557 0574 9F       		.byte	0x9f
 6558 0575 00000000 		.4byte	0
 6559 0579 00000000 		.4byte	0
 6560              	.LLST41:
 6561 057d 00000000 		.4byte	.LFB52
 6562 0581 02000000 		.4byte	.LCFI12
 6563 0585 0200     		.2byte	0x2
 6564 0587 7D       		.byte	0x7d
 6565 0588 00       		.sleb128 0
 6566 0589 02000000 		.4byte	.LCFI12
 6567 058d 36000000 		.4byte	.LFE52
 6568 0591 0200     		.2byte	0x2
 6569 0593 7D       		.byte	0x7d
 6570 0594 08       		.sleb128 8
 6571 0595 00000000 		.4byte	0
 6572 0599 00000000 		.4byte	0
 6573              	.LLST42:
 6574 059d 00000000 		.4byte	.LVL96
 6575 05a1 08000000 		.4byte	.LVL97
 6576 05a5 0100     		.2byte	0x1
 6577 05a7 50       		.byte	0x50
 6578 05a8 08000000 		.4byte	.LVL97
 6579 05ac 34000000 		.4byte	.LVL104
 6580 05b0 0100     		.2byte	0x1
 6581 05b2 54       		.byte	0x54
 6582 05b3 34000000 		.4byte	.LVL104
 6583 05b7 36000000 		.4byte	.LFE52
 6584 05bb 0400     		.2byte	0x4
 6585 05bd F3       		.byte	0xf3
 6586 05be 01       		.uleb128 0x1
 6587 05bf 50       		.byte	0x50
 6588 05c0 9F       		.byte	0x9f
 6589 05c1 00000000 		.4byte	0
 6590 05c5 00000000 		.4byte	0
 6591              	.LLST43:
 6592 05c9 00000000 		.4byte	.LFB53
 6593 05cd 02000000 		.4byte	.LCFI13
ARM GAS  C:\Users\atsu\AppData\Local\Temp\cc7os1vl.s 			page 132


 6594 05d1 0200     		.2byte	0x2
 6595 05d3 7D       		.byte	0x7d
 6596 05d4 00       		.sleb128 0
 6597 05d5 02000000 		.4byte	.LCFI13
 6598 05d9 26000000 		.4byte	.LFE53
 6599 05dd 0200     		.2byte	0x2
 6600 05df 7D       		.byte	0x7d
 6601 05e0 08       		.sleb128 8
 6602 05e1 00000000 		.4byte	0
 6603 05e5 00000000 		.4byte	0
 6604              	.LLST44:
 6605 05e9 00000000 		.4byte	.LVL105
 6606 05ed 08000000 		.4byte	.LVL106
 6607 05f1 0100     		.2byte	0x1
 6608 05f3 50       		.byte	0x50
 6609 05f4 08000000 		.4byte	.LVL106
 6610 05f8 24000000 		.4byte	.LVL111
 6611 05fc 0100     		.2byte	0x1
 6612 05fe 54       		.byte	0x54
 6613 05ff 24000000 		.4byte	.LVL111
 6614 0603 26000000 		.4byte	.LFE53
 6615 0607 0400     		.2byte	0x4
 6616 0609 F3       		.byte	0xf3
 6617 060a 01       		.uleb128 0x1
 6618 060b 50       		.byte	0x50
 6619 060c 9F       		.byte	0x9f
 6620 060d 00000000 		.4byte	0
 6621 0611 00000000 		.4byte	0
 6622              	.LLST45:
 6623 0615 00000000 		.4byte	.LFB54
 6624 0619 02000000 		.4byte	.LCFI14
 6625 061d 0200     		.2byte	0x2
 6626 061f 7D       		.byte	0x7d
 6627 0620 00       		.sleb128 0
 6628 0621 02000000 		.4byte	.LCFI14
 6629 0625 0A000000 		.4byte	.LFE54
 6630 0629 0200     		.2byte	0x2
 6631 062b 7D       		.byte	0x7d
 6632 062c 08       		.sleb128 8
 6633 062d 00000000 		.4byte	0
 6634 0631 00000000 		.4byte	0
 6635              	.LLST46:
 6636 0635 00000000 		.4byte	.LFB55
 6637 0639 02000000 		.4byte	.LCFI15
 6638 063d 0200     		.2byte	0x2
 6639 063f 7D       		.byte	0x7d
 6640 0640 00       		.sleb128 0
 6641 0641 02000000 		.4byte	.LCFI15
 6642 0645 16000000 		.4byte	.LFE55
 6643 0649 0200     		.2byte	0x2
 6644 064b 7D       		.byte	0x7d
 6645 064c 08       		.sleb128 8
 6646 064d 00000000 		.4byte	0
 6647 0651 00000000 		.4byte	0
 6648              	.LLST47:
 6649 0655 00000000 		.4byte	.LVL113
 6650 0659 08000000 		.4byte	.LVL114
ARM GAS  C:\Users\atsu\AppData\Local\Temp\cc7os1vl.s 			page 133


 6651 065d 0100     		.2byte	0x1
 6652 065f 50       		.byte	0x50
 6653 0660 08000000 		.4byte	.LVL114
 6654 0664 16000000 		.4byte	.LFE55
 6655 0668 0400     		.2byte	0x4
 6656 066a F3       		.byte	0xf3
 6657 066b 01       		.uleb128 0x1
 6658 066c 50       		.byte	0x50
 6659 066d 9F       		.byte	0x9f
 6660 066e 00000000 		.4byte	0
 6661 0672 00000000 		.4byte	0
 6662              	.LLST48:
 6663 0676 00000000 		.4byte	.LFB56
 6664 067a 02000000 		.4byte	.LCFI16
 6665 067e 0200     		.2byte	0x2
 6666 0680 7D       		.byte	0x7d
 6667 0681 00       		.sleb128 0
 6668 0682 02000000 		.4byte	.LCFI16
 6669 0686 0C000000 		.4byte	.LFE56
 6670 068a 0200     		.2byte	0x2
 6671 068c 7D       		.byte	0x7d
 6672 068d 08       		.sleb128 8
 6673 068e 00000000 		.4byte	0
 6674 0692 00000000 		.4byte	0
 6675              	.LLST49:
 6676 0696 00000000 		.4byte	.LVL117
 6677 069a 06000000 		.4byte	.LVL118
 6678 069e 0100     		.2byte	0x1
 6679 06a0 50       		.byte	0x50
 6680 06a1 06000000 		.4byte	.LVL118
 6681 06a5 0C000000 		.4byte	.LFE56
 6682 06a9 0400     		.2byte	0x4
 6683 06ab F3       		.byte	0xf3
 6684 06ac 01       		.uleb128 0x1
 6685 06ad 50       		.byte	0x50
 6686 06ae 9F       		.byte	0x9f
 6687 06af 00000000 		.4byte	0
 6688 06b3 00000000 		.4byte	0
 6689              	.LLST50:
 6690 06b7 00000000 		.4byte	.LFB57
 6691 06bb 02000000 		.4byte	.LCFI17
 6692 06bf 0200     		.2byte	0x2
 6693 06c1 7D       		.byte	0x7d
 6694 06c2 00       		.sleb128 0
 6695 06c3 02000000 		.4byte	.LCFI17
 6696 06c7 0C000000 		.4byte	.LFE57
 6697 06cb 0200     		.2byte	0x2
 6698 06cd 7D       		.byte	0x7d
 6699 06ce 08       		.sleb128 8
 6700 06cf 00000000 		.4byte	0
 6701 06d3 00000000 		.4byte	0
 6702              	.LLST51:
 6703 06d7 00000000 		.4byte	.LVL120
 6704 06db 06000000 		.4byte	.LVL121
 6705 06df 0100     		.2byte	0x1
 6706 06e1 50       		.byte	0x50
 6707 06e2 06000000 		.4byte	.LVL121
ARM GAS  C:\Users\atsu\AppData\Local\Temp\cc7os1vl.s 			page 134


 6708 06e6 0C000000 		.4byte	.LFE57
 6709 06ea 0400     		.2byte	0x4
 6710 06ec F3       		.byte	0xf3
 6711 06ed 01       		.uleb128 0x1
 6712 06ee 50       		.byte	0x50
 6713 06ef 9F       		.byte	0x9f
 6714 06f0 00000000 		.4byte	0
 6715 06f4 00000000 		.4byte	0
 6716              	.LLST52:
 6717 06f8 00000000 		.4byte	.LFB58
 6718 06fc 02000000 		.4byte	.LCFI18
 6719 0700 0200     		.2byte	0x2
 6720 0702 7D       		.byte	0x7d
 6721 0703 00       		.sleb128 0
 6722 0704 02000000 		.4byte	.LCFI18
 6723 0708 26000000 		.4byte	.LFE58
 6724 070c 0200     		.2byte	0x2
 6725 070e 7D       		.byte	0x7d
 6726 070f 08       		.sleb128 8
 6727 0710 00000000 		.4byte	0
 6728 0714 00000000 		.4byte	0
 6729              	.LLST53:
 6730 0718 00000000 		.4byte	.LVL123
 6731 071c 06000000 		.4byte	.LVL124
 6732 0720 0100     		.2byte	0x1
 6733 0722 50       		.byte	0x50
 6734 0723 06000000 		.4byte	.LVL124
 6735 0727 24000000 		.4byte	.LVL129
 6736 072b 0100     		.2byte	0x1
 6737 072d 54       		.byte	0x54
 6738 072e 24000000 		.4byte	.LVL129
 6739 0732 26000000 		.4byte	.LFE58
 6740 0736 0400     		.2byte	0x4
 6741 0738 F3       		.byte	0xf3
 6742 0739 01       		.uleb128 0x1
 6743 073a 50       		.byte	0x50
 6744 073b 9F       		.byte	0x9f
 6745 073c 00000000 		.4byte	0
 6746 0740 00000000 		.4byte	0
 6747              	.LLST54:
 6748 0744 00000000 		.4byte	.LFB59
 6749 0748 02000000 		.4byte	.LCFI19
 6750 074c 0200     		.2byte	0x2
 6751 074e 7D       		.byte	0x7d
 6752 074f 00       		.sleb128 0
 6753 0750 02000000 		.4byte	.LCFI19
 6754 0754 26000000 		.4byte	.LFE59
 6755 0758 0200     		.2byte	0x2
 6756 075a 7D       		.byte	0x7d
 6757 075b 08       		.sleb128 8
 6758 075c 00000000 		.4byte	0
 6759 0760 00000000 		.4byte	0
 6760              	.LLST55:
 6761 0764 00000000 		.4byte	.LVL130
 6762 0768 06000000 		.4byte	.LVL131
 6763 076c 0100     		.2byte	0x1
 6764 076e 50       		.byte	0x50
ARM GAS  C:\Users\atsu\AppData\Local\Temp\cc7os1vl.s 			page 135


 6765 076f 06000000 		.4byte	.LVL131
 6766 0773 24000000 		.4byte	.LVL136
 6767 0777 0100     		.2byte	0x1
 6768 0779 54       		.byte	0x54
 6769 077a 24000000 		.4byte	.LVL136
 6770 077e 26000000 		.4byte	.LFE59
 6771 0782 0400     		.2byte	0x4
 6772 0784 F3       		.byte	0xf3
 6773 0785 01       		.uleb128 0x1
 6774 0786 50       		.byte	0x50
 6775 0787 9F       		.byte	0x9f
 6776 0788 00000000 		.4byte	0
 6777 078c 00000000 		.4byte	0
 6778              	.LLST56:
 6779 0790 00000000 		.4byte	.LFB60
 6780 0794 02000000 		.4byte	.LCFI20
 6781 0798 0200     		.2byte	0x2
 6782 079a 7D       		.byte	0x7d
 6783 079b 00       		.sleb128 0
 6784 079c 02000000 		.4byte	.LCFI20
 6785 07a0 36000000 		.4byte	.LFE60
 6786 07a4 0200     		.2byte	0x2
 6787 07a6 7D       		.byte	0x7d
 6788 07a7 08       		.sleb128 8
 6789 07a8 00000000 		.4byte	0
 6790 07ac 00000000 		.4byte	0
 6791              	.LLST57:
 6792 07b0 00000000 		.4byte	.LVL137
 6793 07b4 06000000 		.4byte	.LVL138
 6794 07b8 0100     		.2byte	0x1
 6795 07ba 50       		.byte	0x50
 6796 07bb 06000000 		.4byte	.LVL138
 6797 07bf 34000000 		.4byte	.LVL145
 6798 07c3 0100     		.2byte	0x1
 6799 07c5 54       		.byte	0x54
 6800 07c6 34000000 		.4byte	.LVL145
 6801 07ca 36000000 		.4byte	.LFE60
 6802 07ce 0400     		.2byte	0x4
 6803 07d0 F3       		.byte	0xf3
 6804 07d1 01       		.uleb128 0x1
 6805 07d2 50       		.byte	0x50
 6806 07d3 9F       		.byte	0x9f
 6807 07d4 00000000 		.4byte	0
 6808 07d8 00000000 		.4byte	0
 6809              	.LLST58:
 6810 07dc 00000000 		.4byte	.LFB61
 6811 07e0 02000000 		.4byte	.LCFI21
 6812 07e4 0200     		.2byte	0x2
 6813 07e6 7D       		.byte	0x7d
 6814 07e7 00       		.sleb128 0
 6815 07e8 02000000 		.4byte	.LCFI21
 6816 07ec 26000000 		.4byte	.LFE61
 6817 07f0 0200     		.2byte	0x2
 6818 07f2 7D       		.byte	0x7d
 6819 07f3 08       		.sleb128 8
 6820 07f4 00000000 		.4byte	0
 6821 07f8 00000000 		.4byte	0
ARM GAS  C:\Users\atsu\AppData\Local\Temp\cc7os1vl.s 			page 136


 6822              	.LLST59:
 6823 07fc 00000000 		.4byte	.LVL146
 6824 0800 06000000 		.4byte	.LVL147
 6825 0804 0100     		.2byte	0x1
 6826 0806 50       		.byte	0x50
 6827 0807 06000000 		.4byte	.LVL147
 6828 080b 24000000 		.4byte	.LVL152
 6829 080f 0100     		.2byte	0x1
 6830 0811 54       		.byte	0x54
 6831 0812 24000000 		.4byte	.LVL152
 6832 0816 26000000 		.4byte	.LFE61
 6833 081a 0400     		.2byte	0x4
 6834 081c F3       		.byte	0xf3
 6835 081d 01       		.uleb128 0x1
 6836 081e 50       		.byte	0x50
 6837 081f 9F       		.byte	0x9f
 6838 0820 00000000 		.4byte	0
 6839 0824 00000000 		.4byte	0
 6840              	.LLST60:
 6841 0828 00000000 		.4byte	.LFB62
 6842 082c 02000000 		.4byte	.LCFI22
 6843 0830 0200     		.2byte	0x2
 6844 0832 7D       		.byte	0x7d
 6845 0833 00       		.sleb128 0
 6846 0834 02000000 		.4byte	.LCFI22
 6847 0838 4E000000 		.4byte	.LFE62
 6848 083c 0200     		.2byte	0x2
 6849 083e 7D       		.byte	0x7d
 6850 083f 10       		.sleb128 16
 6851 0840 00000000 		.4byte	0
 6852 0844 00000000 		.4byte	0
 6853              	.LLST61:
 6854 0848 00000000 		.4byte	.LVL153
 6855 084c 06000000 		.4byte	.LVL154
 6856 0850 0100     		.2byte	0x1
 6857 0852 50       		.byte	0x50
 6858 0853 06000000 		.4byte	.LVL154
 6859 0857 4E000000 		.4byte	.LFE62
 6860 085b 0400     		.2byte	0x4
 6861 085d F3       		.byte	0xf3
 6862 085e 01       		.uleb128 0x1
 6863 085f 50       		.byte	0x50
 6864 0860 9F       		.byte	0x9f
 6865 0861 00000000 		.4byte	0
 6866 0865 00000000 		.4byte	0
 6867              	.LLST62:
 6868 0869 00000000 		.4byte	.LVL153
 6869 086d 0C000000 		.4byte	.LVL155
 6870 0871 0100     		.2byte	0x1
 6871 0873 51       		.byte	0x51
 6872 0874 0C000000 		.4byte	.LVL155
 6873 0878 4C000000 		.4byte	.LVL162
 6874 087c 0100     		.2byte	0x1
 6875 087e 54       		.byte	0x54
 6876 087f 4C000000 		.4byte	.LVL162
 6877 0883 4E000000 		.4byte	.LFE62
 6878 0887 0400     		.2byte	0x4
ARM GAS  C:\Users\atsu\AppData\Local\Temp\cc7os1vl.s 			page 137


 6879 0889 F3       		.byte	0xf3
 6880 088a 01       		.uleb128 0x1
 6881 088b 51       		.byte	0x51
 6882 088c 9F       		.byte	0x9f
 6883 088d 00000000 		.4byte	0
 6884 0891 00000000 		.4byte	0
 6885              	.LLST63:
 6886 0895 00000000 		.4byte	.LFB63
 6887 0899 02000000 		.4byte	.LCFI23
 6888 089d 0200     		.2byte	0x2
 6889 089f 7D       		.byte	0x7d
 6890 08a0 00       		.sleb128 0
 6891 08a1 02000000 		.4byte	.LCFI23
 6892 08a5 4E000000 		.4byte	.LFE63
 6893 08a9 0200     		.2byte	0x2
 6894 08ab 7D       		.byte	0x7d
 6895 08ac 10       		.sleb128 16
 6896 08ad 00000000 		.4byte	0
 6897 08b1 00000000 		.4byte	0
 6898              	.LLST64:
 6899 08b5 00000000 		.4byte	.LVL163
 6900 08b9 06000000 		.4byte	.LVL164
 6901 08bd 0100     		.2byte	0x1
 6902 08bf 50       		.byte	0x50
 6903 08c0 06000000 		.4byte	.LVL164
 6904 08c4 4E000000 		.4byte	.LFE63
 6905 08c8 0400     		.2byte	0x4
 6906 08ca F3       		.byte	0xf3
 6907 08cb 01       		.uleb128 0x1
 6908 08cc 50       		.byte	0x50
 6909 08cd 9F       		.byte	0x9f
 6910 08ce 00000000 		.4byte	0
 6911 08d2 00000000 		.4byte	0
 6912              	.LLST65:
 6913 08d6 00000000 		.4byte	.LVL163
 6914 08da 0C000000 		.4byte	.LVL165
 6915 08de 0100     		.2byte	0x1
 6916 08e0 51       		.byte	0x51
 6917 08e1 0C000000 		.4byte	.LVL165
 6918 08e5 4C000000 		.4byte	.LVL172
 6919 08e9 0100     		.2byte	0x1
 6920 08eb 54       		.byte	0x54
 6921 08ec 4C000000 		.4byte	.LVL172
 6922 08f0 4E000000 		.4byte	.LFE63
 6923 08f4 0400     		.2byte	0x4
 6924 08f6 F3       		.byte	0xf3
 6925 08f7 01       		.uleb128 0x1
 6926 08f8 51       		.byte	0x51
 6927 08f9 9F       		.byte	0x9f
 6928 08fa 00000000 		.4byte	0
 6929 08fe 00000000 		.4byte	0
 6930              	.LLST66:
 6931 0902 00000000 		.4byte	.LFB64
 6932 0906 02000000 		.4byte	.LCFI24
 6933 090a 0200     		.2byte	0x2
 6934 090c 7D       		.byte	0x7d
 6935 090d 00       		.sleb128 0
ARM GAS  C:\Users\atsu\AppData\Local\Temp\cc7os1vl.s 			page 138


 6936 090e 02000000 		.4byte	.LCFI24
 6937 0912 3A000000 		.4byte	.LFE64
 6938 0916 0200     		.2byte	0x2
 6939 0918 7D       		.byte	0x7d
 6940 0919 10       		.sleb128 16
 6941 091a 00000000 		.4byte	0
 6942 091e 00000000 		.4byte	0
 6943              	.LLST67:
 6944 0922 00000000 		.4byte	.LVL173
 6945 0926 06000000 		.4byte	.LVL174
 6946 092a 0100     		.2byte	0x1
 6947 092c 50       		.byte	0x50
 6948 092d 06000000 		.4byte	.LVL174
 6949 0931 3A000000 		.4byte	.LFE64
 6950 0935 0400     		.2byte	0x4
 6951 0937 F3       		.byte	0xf3
 6952 0938 01       		.uleb128 0x1
 6953 0939 50       		.byte	0x50
 6954 093a 9F       		.byte	0x9f
 6955 093b 00000000 		.4byte	0
 6956 093f 00000000 		.4byte	0
 6957              	.LLST68:
 6958 0943 00000000 		.4byte	.LVL173
 6959 0947 0C000000 		.4byte	.LVL175
 6960 094b 0100     		.2byte	0x1
 6961 094d 51       		.byte	0x51
 6962 094e 0C000000 		.4byte	.LVL175
 6963 0952 38000000 		.4byte	.LVL180
 6964 0956 0100     		.2byte	0x1
 6965 0958 54       		.byte	0x54
 6966 0959 38000000 		.4byte	.LVL180
 6967 095d 3A000000 		.4byte	.LFE64
 6968 0961 0400     		.2byte	0x4
 6969 0963 F3       		.byte	0xf3
 6970 0964 01       		.uleb128 0x1
 6971 0965 51       		.byte	0x51
 6972 0966 9F       		.byte	0x9f
 6973 0967 00000000 		.4byte	0
 6974 096b 00000000 		.4byte	0
 6975              	.LLST69:
 6976 096f 00000000 		.4byte	.LFB65
 6977 0973 02000000 		.4byte	.LCFI25
 6978 0977 0200     		.2byte	0x2
 6979 0979 7D       		.byte	0x7d
 6980 097a 00       		.sleb128 0
 6981 097b 02000000 		.4byte	.LCFI25
 6982 097f 3A000000 		.4byte	.LFE65
 6983 0983 0200     		.2byte	0x2
 6984 0985 7D       		.byte	0x7d
 6985 0986 10       		.sleb128 16
 6986 0987 00000000 		.4byte	0
 6987 098b 00000000 		.4byte	0
 6988              	.LLST70:
 6989 098f 00000000 		.4byte	.LVL181
 6990 0993 06000000 		.4byte	.LVL182
 6991 0997 0100     		.2byte	0x1
 6992 0999 50       		.byte	0x50
ARM GAS  C:\Users\atsu\AppData\Local\Temp\cc7os1vl.s 			page 139


 6993 099a 06000000 		.4byte	.LVL182
 6994 099e 3A000000 		.4byte	.LFE65
 6995 09a2 0400     		.2byte	0x4
 6996 09a4 F3       		.byte	0xf3
 6997 09a5 01       		.uleb128 0x1
 6998 09a6 50       		.byte	0x50
 6999 09a7 9F       		.byte	0x9f
 7000 09a8 00000000 		.4byte	0
 7001 09ac 00000000 		.4byte	0
 7002              	.LLST71:
 7003 09b0 00000000 		.4byte	.LVL181
 7004 09b4 0C000000 		.4byte	.LVL183
 7005 09b8 0100     		.2byte	0x1
 7006 09ba 51       		.byte	0x51
 7007 09bb 0C000000 		.4byte	.LVL183
 7008 09bf 38000000 		.4byte	.LVL188
 7009 09c3 0100     		.2byte	0x1
 7010 09c5 54       		.byte	0x54
 7011 09c6 38000000 		.4byte	.LVL188
 7012 09ca 3A000000 		.4byte	.LFE65
 7013 09ce 0400     		.2byte	0x4
 7014 09d0 F3       		.byte	0xf3
 7015 09d1 01       		.uleb128 0x1
 7016 09d2 51       		.byte	0x51
 7017 09d3 9F       		.byte	0x9f
 7018 09d4 00000000 		.4byte	0
 7019 09d8 00000000 		.4byte	0
 7020              	.LLST72:
 7021 09dc 00000000 		.4byte	.LFB66
 7022 09e0 02000000 		.4byte	.LCFI26
 7023 09e4 0200     		.2byte	0x2
 7024 09e6 7D       		.byte	0x7d
 7025 09e7 00       		.sleb128 0
 7026 09e8 02000000 		.4byte	.LCFI26
 7027 09ec 22000000 		.4byte	.LFE66
 7028 09f0 0200     		.2byte	0x2
 7029 09f2 7D       		.byte	0x7d
 7030 09f3 10       		.sleb128 16
 7031 09f4 00000000 		.4byte	0
 7032 09f8 00000000 		.4byte	0
 7033              	.LLST73:
 7034 09fc 00000000 		.4byte	.LVL189
 7035 0a00 06000000 		.4byte	.LVL190
 7036 0a04 0100     		.2byte	0x1
 7037 0a06 50       		.byte	0x50
 7038 0a07 06000000 		.4byte	.LVL190
 7039 0a0b 22000000 		.4byte	.LFE66
 7040 0a0f 0400     		.2byte	0x4
 7041 0a11 F3       		.byte	0xf3
 7042 0a12 01       		.uleb128 0x1
 7043 0a13 50       		.byte	0x50
 7044 0a14 9F       		.byte	0x9f
 7045 0a15 00000000 		.4byte	0
 7046 0a19 00000000 		.4byte	0
 7047              	.LLST74:
 7048 0a1d 00000000 		.4byte	.LVL189
 7049 0a21 0C000000 		.4byte	.LVL191
ARM GAS  C:\Users\atsu\AppData\Local\Temp\cc7os1vl.s 			page 140


 7050 0a25 0100     		.2byte	0x1
 7051 0a27 51       		.byte	0x51
 7052 0a28 0C000000 		.4byte	.LVL191
 7053 0a2c 20000000 		.4byte	.LVL194
 7054 0a30 0100     		.2byte	0x1
 7055 0a32 54       		.byte	0x54
 7056 0a33 20000000 		.4byte	.LVL194
 7057 0a37 22000000 		.4byte	.LFE66
 7058 0a3b 0400     		.2byte	0x4
 7059 0a3d F3       		.byte	0xf3
 7060 0a3e 01       		.uleb128 0x1
 7061 0a3f 51       		.byte	0x51
 7062 0a40 9F       		.byte	0x9f
 7063 0a41 00000000 		.4byte	0
 7064 0a45 00000000 		.4byte	0
 7065              	.LLST75:
 7066 0a49 00000000 		.4byte	.LFB67
 7067 0a4d 02000000 		.4byte	.LCFI27
 7068 0a51 0200     		.2byte	0x2
 7069 0a53 7D       		.byte	0x7d
 7070 0a54 00       		.sleb128 0
 7071 0a55 02000000 		.4byte	.LCFI27
 7072 0a59 22000000 		.4byte	.LFE67
 7073 0a5d 0200     		.2byte	0x2
 7074 0a5f 7D       		.byte	0x7d
 7075 0a60 10       		.sleb128 16
 7076 0a61 00000000 		.4byte	0
 7077 0a65 00000000 		.4byte	0
 7078              	.LLST76:
 7079 0a69 00000000 		.4byte	.LVL195
 7080 0a6d 06000000 		.4byte	.LVL196
 7081 0a71 0100     		.2byte	0x1
 7082 0a73 50       		.byte	0x50
 7083 0a74 06000000 		.4byte	.LVL196
 7084 0a78 22000000 		.4byte	.LFE67
 7085 0a7c 0400     		.2byte	0x4
 7086 0a7e F3       		.byte	0xf3
 7087 0a7f 01       		.uleb128 0x1
 7088 0a80 50       		.byte	0x50
 7089 0a81 9F       		.byte	0x9f
 7090 0a82 00000000 		.4byte	0
 7091 0a86 00000000 		.4byte	0
 7092              	.LLST77:
 7093 0a8a 00000000 		.4byte	.LVL195
 7094 0a8e 0C000000 		.4byte	.LVL197
 7095 0a92 0100     		.2byte	0x1
 7096 0a94 51       		.byte	0x51
 7097 0a95 0C000000 		.4byte	.LVL197
 7098 0a99 20000000 		.4byte	.LVL200
 7099 0a9d 0100     		.2byte	0x1
 7100 0a9f 54       		.byte	0x54
 7101 0aa0 20000000 		.4byte	.LVL200
 7102 0aa4 22000000 		.4byte	.LFE67
 7103 0aa8 0400     		.2byte	0x4
 7104 0aaa F3       		.byte	0xf3
 7105 0aab 01       		.uleb128 0x1
 7106 0aac 51       		.byte	0x51
ARM GAS  C:\Users\atsu\AppData\Local\Temp\cc7os1vl.s 			page 141


 7107 0aad 9F       		.byte	0x9f
 7108 0aae 00000000 		.4byte	0
 7109 0ab2 00000000 		.4byte	0
 7110              	.LLST78:
 7111 0ab6 00000000 		.4byte	.LFB68
 7112 0aba 02000000 		.4byte	.LCFI28
 7113 0abe 0200     		.2byte	0x2
 7114 0ac0 7D       		.byte	0x7d
 7115 0ac1 00       		.sleb128 0
 7116 0ac2 02000000 		.4byte	.LCFI28
 7117 0ac6 22000000 		.4byte	.LFE68
 7118 0aca 0200     		.2byte	0x2
 7119 0acc 7D       		.byte	0x7d
 7120 0acd 10       		.sleb128 16
 7121 0ace 00000000 		.4byte	0
 7122 0ad2 00000000 		.4byte	0
 7123              	.LLST79:
 7124 0ad6 00000000 		.4byte	.LVL201
 7125 0ada 06000000 		.4byte	.LVL202
 7126 0ade 0100     		.2byte	0x1
 7127 0ae0 50       		.byte	0x50
 7128 0ae1 06000000 		.4byte	.LVL202
 7129 0ae5 22000000 		.4byte	.LFE68
 7130 0ae9 0400     		.2byte	0x4
 7131 0aeb F3       		.byte	0xf3
 7132 0aec 01       		.uleb128 0x1
 7133 0aed 50       		.byte	0x50
 7134 0aee 9F       		.byte	0x9f
 7135 0aef 00000000 		.4byte	0
 7136 0af3 00000000 		.4byte	0
 7137              	.LLST80:
 7138 0af7 00000000 		.4byte	.LVL201
 7139 0afb 0C000000 		.4byte	.LVL203
 7140 0aff 0100     		.2byte	0x1
 7141 0b01 51       		.byte	0x51
 7142 0b02 0C000000 		.4byte	.LVL203
 7143 0b06 22000000 		.4byte	.LFE68
 7144 0b0a 0400     		.2byte	0x4
 7145 0b0c F3       		.byte	0xf3
 7146 0b0d 01       		.uleb128 0x1
 7147 0b0e 51       		.byte	0x51
 7148 0b0f 9F       		.byte	0x9f
 7149 0b10 00000000 		.4byte	0
 7150 0b14 00000000 		.4byte	0
 7151              	.LLST81:
 7152 0b18 00000000 		.4byte	.LFB69
 7153 0b1c 02000000 		.4byte	.LCFI29
 7154 0b20 0200     		.2byte	0x2
 7155 0b22 7D       		.byte	0x7d
 7156 0b23 00       		.sleb128 0
 7157 0b24 02000000 		.4byte	.LCFI29
 7158 0b28 14000000 		.4byte	.LFE69
 7159 0b2c 0200     		.2byte	0x2
 7160 0b2e 7D       		.byte	0x7d
 7161 0b2f 08       		.sleb128 8
 7162 0b30 00000000 		.4byte	0
 7163 0b34 00000000 		.4byte	0
ARM GAS  C:\Users\atsu\AppData\Local\Temp\cc7os1vl.s 			page 142


 7164              	.LLST82:
 7165 0b38 00000000 		.4byte	.LVL206
 7166 0b3c 06000000 		.4byte	.LVL207
 7167 0b40 0100     		.2byte	0x1
 7168 0b42 50       		.byte	0x50
 7169 0b43 06000000 		.4byte	.LVL207
 7170 0b47 14000000 		.4byte	.LFE69
 7171 0b4b 0400     		.2byte	0x4
 7172 0b4d F3       		.byte	0xf3
 7173 0b4e 01       		.uleb128 0x1
 7174 0b4f 50       		.byte	0x50
 7175 0b50 9F       		.byte	0x9f
 7176 0b51 00000000 		.4byte	0
 7177 0b55 00000000 		.4byte	0
 7178              	.LLST83:
 7179 0b59 00000000 		.4byte	.LVL206
 7180 0b5d 0D000000 		.4byte	.LVL208-1
 7181 0b61 0100     		.2byte	0x1
 7182 0b63 51       		.byte	0x51
 7183 0b64 0D000000 		.4byte	.LVL208-1
 7184 0b68 14000000 		.4byte	.LFE69
 7185 0b6c 0400     		.2byte	0x4
 7186 0b6e F3       		.byte	0xf3
 7187 0b6f 01       		.uleb128 0x1
 7188 0b70 51       		.byte	0x51
 7189 0b71 9F       		.byte	0x9f
 7190 0b72 00000000 		.4byte	0
 7191 0b76 00000000 		.4byte	0
 7192              	.LLST84:
 7193 0b7a 00000000 		.4byte	.LFB70
 7194 0b7e 02000000 		.4byte	.LCFI30
 7195 0b82 0200     		.2byte	0x2
 7196 0b84 7D       		.byte	0x7d
 7197 0b85 00       		.sleb128 0
 7198 0b86 02000000 		.4byte	.LCFI30
 7199 0b8a 14000000 		.4byte	.LFE70
 7200 0b8e 0200     		.2byte	0x2
 7201 0b90 7D       		.byte	0x7d
 7202 0b91 08       		.sleb128 8
 7203 0b92 00000000 		.4byte	0
 7204 0b96 00000000 		.4byte	0
 7205              	.LLST85:
 7206 0b9a 00000000 		.4byte	.LVL209
 7207 0b9e 06000000 		.4byte	.LVL210
 7208 0ba2 0100     		.2byte	0x1
 7209 0ba4 50       		.byte	0x50
 7210 0ba5 06000000 		.4byte	.LVL210
 7211 0ba9 14000000 		.4byte	.LFE70
 7212 0bad 0400     		.2byte	0x4
 7213 0baf F3       		.byte	0xf3
 7214 0bb0 01       		.uleb128 0x1
 7215 0bb1 50       		.byte	0x50
 7216 0bb2 9F       		.byte	0x9f
 7217 0bb3 00000000 		.4byte	0
 7218 0bb7 00000000 		.4byte	0
 7219              	.LLST86:
 7220 0bbb 00000000 		.4byte	.LVL209
ARM GAS  C:\Users\atsu\AppData\Local\Temp\cc7os1vl.s 			page 143


 7221 0bbf 0D000000 		.4byte	.LVL211-1
 7222 0bc3 0100     		.2byte	0x1
 7223 0bc5 51       		.byte	0x51
 7224 0bc6 0D000000 		.4byte	.LVL211-1
 7225 0bca 14000000 		.4byte	.LFE70
 7226 0bce 0400     		.2byte	0x4
 7227 0bd0 F3       		.byte	0xf3
 7228 0bd1 01       		.uleb128 0x1
 7229 0bd2 51       		.byte	0x51
 7230 0bd3 9F       		.byte	0x9f
 7231 0bd4 00000000 		.4byte	0
 7232 0bd8 00000000 		.4byte	0
 7233              	.LLST87:
 7234 0bdc 00000000 		.4byte	.LFB71
 7235 0be0 02000000 		.4byte	.LCFI31
 7236 0be4 0200     		.2byte	0x2
 7237 0be6 7D       		.byte	0x7d
 7238 0be7 00       		.sleb128 0
 7239 0be8 02000000 		.4byte	.LCFI31
 7240 0bec 14000000 		.4byte	.LFE71
 7241 0bf0 0200     		.2byte	0x2
 7242 0bf2 7D       		.byte	0x7d
 7243 0bf3 08       		.sleb128 8
 7244 0bf4 00000000 		.4byte	0
 7245 0bf8 00000000 		.4byte	0
 7246              	.LLST88:
 7247 0bfc 00000000 		.4byte	.LVL212
 7248 0c00 06000000 		.4byte	.LVL213
 7249 0c04 0100     		.2byte	0x1
 7250 0c06 50       		.byte	0x50
 7251 0c07 06000000 		.4byte	.LVL213
 7252 0c0b 14000000 		.4byte	.LFE71
 7253 0c0f 0400     		.2byte	0x4
 7254 0c11 F3       		.byte	0xf3
 7255 0c12 01       		.uleb128 0x1
 7256 0c13 50       		.byte	0x50
 7257 0c14 9F       		.byte	0x9f
 7258 0c15 00000000 		.4byte	0
 7259 0c19 00000000 		.4byte	0
 7260              	.LLST89:
 7261 0c1d 00000000 		.4byte	.LFB72
 7262 0c21 02000000 		.4byte	.LCFI32
 7263 0c25 0200     		.2byte	0x2
 7264 0c27 7D       		.byte	0x7d
 7265 0c28 00       		.sleb128 0
 7266 0c29 02000000 		.4byte	.LCFI32
 7267 0c2d 14000000 		.4byte	.LFE72
 7268 0c31 0200     		.2byte	0x2
 7269 0c33 7D       		.byte	0x7d
 7270 0c34 08       		.sleb128 8
 7271 0c35 00000000 		.4byte	0
 7272 0c39 00000000 		.4byte	0
 7273              	.LLST90:
 7274 0c3d 00000000 		.4byte	.LVL215
 7275 0c41 06000000 		.4byte	.LVL216
 7276 0c45 0100     		.2byte	0x1
 7277 0c47 50       		.byte	0x50
ARM GAS  C:\Users\atsu\AppData\Local\Temp\cc7os1vl.s 			page 144


 7278 0c48 06000000 		.4byte	.LVL216
 7279 0c4c 14000000 		.4byte	.LFE72
 7280 0c50 0400     		.2byte	0x4
 7281 0c52 F3       		.byte	0xf3
 7282 0c53 01       		.uleb128 0x1
 7283 0c54 50       		.byte	0x50
 7284 0c55 9F       		.byte	0x9f
 7285 0c56 00000000 		.4byte	0
 7286 0c5a 00000000 		.4byte	0
 7287              	.LLST91:
 7288 0c5e 00000000 		.4byte	.LFB73
 7289 0c62 02000000 		.4byte	.LCFI33
 7290 0c66 0200     		.2byte	0x2
 7291 0c68 7D       		.byte	0x7d
 7292 0c69 00       		.sleb128 0
 7293 0c6a 02000000 		.4byte	.LCFI33
 7294 0c6e 48000000 		.4byte	.LFE73
 7295 0c72 0200     		.2byte	0x2
 7296 0c74 7D       		.byte	0x7d
 7297 0c75 18       		.sleb128 24
 7298 0c76 00000000 		.4byte	0
 7299 0c7a 00000000 		.4byte	0
 7300              	.LLST92:
 7301 0c7e 00000000 		.4byte	.LVL218
 7302 0c82 06000000 		.4byte	.LVL219
 7303 0c86 0100     		.2byte	0x1
 7304 0c88 50       		.byte	0x50
 7305 0c89 06000000 		.4byte	.LVL219
 7306 0c8d 48000000 		.4byte	.LFE73
 7307 0c91 0400     		.2byte	0x4
 7308 0c93 F3       		.byte	0xf3
 7309 0c94 01       		.uleb128 0x1
 7310 0c95 50       		.byte	0x50
 7311 0c96 9F       		.byte	0x9f
 7312 0c97 00000000 		.4byte	0
 7313 0c9b 00000000 		.4byte	0
 7314              	.LLST93:
 7315 0c9f 00000000 		.4byte	.LVL218
 7316 0ca3 14000000 		.4byte	.LVL220
 7317 0ca7 0200     		.2byte	0x2
 7318 0ca9 30       		.byte	0x30
 7319 0caa 9F       		.byte	0x9f
 7320 0cab 14000000 		.4byte	.LVL220
 7321 0caf 32000000 		.4byte	.LVL225
 7322 0cb3 0100     		.2byte	0x1
 7323 0cb5 54       		.byte	0x54
 7324 0cb6 32000000 		.4byte	.LVL225
 7325 0cba 36000000 		.4byte	.LVL226
 7326 0cbe 0600     		.2byte	0x6
 7327 0cc0 70       		.byte	0x70
 7328 0cc1 00       		.sleb128 0
 7329 0cc2 08       		.byte	0x8
 7330 0cc3 FF       		.byte	0xff
 7331 0cc4 1A       		.byte	0x1a
 7332 0cc5 9F       		.byte	0x9f
 7333 0cc6 40000000 		.4byte	.LVL228
 7334 0cca 46000000 		.4byte	.LVL229
ARM GAS  C:\Users\atsu\AppData\Local\Temp\cc7os1vl.s 			page 145


 7335 0cce 0100     		.2byte	0x1
 7336 0cd0 54       		.byte	0x54
 7337 0cd1 46000000 		.4byte	.LVL229
 7338 0cd5 48000000 		.4byte	.LFE73
 7339 0cd9 0100     		.2byte	0x1
 7340 0cdb 50       		.byte	0x50
 7341 0cdc 00000000 		.4byte	0
 7342 0ce0 00000000 		.4byte	0
 7343              	.LLST94:
 7344 0ce4 00000000 		.4byte	.LVL218
 7345 0ce8 14000000 		.4byte	.LVL220
 7346 0cec 0200     		.2byte	0x2
 7347 0cee 30       		.byte	0x30
 7348 0cef 9F       		.byte	0x9f
 7349 0cf0 1A000000 		.4byte	.LVL221
 7350 0cf4 1E000000 		.4byte	.LVL222
 7351 0cf8 0600     		.2byte	0x6
 7352 0cfa 70       		.byte	0x70
 7353 0cfb 00       		.sleb128 0
 7354 0cfc 08       		.byte	0x8
 7355 0cfd FF       		.byte	0xff
 7356 0cfe 1A       		.byte	0x1a
 7357 0cff 9F       		.byte	0x9f
 7358 0d00 28000000 		.4byte	.LVL224
 7359 0d04 31000000 		.4byte	.LVL225-1
 7360 0d08 0100     		.2byte	0x1
 7361 0d0a 52       		.byte	0x52
 7362 0d0b 31000000 		.4byte	.LVL225-1
 7363 0d0f 46000000 		.4byte	.LVL230
 7364 0d13 0100     		.2byte	0x1
 7365 0d15 55       		.byte	0x55
 7366 0d16 00000000 		.4byte	0
 7367 0d1a 00000000 		.4byte	0
 7368              	.LLST95:
 7369 0d1e 00000000 		.4byte	.LFB74
 7370 0d22 02000000 		.4byte	.LCFI34
 7371 0d26 0200     		.2byte	0x2
 7372 0d28 7D       		.byte	0x7d
 7373 0d29 00       		.sleb128 0
 7374 0d2a 02000000 		.4byte	.LCFI34
 7375 0d2e 48000000 		.4byte	.LFE74
 7376 0d32 0200     		.2byte	0x2
 7377 0d34 7D       		.byte	0x7d
 7378 0d35 18       		.sleb128 24
 7379 0d36 00000000 		.4byte	0
 7380 0d3a 00000000 		.4byte	0
 7381              	.LLST96:
 7382 0d3e 00000000 		.4byte	.LVL231
 7383 0d42 06000000 		.4byte	.LVL232
 7384 0d46 0100     		.2byte	0x1
 7385 0d48 50       		.byte	0x50
 7386 0d49 06000000 		.4byte	.LVL232
 7387 0d4d 48000000 		.4byte	.LFE74
 7388 0d51 0400     		.2byte	0x4
 7389 0d53 F3       		.byte	0xf3
 7390 0d54 01       		.uleb128 0x1
 7391 0d55 50       		.byte	0x50
ARM GAS  C:\Users\atsu\AppData\Local\Temp\cc7os1vl.s 			page 146


 7392 0d56 9F       		.byte	0x9f
 7393 0d57 00000000 		.4byte	0
 7394 0d5b 00000000 		.4byte	0
 7395              	.LLST97:
 7396 0d5f 00000000 		.4byte	.LVL231
 7397 0d63 14000000 		.4byte	.LVL233
 7398 0d67 0200     		.2byte	0x2
 7399 0d69 30       		.byte	0x30
 7400 0d6a 9F       		.byte	0x9f
 7401 0d6b 14000000 		.4byte	.LVL233
 7402 0d6f 32000000 		.4byte	.LVL238
 7403 0d73 0100     		.2byte	0x1
 7404 0d75 54       		.byte	0x54
 7405 0d76 32000000 		.4byte	.LVL238
 7406 0d7a 36000000 		.4byte	.LVL239
 7407 0d7e 0600     		.2byte	0x6
 7408 0d80 70       		.byte	0x70
 7409 0d81 00       		.sleb128 0
 7410 0d82 08       		.byte	0x8
 7411 0d83 FF       		.byte	0xff
 7412 0d84 1A       		.byte	0x1a
 7413 0d85 9F       		.byte	0x9f
 7414 0d86 40000000 		.4byte	.LVL241
 7415 0d8a 46000000 		.4byte	.LVL242
 7416 0d8e 0100     		.2byte	0x1
 7417 0d90 54       		.byte	0x54
 7418 0d91 46000000 		.4byte	.LVL242
 7419 0d95 48000000 		.4byte	.LFE74
 7420 0d99 0100     		.2byte	0x1
 7421 0d9b 50       		.byte	0x50
 7422 0d9c 00000000 		.4byte	0
 7423 0da0 00000000 		.4byte	0
 7424              	.LLST98:
 7425 0da4 00000000 		.4byte	.LVL231
 7426 0da8 14000000 		.4byte	.LVL233
 7427 0dac 0200     		.2byte	0x2
 7428 0dae 30       		.byte	0x30
 7429 0daf 9F       		.byte	0x9f
 7430 0db0 1A000000 		.4byte	.LVL234
 7431 0db4 1E000000 		.4byte	.LVL235
 7432 0db8 0600     		.2byte	0x6
 7433 0dba 70       		.byte	0x70
 7434 0dbb 00       		.sleb128 0
 7435 0dbc 08       		.byte	0x8
 7436 0dbd FF       		.byte	0xff
 7437 0dbe 1A       		.byte	0x1a
 7438 0dbf 9F       		.byte	0x9f
 7439 0dc0 28000000 		.4byte	.LVL237
 7440 0dc4 31000000 		.4byte	.LVL238-1
 7441 0dc8 0100     		.2byte	0x1
 7442 0dca 52       		.byte	0x52
 7443 0dcb 31000000 		.4byte	.LVL238-1
 7444 0dcf 46000000 		.4byte	.LVL243
 7445 0dd3 0100     		.2byte	0x1
 7446 0dd5 55       		.byte	0x55
 7447 0dd6 00000000 		.4byte	0
 7448 0dda 00000000 		.4byte	0
ARM GAS  C:\Users\atsu\AppData\Local\Temp\cc7os1vl.s 			page 147


 7449              	.LLST99:
 7450 0dde 00000000 		.4byte	.LFB77
 7451 0de2 02000000 		.4byte	.LCFI35
 7452 0de6 0200     		.2byte	0x2
 7453 0de8 7D       		.byte	0x7d
 7454 0de9 00       		.sleb128 0
 7455 0dea 02000000 		.4byte	.LCFI35
 7456 0dee 44000000 		.4byte	.LFE77
 7457 0df2 0200     		.2byte	0x2
 7458 0df4 7D       		.byte	0x7d
 7459 0df5 18       		.sleb128 24
 7460 0df6 00000000 		.4byte	0
 7461 0dfa 00000000 		.4byte	0
 7462              	.LLST100:
 7463 0dfe 00000000 		.4byte	.LVL244
 7464 0e02 06000000 		.4byte	.LVL245
 7465 0e06 0100     		.2byte	0x1
 7466 0e08 50       		.byte	0x50
 7467 0e09 06000000 		.4byte	.LVL245
 7468 0e0d 44000000 		.4byte	.LFE77
 7469 0e11 0400     		.2byte	0x4
 7470 0e13 F3       		.byte	0xf3
 7471 0e14 01       		.uleb128 0x1
 7472 0e15 50       		.byte	0x50
 7473 0e16 9F       		.byte	0x9f
 7474 0e17 00000000 		.4byte	0
 7475 0e1b 00000000 		.4byte	0
 7476              	.LLST101:
 7477 0e1f 00000000 		.4byte	.LVL244
 7478 0e23 0E000000 		.4byte	.LVL246
 7479 0e27 0100     		.2byte	0x1
 7480 0e29 51       		.byte	0x51
 7481 0e2a 0E000000 		.4byte	.LVL246
 7482 0e2e 2A000000 		.4byte	.LVL254
 7483 0e32 0100     		.2byte	0x1
 7484 0e34 56       		.byte	0x56
 7485 0e35 2A000000 		.4byte	.LVL254
 7486 0e39 2E000000 		.4byte	.LVL255
 7487 0e3d 0A00     		.2byte	0xa
 7488 0e3f 77       		.byte	0x77
 7489 0e40 00       		.sleb128 0
 7490 0e41 0A       		.byte	0xa
 7491 0e42 FFFF     		.2byte	0xffff
 7492 0e44 1A       		.byte	0x1a
 7493 0e45 76       		.byte	0x76
 7494 0e46 00       		.sleb128 0
 7495 0e47 22       		.byte	0x22
 7496 0e48 9F       		.byte	0x9f
 7497 0e49 2E000000 		.4byte	.LVL255
 7498 0e4d 34000000 		.4byte	.LVL256
 7499 0e51 0B00     		.2byte	0xb
 7500 0e53 77       		.byte	0x77
 7501 0e54 00       		.sleb128 0
 7502 0e55 0A       		.byte	0xa
 7503 0e56 FFFF     		.2byte	0xffff
 7504 0e58 1A       		.byte	0x1a
 7505 0e59 F3       		.byte	0xf3
ARM GAS  C:\Users\atsu\AppData\Local\Temp\cc7os1vl.s 			page 148


 7506 0e5a 01       		.uleb128 0x1
 7507 0e5b 51       		.byte	0x51
 7508 0e5c 22       		.byte	0x22
 7509 0e5d 9F       		.byte	0x9f
 7510 0e5e 34000000 		.4byte	.LVL256
 7511 0e62 38000000 		.4byte	.LVL258
 7512 0e66 0100     		.2byte	0x1
 7513 0e68 56       		.byte	0x56
 7514 0e69 00000000 		.4byte	0
 7515 0e6d 00000000 		.4byte	0
 7516              	.LLST102:
 7517 0e71 00000000 		.4byte	.LVL244
 7518 0e75 10000000 		.4byte	.LVL247
 7519 0e79 0100     		.2byte	0x1
 7520 0e7b 52       		.byte	0x52
 7521 0e7c 10000000 		.4byte	.LVL247
 7522 0e80 44000000 		.4byte	.LFE77
 7523 0e84 0400     		.2byte	0x4
 7524 0e86 F3       		.byte	0xf3
 7525 0e87 01       		.uleb128 0x1
 7526 0e88 52       		.byte	0x52
 7527 0e89 9F       		.byte	0x9f
 7528 0e8a 00000000 		.4byte	0
 7529 0e8e 00000000 		.4byte	0
 7530              	.LLST103:
 7531 0e92 00000000 		.4byte	.LVL244
 7532 0e96 18000000 		.4byte	.LVL249
 7533 0e9a 0100     		.2byte	0x1
 7534 0e9c 53       		.byte	0x53
 7535 0e9d 18000000 		.4byte	.LVL249
 7536 0ea1 44000000 		.4byte	.LFE77
 7537 0ea5 0400     		.2byte	0x4
 7538 0ea7 F3       		.byte	0xf3
 7539 0ea8 01       		.uleb128 0x1
 7540 0ea9 53       		.byte	0x53
 7541 0eaa 9F       		.byte	0x9f
 7542 0eab 00000000 		.4byte	0
 7543 0eaf 00000000 		.4byte	0
 7544              	.LLST104:
 7545 0eb3 22000000 		.4byte	.LVL252
 7546 0eb7 29000000 		.4byte	.LVL254-1
 7547 0ebb 0100     		.2byte	0x1
 7548 0ebd 52       		.byte	0x52
 7549 0ebe 29000000 		.4byte	.LVL254-1
 7550 0ec2 2A000000 		.4byte	.LVL254
 7551 0ec6 0100     		.2byte	0x1
 7552 0ec8 57       		.byte	0x57
 7553 0ec9 2A000000 		.4byte	.LVL254
 7554 0ecd 34000000 		.4byte	.LVL256
 7555 0ed1 0600     		.2byte	0x6
 7556 0ed3 75       		.byte	0x75
 7557 0ed4 00       		.sleb128 0
 7558 0ed5 77       		.byte	0x77
 7559 0ed6 00       		.sleb128 0
 7560 0ed7 1C       		.byte	0x1c
 7561 0ed8 9F       		.byte	0x9f
 7562 0ed9 00000000 		.4byte	0
ARM GAS  C:\Users\atsu\AppData\Local\Temp\cc7os1vl.s 			page 149


 7563 0edd 00000000 		.4byte	0
 7564              	.LLST105:
 7565 0ee1 10000000 		.4byte	.LVL247
 7566 0ee5 20000000 		.4byte	.LVL251
 7567 0ee9 0100     		.2byte	0x1
 7568 0eeb 52       		.byte	0x52
 7569 0eec 20000000 		.4byte	.LVL251
 7570 0ef0 29000000 		.4byte	.LVL254-1
 7571 0ef4 0D00     		.2byte	0xd
 7572 0ef6 74       		.byte	0x74
 7573 0ef7 1C       		.sleb128 28
 7574 0ef8 94       		.byte	0x94
 7575 0ef9 02       		.byte	0x2
 7576 0efa 0A       		.byte	0xa
 7577 0efb FFFF     		.2byte	0xffff
 7578 0efd 1A       		.byte	0x1a
 7579 0efe F3       		.byte	0xf3
 7580 0eff 01       		.uleb128 0x1
 7581 0f00 52       		.byte	0x52
 7582 0f01 1A       		.byte	0x1a
 7583 0f02 9F       		.byte	0x9f
 7584 0f03 34000000 		.4byte	.LVL256
 7585 0f07 38000000 		.4byte	.LVL258
 7586 0f0b 0100     		.2byte	0x1
 7587 0f0d 52       		.byte	0x52
 7588 0f0e 00000000 		.4byte	0
 7589 0f12 00000000 		.4byte	0
 7590              	.LLST106:
 7591 0f16 16000000 		.4byte	.LVL248
 7592 0f1a 1A000000 		.4byte	.LVL250
 7593 0f1e 0100     		.2byte	0x1
 7594 0f20 50       		.byte	0x50
 7595 0f21 1A000000 		.4byte	.LVL250
 7596 0f25 20000000 		.4byte	.LVL251
 7597 0f29 0600     		.2byte	0x6
 7598 0f2b 71       		.byte	0x71
 7599 0f2c 00       		.sleb128 0
 7600 0f2d 72       		.byte	0x72
 7601 0f2e 00       		.sleb128 0
 7602 0f2f 22       		.byte	0x22
 7603 0f30 9F       		.byte	0x9f
 7604 0f31 20000000 		.4byte	.LVL251
 7605 0f35 24000000 		.4byte	.LVL253
 7606 0f39 1000     		.2byte	0x10
 7607 0f3b 74       		.byte	0x74
 7608 0f3c 1C       		.sleb128 28
 7609 0f3d 94       		.byte	0x94
 7610 0f3e 02       		.byte	0x2
 7611 0f3f 0A       		.byte	0xa
 7612 0f40 FFFF     		.2byte	0xffff
 7613 0f42 1A       		.byte	0x1a
 7614 0f43 F3       		.byte	0xf3
 7615 0f44 01       		.uleb128 0x1
 7616 0f45 52       		.byte	0x52
 7617 0f46 1A       		.byte	0x1a
 7618 0f47 71       		.byte	0x71
 7619 0f48 00       		.sleb128 0
ARM GAS  C:\Users\atsu\AppData\Local\Temp\cc7os1vl.s 			page 150


 7620 0f49 22       		.byte	0x22
 7621 0f4a 9F       		.byte	0x9f
 7622 0f4b 24000000 		.4byte	.LVL253
 7623 0f4f 29000000 		.4byte	.LVL254-1
 7624 0f53 1600     		.2byte	0x16
 7625 0f55 74       		.byte	0x74
 7626 0f56 1C       		.sleb128 28
 7627 0f57 94       		.byte	0x94
 7628 0f58 02       		.byte	0x2
 7629 0f59 0A       		.byte	0xa
 7630 0f5a FFFF     		.2byte	0xffff
 7631 0f5c 1A       		.byte	0x1a
 7632 0f5d F3       		.byte	0xf3
 7633 0f5e 01       		.uleb128 0x1
 7634 0f5f 52       		.byte	0x52
 7635 0f60 1A       		.byte	0x1a
 7636 0f61 74       		.byte	0x74
 7637 0f62 2C       		.sleb128 44
 7638 0f63 94       		.byte	0x94
 7639 0f64 02       		.byte	0x2
 7640 0f65 0A       		.byte	0xa
 7641 0f66 FFFF     		.2byte	0xffff
 7642 0f68 1A       		.byte	0x1a
 7643 0f69 22       		.byte	0x22
 7644 0f6a 9F       		.byte	0x9f
 7645 0f6b 34000000 		.4byte	.LVL256
 7646 0f6f 36000000 		.4byte	.LVL257
 7647 0f73 0600     		.2byte	0x6
 7648 0f75 71       		.byte	0x71
 7649 0f76 00       		.sleb128 0
 7650 0f77 72       		.byte	0x72
 7651 0f78 00       		.sleb128 0
 7652 0f79 22       		.byte	0x22
 7653 0f7a 9F       		.byte	0x9f
 7654 0f7b 36000000 		.4byte	.LVL257
 7655 0f7f 38000000 		.4byte	.LVL258
 7656 0f83 0C00     		.2byte	0xc
 7657 0f85 74       		.byte	0x74
 7658 0f86 2C       		.sleb128 44
 7659 0f87 94       		.byte	0x94
 7660 0f88 02       		.byte	0x2
 7661 0f89 0A       		.byte	0xa
 7662 0f8a FFFF     		.2byte	0xffff
 7663 0f8c 1A       		.byte	0x1a
 7664 0f8d 72       		.byte	0x72
 7665 0f8e 00       		.sleb128 0
 7666 0f8f 22       		.byte	0x22
 7667 0f90 9F       		.byte	0x9f
 7668 0f91 00000000 		.4byte	0
 7669 0f95 00000000 		.4byte	0
 7670              	.LLST107:
 7671 0f99 00000000 		.4byte	.LVL244
 7672 0f9d 06000000 		.4byte	.LVL245
 7673 0fa1 0100     		.2byte	0x1
 7674 0fa3 50       		.byte	0x50
 7675 0fa4 00000000 		.4byte	0
 7676 0fa8 00000000 		.4byte	0
ARM GAS  C:\Users\atsu\AppData\Local\Temp\cc7os1vl.s 			page 151


 7677              	.LLST108:
 7678 0fac 00000000 		.4byte	.LFB75
 7679 0fb0 02000000 		.4byte	.LCFI36
 7680 0fb4 0200     		.2byte	0x2
 7681 0fb6 7D       		.byte	0x7d
 7682 0fb7 00       		.sleb128 0
 7683 0fb8 02000000 		.4byte	.LCFI36
 7684 0fbc 50000000 		.4byte	.LFE75
 7685 0fc0 0200     		.2byte	0x2
 7686 0fc2 7D       		.byte	0x7d
 7687 0fc3 20       		.sleb128 32
 7688 0fc4 00000000 		.4byte	0
 7689 0fc8 00000000 		.4byte	0
 7690              	.LLST109:
 7691 0fcc 00000000 		.4byte	.LVL260
 7692 0fd0 08000000 		.4byte	.LVL261
 7693 0fd4 0100     		.2byte	0x1
 7694 0fd6 50       		.byte	0x50
 7695 0fd7 08000000 		.4byte	.LVL261
 7696 0fdb 50000000 		.4byte	.LFE75
 7697 0fdf 0400     		.2byte	0x4
 7698 0fe1 F3       		.byte	0xf3
 7699 0fe2 01       		.uleb128 0x1
 7700 0fe3 50       		.byte	0x50
 7701 0fe4 9F       		.byte	0x9f
 7702 0fe5 00000000 		.4byte	0
 7703 0fe9 00000000 		.4byte	0
 7704              	.LLST110:
 7705 0fed 00000000 		.4byte	.LVL260
 7706 0ff1 19000000 		.4byte	.LVL262-1
 7707 0ff5 0100     		.2byte	0x1
 7708 0ff7 51       		.byte	0x51
 7709 0ff8 19000000 		.4byte	.LVL262-1
 7710 0ffc 50000000 		.4byte	.LFE75
 7711 1000 0200     		.2byte	0x2
 7712 1002 91       		.byte	0x91
 7713 1003 64       		.sleb128 -28
 7714 1004 00000000 		.4byte	0
 7715 1008 00000000 		.4byte	0
 7716              	.LLST111:
 7717 100c 00000000 		.4byte	.LVL260
 7718 1010 19000000 		.4byte	.LVL262-1
 7719 1014 0100     		.2byte	0x1
 7720 1016 52       		.byte	0x52
 7721 1017 19000000 		.4byte	.LVL262-1
 7722 101b 50000000 		.4byte	.LFE75
 7723 101f 0400     		.2byte	0x4
 7724 1021 F3       		.byte	0xf3
 7725 1022 01       		.uleb128 0x1
 7726 1023 52       		.byte	0x52
 7727 1024 9F       		.byte	0x9f
 7728 1025 00000000 		.4byte	0
 7729 1029 00000000 		.4byte	0
 7730              	.LLST112:
 7731 102d 20000000 		.4byte	.LVL263
 7732 1031 22000000 		.4byte	.LVL264
 7733 1035 0600     		.2byte	0x6
ARM GAS  C:\Users\atsu\AppData\Local\Temp\cc7os1vl.s 			page 152


 7734 1037 70       		.byte	0x70
 7735 1038 00       		.sleb128 0
 7736 1039 08       		.byte	0x8
 7737 103a FF       		.byte	0xff
 7738 103b 1A       		.byte	0x1a
 7739 103c 9F       		.byte	0x9f
 7740 103d 22000000 		.4byte	.LVL264
 7741 1041 2C000000 		.4byte	.LVL266
 7742 1045 0600     		.2byte	0x6
 7743 1047 76       		.byte	0x76
 7744 1048 00       		.sleb128 0
 7745 1049 08       		.byte	0x8
 7746 104a FF       		.byte	0xff
 7747 104b 1A       		.byte	0x1a
 7748 104c 9F       		.byte	0x9f
 7749 104d 2C000000 		.4byte	.LVL266
 7750 1051 37000000 		.4byte	.LVL267-1
 7751 1055 0100     		.2byte	0x1
 7752 1057 52       		.byte	0x52
 7753 1058 37000000 		.4byte	.LVL267-1
 7754 105c 40000000 		.4byte	.LVL268
 7755 1060 0100     		.2byte	0x1
 7756 1062 56       		.byte	0x56
 7757 1063 40000000 		.4byte	.LVL268
 7758 1067 4E000000 		.4byte	.LVL271
 7759 106b 0100     		.2byte	0x1
 7760 106d 57       		.byte	0x57
 7761 106e 00000000 		.4byte	0
 7762 1072 00000000 		.4byte	0
 7763              	.LLST113:
 7764 1076 00000000 		.4byte	.LFB78
 7765 107a 02000000 		.4byte	.LCFI37
 7766 107e 0200     		.2byte	0x2
 7767 1080 7D       		.byte	0x7d
 7768 1081 00       		.sleb128 0
 7769 1082 02000000 		.4byte	.LCFI37
 7770 1086 44000000 		.4byte	.LFE78
 7771 108a 0200     		.2byte	0x2
 7772 108c 7D       		.byte	0x7d
 7773 108d 18       		.sleb128 24
 7774 108e 00000000 		.4byte	0
 7775 1092 00000000 		.4byte	0
 7776              	.LLST114:
 7777 1096 00000000 		.4byte	.LVL272
 7778 109a 06000000 		.4byte	.LVL273
 7779 109e 0100     		.2byte	0x1
 7780 10a0 50       		.byte	0x50
 7781 10a1 06000000 		.4byte	.LVL273
 7782 10a5 44000000 		.4byte	.LFE78
 7783 10a9 0400     		.2byte	0x4
 7784 10ab F3       		.byte	0xf3
 7785 10ac 01       		.uleb128 0x1
 7786 10ad 50       		.byte	0x50
 7787 10ae 9F       		.byte	0x9f
 7788 10af 00000000 		.4byte	0
 7789 10b3 00000000 		.4byte	0
 7790              	.LLST115:
ARM GAS  C:\Users\atsu\AppData\Local\Temp\cc7os1vl.s 			page 153


 7791 10b7 00000000 		.4byte	.LVL272
 7792 10bb 10000000 		.4byte	.LVL275
 7793 10bf 0100     		.2byte	0x1
 7794 10c1 51       		.byte	0x51
 7795 10c2 10000000 		.4byte	.LVL275
 7796 10c6 44000000 		.4byte	.LFE78
 7797 10ca 0400     		.2byte	0x4
 7798 10cc F3       		.byte	0xf3
 7799 10cd 01       		.uleb128 0x1
 7800 10ce 51       		.byte	0x51
 7801 10cf 9F       		.byte	0x9f
 7802 10d0 00000000 		.4byte	0
 7803 10d4 00000000 		.4byte	0
 7804              	.LLST116:
 7805 10d8 00000000 		.4byte	.LVL272
 7806 10dc 0E000000 		.4byte	.LVL274
 7807 10e0 0100     		.2byte	0x1
 7808 10e2 52       		.byte	0x52
 7809 10e3 0E000000 		.4byte	.LVL274
 7810 10e7 2A000000 		.4byte	.LVL283
 7811 10eb 0100     		.2byte	0x1
 7812 10ed 56       		.byte	0x56
 7813 10ee 2A000000 		.4byte	.LVL283
 7814 10f2 2E000000 		.4byte	.LVL284
 7815 10f6 0A00     		.2byte	0xa
 7816 10f8 77       		.byte	0x77
 7817 10f9 00       		.sleb128 0
 7818 10fa 0A       		.byte	0xa
 7819 10fb FFFF     		.2byte	0xffff
 7820 10fd 1A       		.byte	0x1a
 7821 10fe 76       		.byte	0x76
 7822 10ff 00       		.sleb128 0
 7823 1100 22       		.byte	0x22
 7824 1101 9F       		.byte	0x9f
 7825 1102 2E000000 		.4byte	.LVL284
 7826 1106 34000000 		.4byte	.LVL285
 7827 110a 0B00     		.2byte	0xb
 7828 110c 77       		.byte	0x77
 7829 110d 00       		.sleb128 0
 7830 110e 0A       		.byte	0xa
 7831 110f FFFF     		.2byte	0xffff
 7832 1111 1A       		.byte	0x1a
 7833 1112 F3       		.byte	0xf3
 7834 1113 01       		.uleb128 0x1
 7835 1114 52       		.byte	0x52
 7836 1115 22       		.byte	0x22
 7837 1116 9F       		.byte	0x9f
 7838 1117 34000000 		.4byte	.LVL285
 7839 111b 38000000 		.4byte	.LVL287
 7840 111f 0100     		.2byte	0x1
 7841 1121 56       		.byte	0x56
 7842 1122 00000000 		.4byte	0
 7843 1126 00000000 		.4byte	0
 7844              	.LLST117:
 7845 112a 00000000 		.4byte	.LVL272
 7846 112e 18000000 		.4byte	.LVL277
 7847 1132 0100     		.2byte	0x1
ARM GAS  C:\Users\atsu\AppData\Local\Temp\cc7os1vl.s 			page 154


 7848 1134 53       		.byte	0x53
 7849 1135 18000000 		.4byte	.LVL277
 7850 1139 44000000 		.4byte	.LFE78
 7851 113d 0400     		.2byte	0x4
 7852 113f F3       		.byte	0xf3
 7853 1140 01       		.uleb128 0x1
 7854 1141 53       		.byte	0x53
 7855 1142 9F       		.byte	0x9f
 7856 1143 00000000 		.4byte	0
 7857 1147 00000000 		.4byte	0
 7858              	.LLST118:
 7859 114b 22000000 		.4byte	.LVL280
 7860 114f 26000000 		.4byte	.LVL282
 7861 1153 0100     		.2byte	0x1
 7862 1155 51       		.byte	0x51
 7863 1156 26000000 		.4byte	.LVL282
 7864 115a 29000000 		.4byte	.LVL283-1
 7865 115e 0100     		.2byte	0x1
 7866 1160 52       		.byte	0x52
 7867 1161 29000000 		.4byte	.LVL283-1
 7868 1165 2A000000 		.4byte	.LVL283
 7869 1169 0100     		.2byte	0x1
 7870 116b 57       		.byte	0x57
 7871 116c 2A000000 		.4byte	.LVL283
 7872 1170 34000000 		.4byte	.LVL285
 7873 1174 0600     		.2byte	0x6
 7874 1176 75       		.byte	0x75
 7875 1177 00       		.sleb128 0
 7876 1178 77       		.byte	0x77
 7877 1179 00       		.sleb128 0
 7878 117a 1C       		.byte	0x1c
 7879 117b 9F       		.byte	0x9f
 7880 117c 00000000 		.4byte	0
 7881 1180 00000000 		.4byte	0
 7882              	.LLST119:
 7883 1184 10000000 		.4byte	.LVL275
 7884 1188 20000000 		.4byte	.LVL279
 7885 118c 0100     		.2byte	0x1
 7886 118e 51       		.byte	0x51
 7887 118f 20000000 		.4byte	.LVL279
 7888 1193 29000000 		.4byte	.LVL283-1
 7889 1197 0D00     		.2byte	0xd
 7890 1199 74       		.byte	0x74
 7891 119a 14       		.sleb128 20
 7892 119b 94       		.byte	0x94
 7893 119c 02       		.byte	0x2
 7894 119d 0A       		.byte	0xa
 7895 119e FFFF     		.2byte	0xffff
 7896 11a0 1A       		.byte	0x1a
 7897 11a1 F3       		.byte	0xf3
 7898 11a2 01       		.uleb128 0x1
 7899 11a3 51       		.byte	0x51
 7900 11a4 1A       		.byte	0x1a
 7901 11a5 9F       		.byte	0x9f
 7902 11a6 34000000 		.4byte	.LVL285
 7903 11aa 36000000 		.4byte	.LVL286
 7904 11ae 0100     		.2byte	0x1
ARM GAS  C:\Users\atsu\AppData\Local\Temp\cc7os1vl.s 			page 155


 7905 11b0 51       		.byte	0x51
 7906 11b1 36000000 		.4byte	.LVL286
 7907 11b5 38000000 		.4byte	.LVL287
 7908 11b9 0D00     		.2byte	0xd
 7909 11bb 74       		.byte	0x74
 7910 11bc 14       		.sleb128 20
 7911 11bd 94       		.byte	0x94
 7912 11be 02       		.byte	0x2
 7913 11bf 0A       		.byte	0xa
 7914 11c0 FFFF     		.2byte	0xffff
 7915 11c2 1A       		.byte	0x1a
 7916 11c3 F3       		.byte	0xf3
 7917 11c4 01       		.uleb128 0x1
 7918 11c5 51       		.byte	0x51
 7919 11c6 1A       		.byte	0x1a
 7920 11c7 9F       		.byte	0x9f
 7921 11c8 00000000 		.4byte	0
 7922 11cc 00000000 		.4byte	0
 7923              	.LLST120:
 7924 11d0 16000000 		.4byte	.LVL276
 7925 11d4 1A000000 		.4byte	.LVL278
 7926 11d8 0100     		.2byte	0x1
 7927 11da 50       		.byte	0x50
 7928 11db 1A000000 		.4byte	.LVL278
 7929 11df 20000000 		.4byte	.LVL279
 7930 11e3 0600     		.2byte	0x6
 7931 11e5 72       		.byte	0x72
 7932 11e6 00       		.sleb128 0
 7933 11e7 71       		.byte	0x71
 7934 11e8 00       		.sleb128 0
 7935 11e9 22       		.byte	0x22
 7936 11ea 9F       		.byte	0x9f
 7937 11eb 20000000 		.4byte	.LVL279
 7938 11ef 24000000 		.4byte	.LVL281
 7939 11f3 1000     		.2byte	0x10
 7940 11f5 74       		.byte	0x74
 7941 11f6 14       		.sleb128 20
 7942 11f7 94       		.byte	0x94
 7943 11f8 02       		.byte	0x2
 7944 11f9 0A       		.byte	0xa
 7945 11fa FFFF     		.2byte	0xffff
 7946 11fc 1A       		.byte	0x1a
 7947 11fd F3       		.byte	0xf3
 7948 11fe 01       		.uleb128 0x1
 7949 11ff 51       		.byte	0x51
 7950 1200 1A       		.byte	0x1a
 7951 1201 72       		.byte	0x72
 7952 1202 00       		.sleb128 0
 7953 1203 22       		.byte	0x22
 7954 1204 9F       		.byte	0x9f
 7955 1205 24000000 		.4byte	.LVL281
 7956 1209 29000000 		.4byte	.LVL283-1
 7957 120d 1600     		.2byte	0x16
 7958 120f 74       		.byte	0x74
 7959 1210 14       		.sleb128 20
 7960 1211 94       		.byte	0x94
 7961 1212 02       		.byte	0x2
ARM GAS  C:\Users\atsu\AppData\Local\Temp\cc7os1vl.s 			page 156


 7962 1213 0A       		.byte	0xa
 7963 1214 FFFF     		.2byte	0xffff
 7964 1216 1A       		.byte	0x1a
 7965 1217 F3       		.byte	0xf3
 7966 1218 01       		.uleb128 0x1
 7967 1219 51       		.byte	0x51
 7968 121a 1A       		.byte	0x1a
 7969 121b 74       		.byte	0x74
 7970 121c 24       		.sleb128 36
 7971 121d 94       		.byte	0x94
 7972 121e 02       		.byte	0x2
 7973 121f 0A       		.byte	0xa
 7974 1220 FFFF     		.2byte	0xffff
 7975 1222 1A       		.byte	0x1a
 7976 1223 22       		.byte	0x22
 7977 1224 9F       		.byte	0x9f
 7978 1225 34000000 		.4byte	.LVL285
 7979 1229 36000000 		.4byte	.LVL286
 7980 122d 0600     		.2byte	0x6
 7981 122f 72       		.byte	0x72
 7982 1230 00       		.sleb128 0
 7983 1231 71       		.byte	0x71
 7984 1232 00       		.sleb128 0
 7985 1233 22       		.byte	0x22
 7986 1234 9F       		.byte	0x9f
 7987 1235 36000000 		.4byte	.LVL286
 7988 1239 38000000 		.4byte	.LVL287
 7989 123d 1000     		.2byte	0x10
 7990 123f 74       		.byte	0x74
 7991 1240 14       		.sleb128 20
 7992 1241 94       		.byte	0x94
 7993 1242 02       		.byte	0x2
 7994 1243 0A       		.byte	0xa
 7995 1244 FFFF     		.2byte	0xffff
 7996 1246 1A       		.byte	0x1a
 7997 1247 F3       		.byte	0xf3
 7998 1248 01       		.uleb128 0x1
 7999 1249 51       		.byte	0x51
 8000 124a 1A       		.byte	0x1a
 8001 124b 72       		.byte	0x72
 8002 124c 00       		.sleb128 0
 8003 124d 22       		.byte	0x22
 8004 124e 9F       		.byte	0x9f
 8005 124f 00000000 		.4byte	0
 8006 1253 00000000 		.4byte	0
 8007              	.LLST121:
 8008 1257 00000000 		.4byte	.LVL272
 8009 125b 06000000 		.4byte	.LVL273
 8010 125f 0100     		.2byte	0x1
 8011 1261 50       		.byte	0x50
 8012 1262 00000000 		.4byte	0
 8013 1266 00000000 		.4byte	0
 8014              	.LLST122:
 8015 126a 00000000 		.4byte	.LFB76
 8016 126e 02000000 		.4byte	.LCFI38
 8017 1272 0200     		.2byte	0x2
 8018 1274 7D       		.byte	0x7d
ARM GAS  C:\Users\atsu\AppData\Local\Temp\cc7os1vl.s 			page 157


 8019 1275 00       		.sleb128 0
 8020 1276 02000000 		.4byte	.LCFI38
 8021 127a 50000000 		.4byte	.LFE76
 8022 127e 0200     		.2byte	0x2
 8023 1280 7D       		.byte	0x7d
 8024 1281 20       		.sleb128 32
 8025 1282 00000000 		.4byte	0
 8026 1286 00000000 		.4byte	0
 8027              	.LLST123:
 8028 128a 00000000 		.4byte	.LVL289
 8029 128e 08000000 		.4byte	.LVL290
 8030 1292 0100     		.2byte	0x1
 8031 1294 50       		.byte	0x50
 8032 1295 08000000 		.4byte	.LVL290
 8033 1299 50000000 		.4byte	.LFE76
 8034 129d 0400     		.2byte	0x4
 8035 129f F3       		.byte	0xf3
 8036 12a0 01       		.uleb128 0x1
 8037 12a1 50       		.byte	0x50
 8038 12a2 9F       		.byte	0x9f
 8039 12a3 00000000 		.4byte	0
 8040 12a7 00000000 		.4byte	0
 8041              	.LLST124:
 8042 12ab 00000000 		.4byte	.LVL289
 8043 12af 19000000 		.4byte	.LVL291-1
 8044 12b3 0100     		.2byte	0x1
 8045 12b5 51       		.byte	0x51
 8046 12b6 19000000 		.4byte	.LVL291-1
 8047 12ba 50000000 		.4byte	.LFE76
 8048 12be 0200     		.2byte	0x2
 8049 12c0 91       		.byte	0x91
 8050 12c1 64       		.sleb128 -28
 8051 12c2 00000000 		.4byte	0
 8052 12c6 00000000 		.4byte	0
 8053              	.LLST125:
 8054 12ca 00000000 		.4byte	.LVL289
 8055 12ce 19000000 		.4byte	.LVL291-1
 8056 12d2 0100     		.2byte	0x1
 8057 12d4 52       		.byte	0x52
 8058 12d5 19000000 		.4byte	.LVL291-1
 8059 12d9 50000000 		.4byte	.LFE76
 8060 12dd 0400     		.2byte	0x4
 8061 12df F3       		.byte	0xf3
 8062 12e0 01       		.uleb128 0x1
 8063 12e1 52       		.byte	0x52
 8064 12e2 9F       		.byte	0x9f
 8065 12e3 00000000 		.4byte	0
 8066 12e7 00000000 		.4byte	0
 8067              	.LLST126:
 8068 12eb 20000000 		.4byte	.LVL292
 8069 12ef 22000000 		.4byte	.LVL293
 8070 12f3 0600     		.2byte	0x6
 8071 12f5 70       		.byte	0x70
 8072 12f6 00       		.sleb128 0
 8073 12f7 08       		.byte	0x8
 8074 12f8 FF       		.byte	0xff
 8075 12f9 1A       		.byte	0x1a
ARM GAS  C:\Users\atsu\AppData\Local\Temp\cc7os1vl.s 			page 158


 8076 12fa 9F       		.byte	0x9f
 8077 12fb 22000000 		.4byte	.LVL293
 8078 12ff 2C000000 		.4byte	.LVL295
 8079 1303 0600     		.2byte	0x6
 8080 1305 76       		.byte	0x76
 8081 1306 00       		.sleb128 0
 8082 1307 08       		.byte	0x8
 8083 1308 FF       		.byte	0xff
 8084 1309 1A       		.byte	0x1a
 8085 130a 9F       		.byte	0x9f
 8086 130b 2C000000 		.4byte	.LVL295
 8087 130f 30000000 		.4byte	.LVL296
 8088 1313 0100     		.2byte	0x1
 8089 1315 52       		.byte	0x52
 8090 1316 30000000 		.4byte	.LVL296
 8091 131a 40000000 		.4byte	.LVL298
 8092 131e 0100     		.2byte	0x1
 8093 1320 56       		.byte	0x56
 8094 1321 40000000 		.4byte	.LVL298
 8095 1325 4E000000 		.4byte	.LVL301
 8096 1329 0100     		.2byte	0x1
 8097 132b 57       		.byte	0x57
 8098 132c 00000000 		.4byte	0
 8099 1330 00000000 		.4byte	0
 8100              		.section	.debug_aranges,"",%progbits
 8101 0000 84010000 		.4byte	0x184
 8102 0004 0200     		.2byte	0x2
 8103 0006 00000000 		.4byte	.Ldebug_info0
 8104 000a 04       		.byte	0x4
 8105 000b 00       		.byte	0
 8106 000c 0000     		.2byte	0
 8107 000e 0000     		.2byte	0
 8108 0010 00000000 		.4byte	.LFB33
 8109 0014 0C000000 		.4byte	.LFE33-.LFB33
 8110 0018 00000000 		.4byte	.LFB34
 8111 001c 0C000000 		.4byte	.LFE34-.LFB34
 8112 0020 00000000 		.4byte	.LFB35
 8113 0024 0C000000 		.4byte	.LFE35-.LFB35
 8114 0028 00000000 		.4byte	.LFB36
 8115 002c 10000000 		.4byte	.LFE36-.LFB36
 8116 0030 00000000 		.4byte	.LFB37
 8117 0034 10000000 		.4byte	.LFE37-.LFB37
 8118 0038 00000000 		.4byte	.LFB38
 8119 003c 10000000 		.4byte	.LFE38-.LFB38
 8120 0040 00000000 		.4byte	.LFB39
 8121 0044 10000000 		.4byte	.LFE39-.LFB39
 8122 0048 00000000 		.4byte	.LFB40
 8123 004c 10000000 		.4byte	.LFE40-.LFB40
 8124 0050 00000000 		.4byte	.LFB41
 8125 0054 10000000 		.4byte	.LFE41-.LFB41
 8126 0058 00000000 		.4byte	.LFB42
 8127 005c 2E000000 		.4byte	.LFE42-.LFB42
 8128 0060 00000000 		.4byte	.LFB43
 8129 0064 2C000000 		.4byte	.LFE43-.LFB43
 8130 0068 00000000 		.4byte	.LFB44
 8131 006c 42000000 		.4byte	.LFE44-.LFB44
 8132 0070 00000000 		.4byte	.LFB45
ARM GAS  C:\Users\atsu\AppData\Local\Temp\cc7os1vl.s 			page 159


 8133 0074 40000000 		.4byte	.LFE45-.LFB45
 8134 0078 00000000 		.4byte	.LFB47
 8135 007c 40010000 		.4byte	.LFE47-.LFB47
 8136 0080 00000000 		.4byte	.LFB48
 8137 0084 0E000000 		.4byte	.LFE48-.LFB48
 8138 0088 00000000 		.4byte	.LFB46
 8139 008c 16000000 		.4byte	.LFE46-.LFB46
 8140 0090 00000000 		.4byte	.LFB49
 8141 0094 26000000 		.4byte	.LFE49-.LFB49
 8142 0098 00000000 		.4byte	.LFB50
 8143 009c 26000000 		.4byte	.LFE50-.LFB50
 8144 00a0 00000000 		.4byte	.LFB51
 8145 00a4 26000000 		.4byte	.LFE51-.LFB51
 8146 00a8 00000000 		.4byte	.LFB52
 8147 00ac 36000000 		.4byte	.LFE52-.LFB52
 8148 00b0 00000000 		.4byte	.LFB53
 8149 00b4 26000000 		.4byte	.LFE53-.LFB53
 8150 00b8 00000000 		.4byte	.LFB54
 8151 00bc 0A000000 		.4byte	.LFE54-.LFB54
 8152 00c0 00000000 		.4byte	.LFB55
 8153 00c4 16000000 		.4byte	.LFE55-.LFB55
 8154 00c8 00000000 		.4byte	.LFB56
 8155 00cc 0C000000 		.4byte	.LFE56-.LFB56
 8156 00d0 00000000 		.4byte	.LFB57
 8157 00d4 0C000000 		.4byte	.LFE57-.LFB57
 8158 00d8 00000000 		.4byte	.LFB58
 8159 00dc 26000000 		.4byte	.LFE58-.LFB58
 8160 00e0 00000000 		.4byte	.LFB59
 8161 00e4 26000000 		.4byte	.LFE59-.LFB59
 8162 00e8 00000000 		.4byte	.LFB60
 8163 00ec 36000000 		.4byte	.LFE60-.LFB60
 8164 00f0 00000000 		.4byte	.LFB61
 8165 00f4 26000000 		.4byte	.LFE61-.LFB61
 8166 00f8 00000000 		.4byte	.LFB62
 8167 00fc 4E000000 		.4byte	.LFE62-.LFB62
 8168 0100 00000000 		.4byte	.LFB63
 8169 0104 4E000000 		.4byte	.LFE63-.LFB63
 8170 0108 00000000 		.4byte	.LFB64
 8171 010c 3A000000 		.4byte	.LFE64-.LFB64
 8172 0110 00000000 		.4byte	.LFB65
 8173 0114 3A000000 		.4byte	.LFE65-.LFB65
 8174 0118 00000000 		.4byte	.LFB66
 8175 011c 22000000 		.4byte	.LFE66-.LFB66
 8176 0120 00000000 		.4byte	.LFB67
 8177 0124 22000000 		.4byte	.LFE67-.LFB67
 8178 0128 00000000 		.4byte	.LFB68
 8179 012c 22000000 		.4byte	.LFE68-.LFB68
 8180 0130 00000000 		.4byte	.LFB69
 8181 0134 14000000 		.4byte	.LFE69-.LFB69
 8182 0138 00000000 		.4byte	.LFB70
 8183 013c 14000000 		.4byte	.LFE70-.LFB70
 8184 0140 00000000 		.4byte	.LFB71
 8185 0144 14000000 		.4byte	.LFE71-.LFB71
 8186 0148 00000000 		.4byte	.LFB72
 8187 014c 14000000 		.4byte	.LFE72-.LFB72
 8188 0150 00000000 		.4byte	.LFB73
 8189 0154 48000000 		.4byte	.LFE73-.LFB73
ARM GAS  C:\Users\atsu\AppData\Local\Temp\cc7os1vl.s 			page 160


 8190 0158 00000000 		.4byte	.LFB74
 8191 015c 48000000 		.4byte	.LFE74-.LFB74
 8192 0160 00000000 		.4byte	.LFB77
 8193 0164 44000000 		.4byte	.LFE77-.LFB77
 8194 0168 00000000 		.4byte	.LFB75
 8195 016c 50000000 		.4byte	.LFE75-.LFB75
 8196 0170 00000000 		.4byte	.LFB78
 8197 0174 44000000 		.4byte	.LFE78-.LFB78
 8198 0178 00000000 		.4byte	.LFB76
 8199 017c 50000000 		.4byte	.LFE76-.LFB76
 8200 0180 00000000 		.4byte	0
 8201 0184 00000000 		.4byte	0
 8202              		.section	.debug_ranges,"",%progbits
 8203              	.Ldebug_ranges0:
 8204 0000 00000000 		.4byte	.LFB33
 8205 0004 0C000000 		.4byte	.LFE33
 8206 0008 00000000 		.4byte	.LFB34
 8207 000c 0C000000 		.4byte	.LFE34
 8208 0010 00000000 		.4byte	.LFB35
 8209 0014 0C000000 		.4byte	.LFE35
 8210 0018 00000000 		.4byte	.LFB36
 8211 001c 10000000 		.4byte	.LFE36
 8212 0020 00000000 		.4byte	.LFB37
 8213 0024 10000000 		.4byte	.LFE37
 8214 0028 00000000 		.4byte	.LFB38
 8215 002c 10000000 		.4byte	.LFE38
 8216 0030 00000000 		.4byte	.LFB39
 8217 0034 10000000 		.4byte	.LFE39
 8218 0038 00000000 		.4byte	.LFB40
 8219 003c 10000000 		.4byte	.LFE40
 8220 0040 00000000 		.4byte	.LFB41
 8221 0044 10000000 		.4byte	.LFE41
 8222 0048 00000000 		.4byte	.LFB42
 8223 004c 2E000000 		.4byte	.LFE42
 8224 0050 00000000 		.4byte	.LFB43
 8225 0054 2C000000 		.4byte	.LFE43
 8226 0058 00000000 		.4byte	.LFB44
 8227 005c 42000000 		.4byte	.LFE44
 8228 0060 00000000 		.4byte	.LFB45
 8229 0064 40000000 		.4byte	.LFE45
 8230 0068 00000000 		.4byte	.LFB47
 8231 006c 40010000 		.4byte	.LFE47
 8232 0070 00000000 		.4byte	.LFB48
 8233 0074 0E000000 		.4byte	.LFE48
 8234 0078 00000000 		.4byte	.LFB46
 8235 007c 16000000 		.4byte	.LFE46
 8236 0080 00000000 		.4byte	.LFB49
 8237 0084 26000000 		.4byte	.LFE49
 8238 0088 00000000 		.4byte	.LFB50
 8239 008c 26000000 		.4byte	.LFE50
 8240 0090 00000000 		.4byte	.LFB51
 8241 0094 26000000 		.4byte	.LFE51
 8242 0098 00000000 		.4byte	.LFB52
 8243 009c 36000000 		.4byte	.LFE52
 8244 00a0 00000000 		.4byte	.LFB53
 8245 00a4 26000000 		.4byte	.LFE53
 8246 00a8 00000000 		.4byte	.LFB54
ARM GAS  C:\Users\atsu\AppData\Local\Temp\cc7os1vl.s 			page 161


 8247 00ac 0A000000 		.4byte	.LFE54
 8248 00b0 00000000 		.4byte	.LFB55
 8249 00b4 16000000 		.4byte	.LFE55
 8250 00b8 00000000 		.4byte	.LFB56
 8251 00bc 0C000000 		.4byte	.LFE56
 8252 00c0 00000000 		.4byte	.LFB57
 8253 00c4 0C000000 		.4byte	.LFE57
 8254 00c8 00000000 		.4byte	.LFB58
 8255 00cc 26000000 		.4byte	.LFE58
 8256 00d0 00000000 		.4byte	.LFB59
 8257 00d4 26000000 		.4byte	.LFE59
 8258 00d8 00000000 		.4byte	.LFB60
 8259 00dc 36000000 		.4byte	.LFE60
 8260 00e0 00000000 		.4byte	.LFB61
 8261 00e4 26000000 		.4byte	.LFE61
 8262 00e8 00000000 		.4byte	.LFB62
 8263 00ec 4E000000 		.4byte	.LFE62
 8264 00f0 00000000 		.4byte	.LFB63
 8265 00f4 4E000000 		.4byte	.LFE63
 8266 00f8 00000000 		.4byte	.LFB64
 8267 00fc 3A000000 		.4byte	.LFE64
 8268 0100 00000000 		.4byte	.LFB65
 8269 0104 3A000000 		.4byte	.LFE65
 8270 0108 00000000 		.4byte	.LFB66
 8271 010c 22000000 		.4byte	.LFE66
 8272 0110 00000000 		.4byte	.LFB67
 8273 0114 22000000 		.4byte	.LFE67
 8274 0118 00000000 		.4byte	.LFB68
 8275 011c 22000000 		.4byte	.LFE68
 8276 0120 00000000 		.4byte	.LFB69
 8277 0124 14000000 		.4byte	.LFE69
 8278 0128 00000000 		.4byte	.LFB70
 8279 012c 14000000 		.4byte	.LFE70
 8280 0130 00000000 		.4byte	.LFB71
 8281 0134 14000000 		.4byte	.LFE71
 8282 0138 00000000 		.4byte	.LFB72
 8283 013c 14000000 		.4byte	.LFE72
 8284 0140 00000000 		.4byte	.LFB73
 8285 0144 48000000 		.4byte	.LFE73
 8286 0148 00000000 		.4byte	.LFB74
 8287 014c 48000000 		.4byte	.LFE74
 8288 0150 00000000 		.4byte	.LFB77
 8289 0154 44000000 		.4byte	.LFE77
 8290 0158 00000000 		.4byte	.LFB75
 8291 015c 50000000 		.4byte	.LFE75
 8292 0160 00000000 		.4byte	.LFB78
 8293 0164 44000000 		.4byte	.LFE78
 8294 0168 00000000 		.4byte	.LFB76
 8295 016c 50000000 		.4byte	.LFE76
 8296 0170 00000000 		.4byte	0
 8297 0174 00000000 		.4byte	0
 8298              		.section	.debug_line,"",%progbits
 8299              	.Ldebug_line0:
 8300 0000 72050000 		.section	.debug_str,"MS",%progbits,1
 8300      02007500 
 8300      00000201 
 8300      FB0E0D00 
ARM GAS  C:\Users\atsu\AppData\Local\Temp\cc7os1vl.s 			page 162


 8300      01010101 
 8301              	.LASF55:
 8302 0000 67657453 		.ascii	"getSUBR\000"
 8302      55425200 
 8303              	.LASF44:
 8304 0008 73657453 		.ascii	"setSUBR\000"
 8304      55425200 
 8305              	.LASF50:
 8306 0010 73657452 		.ascii	"setRCR\000"
 8306      435200
 8307              	.LASF66:
 8308 0017 73657453 		.ascii	"setSn_TTL\000"
 8308      6E5F5454 
 8308      4C00
 8309              	.LASF84:
 8310 0021 534D4153 		.ascii	"SMASK\000"
 8310      4B00
 8311              	.LASF39:
 8312 0027 7273756D 		.ascii	"rsum\000"
 8312      00
 8313              	.LASF88:
 8314 002c 53425546 		.ascii	"SBUFBASEADDRESS\000"
 8314      42415345 
 8314      41444452 
 8314      45535300 
 8315              	.LASF3:
 8316 003c 73686F72 		.ascii	"short int\000"
 8316      7420696E 
 8316      7400
 8317              	.LASF8:
 8318 0046 73697A65 		.ascii	"sizetype\000"
 8318      74797065 
 8318      00
 8319              	.LASF27:
 8320 004f 67657449 		.ascii	"getISR\000"
 8320      535200
 8321              	.LASF57:
 8322 0056 67657453 		.ascii	"getSIPR\000"
 8322      49505200 
 8323              	.LASF96:
 8324 005e 433A5C55 		.ascii	"C:\\Users\\atsu\\Desktop\\W5100_PSoC4_test\\W5100_P"
 8324      73657273 
 8324      5C617473 
 8324      755C4465 
 8324      736B746F 
 8325 008c 536F4334 		.ascii	"SoC4_test.cydsn\000"
 8325      5F746573 
 8325      742E6379 
 8325      64736E00 
 8326              	.LASF46:
 8327 009c 73657453 		.ascii	"setSIPR\000"
 8327      49505200 
 8328              	.LASF82:
 8329 00a4 72656376 		.ascii	"recv_data_processing\000"
 8329      5F646174 
 8329      615F7072 
 8329      6F636573 
ARM GAS  C:\Users\atsu\AppData\Local\Temp\cc7os1vl.s 			page 163


 8329      73696E67 
 8330              	.LASF59:
 8331 00b9 73657453 		.ascii	"setSn_DHAR\000"
 8331      6E5F4448 
 8331      415200
 8332              	.LASF87:
 8333 00c4 5253495A 		.ascii	"RSIZE\000"
 8333      4500
 8334              	.LASF51:
 8335 00ca 72657472 		.ascii	"retry\000"
 8335      7900
 8336              	.LASF70:
 8337 00d0 67657453 		.ascii	"getSn_SR\000"
 8337      6E5F5352 
 8337      00
 8338              	.LASF90:
 8339 00d9 7370695F 		.ascii	"spi_master_send\000"
 8339      6D617374 
 8339      65725F73 
 8339      656E6400 
 8340              	.LASF41:
 8341 00e9 69696E63 		.ascii	"iinchip_init\000"
 8341      6869705F 
 8341      696E6974 
 8341      00
 8342              	.LASF32:
 8343 00f6 77697A5F 		.ascii	"wiz_write_buf\000"
 8343      77726974 
 8343      655F6275 
 8343      6600
 8344              	.LASF17:
 8345 0104 7675696E 		.ascii	"vuint8\000"
 8345      743800
 8346              	.LASF92:
 8347 010b 7370695F 		.ascii	"spi_cs_high\000"
 8347      63735F68 
 8347      69676800 
 8348              	.LASF78:
 8349 0117 73656E64 		.ascii	"send_data_processing\000"
 8349      5F646174 
 8349      615F7072 
 8349      6F636573 
 8349      73696E67 
 8350              	.LASF79:
 8351 012c 72656164 		.ascii	"read_data\000"
 8351      5F646174 
 8351      6100
 8352              	.LASF56:
 8353 0136 67657453 		.ascii	"getSHAR\000"
 8353      48415200 
 8354              	.LASF14:
 8355 013e 696E7431 		.ascii	"int16\000"
 8355      3600
 8356              	.LASF45:
 8357 0144 73657453 		.ascii	"setSHAR\000"
 8357      48415200 
 8358              	.LASF48:
ARM GAS  C:\Users\atsu\AppData\Local\Temp\cc7os1vl.s 			page 164


 8359 014c 73657452 		.ascii	"setRTR\000"
 8359      545200
 8360              	.LASF93:
 8361 0153 7370695F 		.ascii	"spi_master_init\000"
 8361      6D617374 
 8361      65725F69 
 8361      6E697400 
 8362              	.LASF74:
 8363 0163 77726974 		.ascii	"write_data\000"
 8363      655F6461 
 8363      746100
 8364              	.LASF15:
 8365 016e 666C6F61 		.ascii	"float\000"
 8365      7400
 8366              	.LASF11:
 8367 0174 75696E74 		.ascii	"uint8\000"
 8367      3800
 8368              	.LASF5:
 8369 017a 6C6F6E67 		.ascii	"long long int\000"
 8369      206C6F6E 
 8369      6720696E 
 8369      7400
 8370              	.LASF38:
 8371 0188 7373756D 		.ascii	"ssum\000"
 8371      00
 8372              	.LASF20:
 8373 018d 67657449 		.ascii	"getIINCHIP_TxMASK\000"
 8373      494E4348 
 8373      49505F54 
 8373      784D4153 
 8373      4B00
 8374              	.LASF7:
 8375 019f 6C6F6E67 		.ascii	"long int\000"
 8375      20696E74 
 8375      00
 8376              	.LASF24:
 8377 01a8 67657449 		.ascii	"getIINCHIP_RxMASK\000"
 8377      494E4348 
 8377      49505F52 
 8377      784D4153 
 8377      4B00
 8378              	.LASF29:
 8379 01ba 61646472 		.ascii	"addr\000"
 8379      00
 8380              	.LASF13:
 8381 01bf 696E7438 		.ascii	"int8\000"
 8381      00
 8382              	.LASF97:
 8383 01c4 77616974 		.ascii	"wait_delay_ms\000"
 8383      5F64656C 
 8383      61795F6D 
 8383      7300
 8384              	.LASF68:
 8385 01d2 70726F74 		.ascii	"proto\000"
 8385      6F00
 8386              	.LASF52:
 8387 01d8 73657449 		.ascii	"setIMR\000"
ARM GAS  C:\Users\atsu\AppData\Local\Temp\cc7os1vl.s 			page 165


 8387      4D5200
 8388              	.LASF2:
 8389 01df 756E7369 		.ascii	"unsigned char\000"
 8389      676E6564 
 8389      20636861 
 8389      7200
 8390              	.LASF28:
 8391 01ed 49494E43 		.ascii	"IINCHIP_WRITE\000"
 8391      4849505F 
 8391      57524954 
 8391      4500
 8392              	.LASF42:
 8393 01fb 73657447 		.ascii	"setGAR\000"
 8393      415200
 8394              	.LASF31:
 8395 0202 49494E43 		.ascii	"IINCHIP_READ\000"
 8395      4849505F 
 8395      52454144 
 8395      00
 8396              	.LASF22:
 8397 020f 67657449 		.ascii	"getIINCHIP_TxBASE\000"
 8397      494E4348 
 8397      49505F54 
 8397      78424153 
 8397      4500
 8398              	.LASF69:
 8399 0221 67657453 		.ascii	"getSn_IR\000"
 8399      6E5F4952 
 8399      00
 8400              	.LASF86:
 8401 022a 5353495A 		.ascii	"SSIZE\000"
 8401      4500
 8402              	.LASF40:
 8403 0230 7365744D 		.ascii	"setMR\000"
 8403      5200
 8404              	.LASF1:
 8405 0236 7369676E 		.ascii	"signed char\000"
 8405      65642063 
 8405      68617200 
 8406              	.LASF6:
 8407 0242 6C6F6E67 		.ascii	"long long unsigned int\000"
 8407      206C6F6E 
 8407      6720756E 
 8407      7369676E 
 8407      65642069 
 8408              	.LASF43:
 8409 0259 67657447 		.ascii	"getGWIP\000"
 8409      57495000 
 8410              	.LASF54:
 8411 0261 67657447 		.ascii	"getGAR\000"
 8411      415200
 8412              	.LASF0:
 8413 0268 756E7369 		.ascii	"unsigned int\000"
 8413      676E6564 
 8413      20696E74 
 8413      00
 8414              	.LASF60:
ARM GAS  C:\Users\atsu\AppData\Local\Temp\cc7os1vl.s 			page 166


 8415 0275 67657453 		.ascii	"getSn_DIPR\000"
 8415      6E5F4449 
 8415      505200
 8416              	.LASF36:
 8417 0280 74785F73 		.ascii	"tx_size\000"
 8417      697A6500 
 8418              	.LASF23:
 8419 0288 67657449 		.ascii	"getIINCHIP_TxMAX\000"
 8419      494E4348 
 8419      49505F54 
 8419      784D4158 
 8419      00
 8420              	.LASF64:
 8421 0299 73657453 		.ascii	"setSn_MSS\000"
 8421      6E5F4D53 
 8421      5300
 8422              	.LASF76:
 8423 02a3 6473745F 		.ascii	"dst_mask\000"
 8423      6D61736B 
 8423      00
 8424              	.LASF4:
 8425 02ac 73686F72 		.ascii	"short unsigned int\000"
 8425      7420756E 
 8425      7369676E 
 8425      65642069 
 8425      6E7400
 8426              	.LASF67:
 8427 02bf 73657453 		.ascii	"setSn_PROTO\000"
 8427      6E5F5052 
 8427      4F544F00 
 8428              	.LASF10:
 8429 02cb 63686172 		.ascii	"char\000"
 8429      00
 8430              	.LASF62:
 8431 02d0 67657453 		.ascii	"getSn_DPORT\000"
 8431      6E5F4450 
 8431      4F525400 
 8432              	.LASF58:
 8433 02dc 67657453 		.ascii	"getSn_DHAR\000"
 8433      6E5F4448 
 8433      415200
 8434              	.LASF34:
 8435 02e7 70757449 		.ascii	"putISR\000"
 8435      535200
 8436              	.LASF19:
 8437 02ee 5350495F 		.ascii	"SPI_transfer\000"
 8437      7472616E 
 8437      73666572 
 8437      00
 8438              	.LASF26:
 8439 02fb 67657449 		.ascii	"getIINCHIP_RxMAX\000"
 8439      494E4348 
 8439      49505F52 
 8439      784D4158 
 8439      00
 8440              	.LASF85:
 8441 030c 524D4153 		.ascii	"RMASK\000"
ARM GAS  C:\Users\atsu\AppData\Local\Temp\cc7os1vl.s 			page 167


 8441      4B00
 8442              	.LASF30:
 8443 0312 64617461 		.ascii	"data\000"
 8443      00
 8444              	.LASF65:
 8445 0317 536E5F4D 		.ascii	"Sn_MSSR0\000"
 8445      53535230 
 8445      00
 8446              	.LASF12:
 8447 0320 75696E74 		.ascii	"uint16\000"
 8447      313600
 8448              	.LASF47:
 8449 0327 67657449 		.ascii	"getIR\000"
 8449      5200
 8450              	.LASF77:
 8451 032d 6473745F 		.ascii	"dst_ptr\000"
 8451      70747200 
 8452              	.LASF37:
 8453 0335 72785F73 		.ascii	"rx_size\000"
 8453      697A6500 
 8454              	.LASF9:
 8455 033d 6C6F6E67 		.ascii	"long unsigned int\000"
 8455      20756E73 
 8455      69676E65 
 8455      6420696E 
 8455      7400
 8456              	.LASF71:
 8457 034f 67657453 		.ascii	"getSn_TX_FSR\000"
 8457      6E5F5458 
 8457      5F465352 
 8457      00
 8458              	.LASF16:
 8459 035c 646F7562 		.ascii	"double\000"
 8459      6C6500
 8460              	.LASF94:
 8461 0363 474E5520 		.ascii	"GNU C 4.7.3 20130312 (release) [ARM/embedded-4_7-br"
 8461      4320342E 
 8461      372E3320 
 8461      32303133 
 8461      30333132 
 8462 0396 616E6368 		.ascii	"anch revision 196615]\000"
 8462      20726576 
 8462      6973696F 
 8462      6E203139 
 8462      36363135 
 8463              	.LASF75:
 8464 03ac 73697A65 		.ascii	"size\000"
 8464      00
 8465              	.LASF95:
 8466 03b1 2E5C7735 		.ascii	".\\w5100.c\000"
 8466      3130302E 
 8466      6300
 8467              	.LASF21:
 8468 03bb 73656E64 		.ascii	"send_data\000"
 8468      5F646174 
 8468      6100
 8469              	.LASF80:
ARM GAS  C:\Users\atsu\AppData\Local\Temp\cc7os1vl.s 			page 168


 8470 03c5 7372635F 		.ascii	"src_mask\000"
 8470      6D61736B 
 8470      00
 8471              	.LASF83:
 8472 03ce 495F5354 		.ascii	"I_STATUS\000"
 8472      41545553 
 8472      00
 8473              	.LASF61:
 8474 03d7 73657453 		.ascii	"setSn_DIPR\000"
 8474      6E5F4449 
 8474      505200
 8475              	.LASF35:
 8476 03e2 73797369 		.ascii	"sysinit\000"
 8476      6E697400 
 8477              	.LASF73:
 8478 03ea 67657453 		.ascii	"getSn_RX_RSR\000"
 8478      6E5F5258 
 8478      5F525352 
 8478      00
 8479              	.LASF18:
 8480 03f7 534F434B 		.ascii	"SOCKET\000"
 8480      455400
 8481              	.LASF33:
 8482 03fe 77697A5F 		.ascii	"wiz_read_buf\000"
 8482      72656164 
 8482      5F627566 
 8482      00
 8483              	.LASF72:
 8484 040b 76616C31 		.ascii	"val1\000"
 8484      00
 8485              	.LASF81:
 8486 0410 7372635F 		.ascii	"src_ptr\000"
 8486      70747200 
 8487              	.LASF25:
 8488 0418 67657449 		.ascii	"getIINCHIP_RxBASE\000"
 8488      494E4348 
 8488      49505F52 
 8488      78424153 
 8488      4500
 8489              	.LASF91:
 8490 042a 7370695F 		.ascii	"spi_cs_low\000"
 8490      63735F6C 
 8490      6F7700
 8491              	.LASF49:
 8492 0435 74696D65 		.ascii	"timeout\000"
 8492      6F757400 
 8493              	.LASF63:
 8494 043d 73657453 		.ascii	"setSn_DPORT\000"
 8494      6E5F4450 
 8494      4F525400 
 8495              	.LASF89:
 8496 0449 52425546 		.ascii	"RBUFBASEADDRESS\000"
 8496      42415345 
 8496      41444452 
 8496      45535300 
 8497              	.LASF53:
 8498 0459 6D61736B 		.ascii	"mask\000"
ARM GAS  C:\Users\atsu\AppData\Local\Temp\cc7os1vl.s 			page 169


 8498      00
 8499              		.ident	"GCC: (GNU Tools for ARM Embedded Processors) 4.7.3 20130312 (release) [ARM/embedded-4_7-br
