ARM GAS  C:\Users\atsu\AppData\Local\Temp\cc7os1vl.s 			page 1


   1              		.cpu cortex-m0
   2              		.fpu softvfp
   3              		.eabi_attribute 20, 1
   4              		.eabi_attribute 21, 1
   5              		.eabi_attribute 23, 3
   6              		.eabi_attribute 24, 1
   7              		.eabi_attribute 25, 1
   8              		.eabi_attribute 26, 1
   9              		.eabi_attribute 30, 4
  10              		.eabi_attribute 34, 0
  11              		.eabi_attribute 18, 4
  12              		.code	16
  13              		.file	"w5100.c"
  14              		.text
  15              	.Ltext0:
  16              		.cfi_sections	.debug_frame
  17              		.section	.text.SPI_transfer,"ax",%progbits
  18              		.align	1
  19              		.global	SPI_transfer
  20              		.code	16
  21              		.thumb_func
  22              		.type	SPI_transfer, %function
  23              	SPI_transfer:
  24              	.LFB33:
  25              		.file 1 ".\\w5100.c"
   1:.\w5100.c     **** /*
   2:.\w5100.c     ****  * (c)COPYRIGHT
   3:.\w5100.c     ****  * ALL RIGHT RESERVED
   4:.\w5100.c     ****  *
   5:.\w5100.c     ****  * FileName : w5100.c
   6:.\w5100.c     ****  * Revision History :
   7:.\w5100.c     ****  * ----------	-------		------------------------------------------------
   8:.\w5100.c     ****  * 	Date			version	  	Description
   9:.\w5100.c     ****  * ----------	-------  	------------------------------------------------
  10:.\w5100.c     ****  * 01/25/2007	1.1			Bug is Fixed in the Indirect Mode 
  11:.\w5100.c     ****  *							: Memory mapping error	
  12:.\w5100.c     ****  * ----------	-------		------------------------------------------------
  13:.\w5100.c     ****  * 01/08/2008	1.2			Modification of Socket Command Part
  14:.\w5100.c     ****  *							: Check if the appropriately performed after writing Sn_CR
  15:.\w5100.c     ****  *
  16:.\w5100.c     ****  *							Modification of SPI Part
  17:.\w5100.c     ****  *							: SPI code changed by adding 'spi.h'.
  18:.\w5100.c     ****  *							: Change control type for SPI port from uint8 to bit.
  19:.\w5100.c     ****  * ----------	-------		------------------------------------------------
  20:.\w5100.c     ****  * 01/15/2008	1.3			Bug is Fixed in the pppinit() fuction.
  21:.\w5100.c     ****  *							: do not clear interrupt value, so fixed.
  22:.\w5100.c     ****  *
  23:.\w5100.c     ****  *		                   			Modification of ISR
  24:.\w5100.c     ****  *                   				: Do not exit ISR, if there is interrupt.
  25:.\w5100.c     ****  * ----------	-------		------------------------------------------------
  26:.\w5100.c     ****  * 03/21/2008	1.4			Modification of SetMR() function
  27:.\w5100.c     ****  *                   				: Use IINCHIP_WRITE() function in Direct or SPI mode.
  28:.\w5100.c     ****  * ----------	-------		------------------------------------------------
  29:.\w5100.c     ****  */
  30:.\w5100.c     **** #include <stdio.h>
  31:.\w5100.c     **** #include <string.h>
  32:.\w5100.c     **** 
ARM GAS  C:\Users\atsu\AppData\Local\Temp\cc7os1vl.s 			page 2


  33:.\w5100.c     **** //#include <avr/interrupt.h>
  34:.\w5100.c     **** // #include <avr/io.h> 
  35:.\w5100.c     ****    
  36:.\w5100.c     **** #include "types.h"
  37:.\w5100.c     **** #include "socket.h"
  38:.\w5100.c     **** #include "w5100.h"
  39:.\w5100.c     **** 
  40:.\w5100.c     **** #include "device_depend.h"
  41:.\w5100.c     **** 
  42:.\w5100.c     **** 
  43:.\w5100.c     **** #ifdef __DEF_IINCHIP_PPP__
  44:.\w5100.c     ****    #include "md5.h"
  45:.\w5100.c     **** #endif
  46:.\w5100.c     **** 
  47:.\w5100.c     **** 
  48:.\w5100.c     **** #if (__DEF_IINCHIP_BUS__ == __DEF_IINCHIP_SPI_MODE__)
  49:.\w5100.c     **** //#include "spi.h"		//+2007113[jhpark]
  50:.\w5100.c     **** #include <project.h>
  51:.\w5100.c     **** #endif
  52:.\w5100.c     **** 
  53:.\w5100.c     **** static uint8 I_STATUS[MAX_SOCK_NUM];
  54:.\w5100.c     **** static uint16 SMASK[MAX_SOCK_NUM]; /**< Variable for Tx buffer MASK in each channel */
  55:.\w5100.c     **** static uint16 RMASK[MAX_SOCK_NUM]; /**< Variable for Rx buffer MASK in each channel */
  56:.\w5100.c     **** static uint16 SSIZE[MAX_SOCK_NUM]; /**< Max Tx buffer size by each channel */
  57:.\w5100.c     **** static uint16 RSIZE[MAX_SOCK_NUM]; /**< Max Rx buffer size by each channel */
  58:.\w5100.c     **** static uint16 SBUFBASEADDRESS[MAX_SOCK_NUM]; /**< Tx buffer base address by each channel */
  59:.\w5100.c     **** static uint16 RBUFBASEADDRESS[MAX_SOCK_NUM]; /**< Rx buffer base address by each channel */
  60:.\w5100.c     **** 
  61:.\w5100.c     **** int8 SPI_transfer(int8 send_data){
  26              		.loc 1 61 0
  27              		.cfi_startproc
  28              	.LVL0:
  29 0000 08B5     		push	{r3, lr}
  30              	.LCFI0:
  31              		.cfi_def_cfa_offset 8
  32              		.cfi_offset 3, -8
  33              		.cfi_offset 14, -4
  62:.\w5100.c     **** 	return ((int8)spi_master_send(send_data));
  34              		.loc 1 62 0
  35 0002 C0B2     		uxtb	r0, r0
  36 0004 FFF7FEFF 		bl	spi_master_send
  37              	.LVL1:
  63:.\w5100.c     **** }
  38              		.loc 1 63 0
  39              		@ sp needed for prologue
  62:.\w5100.c     **** 	return ((int8)spi_master_send(send_data));
  40              		.loc 1 62 0
  41 0008 40B2     		sxtb	r0, r0
  42              		.loc 1 63 0
  43 000a 08BD     		pop	{r3, pc}
  44              		.cfi_endproc
  45              	.LFE33:
  46              		.size	SPI_transfer, .-SPI_transfer
  47              		.section	.text.getISR,"ax",%progbits
  48              		.align	1
  49              		.global	getISR
  50              		.code	16
ARM GAS  C:\Users\atsu\AppData\Local\Temp\cc7os1vl.s 			page 3


  51              		.thumb_func
  52              		.type	getISR, %function
  53              	getISR:
  54              	.LFB34:
  64:.\w5100.c     **** uint8 getISR(uint8 s)
  65:.\w5100.c     **** {
  55              		.loc 1 65 0
  56              		.cfi_startproc
  57              	.LVL2:
  66:.\w5100.c     **** 	return I_STATUS[s];
  58              		.loc 1 66 0
  59 0000 014B     		ldr	r3, .L3
  67:.\w5100.c     **** }
  60              		.loc 1 67 0
  61              		@ sp needed for prologue
  66:.\w5100.c     **** 	return I_STATUS[s];
  62              		.loc 1 66 0
  63 0002 185C     		ldrb	r0, [r3, r0]
  64              	.LVL3:
  65              		.loc 1 67 0
  66 0004 7047     		bx	lr
  67              	.L4:
  68 0006 C046     		.align	2
  69              	.L3:
  70 0008 00000000 		.word	.LANCHOR0
  71              		.cfi_endproc
  72              	.LFE34:
  73              		.size	getISR, .-getISR
  74              		.section	.text.putISR,"ax",%progbits
  75              		.align	1
  76              		.global	putISR
  77              		.code	16
  78              		.thumb_func
  79              		.type	putISR, %function
  80              	putISR:
  81              	.LFB35:
  68:.\w5100.c     **** 
  69:.\w5100.c     **** void putISR(uint8 s, uint8 val)
  70:.\w5100.c     **** {
  82              		.loc 1 70 0
  83              		.cfi_startproc
  84              	.LVL4:
  71:.\w5100.c     ****    I_STATUS[s] = val;
  85              		.loc 1 71 0
  86 0000 014B     		ldr	r3, .L6
  72:.\w5100.c     **** }
  87              		.loc 1 72 0
  88              		@ sp needed for prologue
  71:.\w5100.c     ****    I_STATUS[s] = val;
  89              		.loc 1 71 0
  90 0002 1954     		strb	r1, [r3, r0]
  91              		.loc 1 72 0
  92 0004 7047     		bx	lr
  93              	.L7:
  94 0006 C046     		.align	2
  95              	.L6:
  96 0008 00000000 		.word	.LANCHOR0
ARM GAS  C:\Users\atsu\AppData\Local\Temp\cc7os1vl.s 			page 4


  97              		.cfi_endproc
  98              	.LFE35:
  99              		.size	putISR, .-putISR
 100              		.section	.text.getIINCHIP_RxMAX,"ax",%progbits
 101              		.align	1
 102              		.global	getIINCHIP_RxMAX
 103              		.code	16
 104              		.thumb_func
 105              		.type	getIINCHIP_RxMAX, %function
 106              	getIINCHIP_RxMAX:
 107              	.LFB36:
  73:.\w5100.c     **** 
  74:.\w5100.c     **** uint16 getIINCHIP_RxMAX(uint8 s)
  75:.\w5100.c     **** {
 108              		.loc 1 75 0
 109              		.cfi_startproc
 110              	.LVL5:
  76:.\w5100.c     ****    return RSIZE[s];
 111              		.loc 1 76 0
 112 0000 024B     		ldr	r3, .L9
 113 0002 4000     		lsl	r0, r0, #1
 114              	.LVL6:
 115 0004 1918     		add	r1, r3, r0
 116 0006 8888     		ldrh	r0, [r1, #4]
  77:.\w5100.c     **** }
 117              		.loc 1 77 0
 118              		@ sp needed for prologue
 119 0008 7047     		bx	lr
 120              	.L10:
 121 000a C046     		.align	2
 122              	.L9:
 123 000c 00000000 		.word	.LANCHOR0
 124              		.cfi_endproc
 125              	.LFE36:
 126              		.size	getIINCHIP_RxMAX, .-getIINCHIP_RxMAX
 127              		.section	.text.getIINCHIP_TxMAX,"ax",%progbits
 128              		.align	1
 129              		.global	getIINCHIP_TxMAX
 130              		.code	16
 131              		.thumb_func
 132              		.type	getIINCHIP_TxMAX, %function
 133              	getIINCHIP_TxMAX:
 134              	.LFB37:
  78:.\w5100.c     **** uint16 getIINCHIP_TxMAX(uint8 s)
  79:.\w5100.c     **** {
 135              		.loc 1 79 0
 136              		.cfi_startproc
 137              	.LVL7:
  80:.\w5100.c     ****    return SSIZE[s];
 138              		.loc 1 80 0
 139 0000 024B     		ldr	r3, .L12
 140 0002 4000     		lsl	r0, r0, #1
 141              	.LVL8:
 142 0004 1918     		add	r1, r3, r0
 143 0006 8889     		ldrh	r0, [r1, #12]
  81:.\w5100.c     **** }
 144              		.loc 1 81 0
ARM GAS  C:\Users\atsu\AppData\Local\Temp\cc7os1vl.s 			page 5


 145              		@ sp needed for prologue
 146 0008 7047     		bx	lr
 147              	.L13:
 148 000a C046     		.align	2
 149              	.L12:
 150 000c 00000000 		.word	.LANCHOR0
 151              		.cfi_endproc
 152              	.LFE37:
 153              		.size	getIINCHIP_TxMAX, .-getIINCHIP_TxMAX
 154              		.section	.text.getIINCHIP_RxMASK,"ax",%progbits
 155              		.align	1
 156              		.global	getIINCHIP_RxMASK
 157              		.code	16
 158              		.thumb_func
 159              		.type	getIINCHIP_RxMASK, %function
 160              	getIINCHIP_RxMASK:
 161              	.LFB38:
  82:.\w5100.c     **** uint16 getIINCHIP_RxMASK(uint8 s)
  83:.\w5100.c     **** {
 162              		.loc 1 83 0
 163              		.cfi_startproc
 164              	.LVL9:
  84:.\w5100.c     ****    return RMASK[s];
 165              		.loc 1 84 0
 166 0000 024B     		ldr	r3, .L15
 167 0002 4000     		lsl	r0, r0, #1
 168              	.LVL10:
 169 0004 1918     		add	r1, r3, r0
 170 0006 888A     		ldrh	r0, [r1, #20]
  85:.\w5100.c     **** }
 171              		.loc 1 85 0
 172              		@ sp needed for prologue
 173 0008 7047     		bx	lr
 174              	.L16:
 175 000a C046     		.align	2
 176              	.L15:
 177 000c 00000000 		.word	.LANCHOR0
 178              		.cfi_endproc
 179              	.LFE38:
 180              		.size	getIINCHIP_RxMASK, .-getIINCHIP_RxMASK
 181              		.section	.text.getIINCHIP_TxMASK,"ax",%progbits
 182              		.align	1
 183              		.global	getIINCHIP_TxMASK
 184              		.code	16
 185              		.thumb_func
 186              		.type	getIINCHIP_TxMASK, %function
 187              	getIINCHIP_TxMASK:
 188              	.LFB39:
  86:.\w5100.c     **** uint16 getIINCHIP_TxMASK(uint8 s)
  87:.\w5100.c     **** {
 189              		.loc 1 87 0
 190              		.cfi_startproc
 191              	.LVL11:
  88:.\w5100.c     ****    return SMASK[s];
 192              		.loc 1 88 0
 193 0000 024B     		ldr	r3, .L18
 194 0002 4000     		lsl	r0, r0, #1
ARM GAS  C:\Users\atsu\AppData\Local\Temp\cc7os1vl.s 			page 6


 195              	.LVL12:
 196 0004 1918     		add	r1, r3, r0
 197 0006 888B     		ldrh	r0, [r1, #28]
  89:.\w5100.c     **** }
 198              		.loc 1 89 0
 199              		@ sp needed for prologue
 200 0008 7047     		bx	lr
 201              	.L19:
 202 000a C046     		.align	2
 203              	.L18:
 204 000c 00000000 		.word	.LANCHOR0
 205              		.cfi_endproc
 206              	.LFE39:
 207              		.size	getIINCHIP_TxMASK, .-getIINCHIP_TxMASK
 208              		.section	.text.getIINCHIP_RxBASE,"ax",%progbits
 209              		.align	1
 210              		.global	getIINCHIP_RxBASE
 211              		.code	16
 212              		.thumb_func
 213              		.type	getIINCHIP_RxBASE, %function
 214              	getIINCHIP_RxBASE:
 215              	.LFB40:
  90:.\w5100.c     **** uint16 getIINCHIP_RxBASE(uint8 s)
  91:.\w5100.c     **** {
 216              		.loc 1 91 0
 217              		.cfi_startproc
 218              	.LVL13:
  92:.\w5100.c     ****    return RBUFBASEADDRESS[s];
 219              		.loc 1 92 0
 220 0000 024B     		ldr	r3, .L21
 221 0002 4000     		lsl	r0, r0, #1
 222              	.LVL14:
 223 0004 1918     		add	r1, r3, r0
 224 0006 888C     		ldrh	r0, [r1, #36]
  93:.\w5100.c     **** }
 225              		.loc 1 93 0
 226              		@ sp needed for prologue
 227 0008 7047     		bx	lr
 228              	.L22:
 229 000a C046     		.align	2
 230              	.L21:
 231 000c 00000000 		.word	.LANCHOR0
 232              		.cfi_endproc
 233              	.LFE40:
 234              		.size	getIINCHIP_RxBASE, .-getIINCHIP_RxBASE
 235              		.section	.text.getIINCHIP_TxBASE,"ax",%progbits
 236              		.align	1
 237              		.global	getIINCHIP_TxBASE
 238              		.code	16
 239              		.thumb_func
 240              		.type	getIINCHIP_TxBASE, %function
 241              	getIINCHIP_TxBASE:
 242              	.LFB41:
  94:.\w5100.c     **** uint16 getIINCHIP_TxBASE(uint8 s)
  95:.\w5100.c     **** {
 243              		.loc 1 95 0
 244              		.cfi_startproc
ARM GAS  C:\Users\atsu\AppData\Local\Temp\cc7os1vl.s 			page 7


 245              	.LVL15:
  96:.\w5100.c     ****    return SBUFBASEADDRESS[s];
 246              		.loc 1 96 0
 247 0000 024B     		ldr	r3, .L24
 248 0002 4000     		lsl	r0, r0, #1
 249              	.LVL16:
 250 0004 1918     		add	r1, r3, r0
 251 0006 888D     		ldrh	r0, [r1, #44]
  97:.\w5100.c     **** }
 252              		.loc 1 97 0
 253              		@ sp needed for prologue
 254 0008 7047     		bx	lr
 255              	.L25:
 256 000a C046     		.align	2
 257              	.L24:
 258 000c 00000000 		.word	.LANCHOR0
 259              		.cfi_endproc
 260              	.LFE41:
 261              		.size	getIINCHIP_TxBASE, .-getIINCHIP_TxBASE
 262              		.section	.text.IINCHIP_WRITE,"ax",%progbits
 263              		.align	1
 264              		.global	IINCHIP_WRITE
 265              		.code	16
 266              		.thumb_func
 267              		.type	IINCHIP_WRITE, %function
 268              	IINCHIP_WRITE:
 269              	.LFB42:
  98:.\w5100.c     **** 
  99:.\w5100.c     ****  /**
 100:.\w5100.c     **** @brief	This function writes the data into W5100 registers.
 101:.\w5100.c     **** */
 102:.\w5100.c     **** uint8 IINCHIP_WRITE(uint16 addr,uint8 data)
 103:.\w5100.c     **** {
 270              		.loc 1 103 0
 271              		.cfi_startproc
 272              	.LVL17:
 273 0000 38B5     		push	{r3, r4, r5, lr}
 274              	.LCFI1:
 275              		.cfi_def_cfa_offset 16
 276              		.cfi_offset 3, -16
 277              		.cfi_offset 4, -12
 278              		.cfi_offset 5, -8
 279              		.cfi_offset 14, -4
 280              		.loc 1 103 0
 281 0002 0D1C     		mov	r5, r1
 282 0004 041C     		mov	r4, r0
 104:.\w5100.c     **** 	spi_cs_low();                             // CS=0, SPI start
 283              		.loc 1 104 0
 284 0006 FFF7FEFF 		bl	spi_cs_low
 285              	.LVL18:
 105:.\w5100.c     **** 
 106:.\w5100.c     **** 	SPI_transfer(0xF0);
 286              		.loc 1 106 0
 287 000a 1020     		mov	r0, #16
 288 000c 4042     		neg	r0, r0
 289 000e FFF7FEFF 		bl	SPI_transfer
 290              	.LVL19:
ARM GAS  C:\Users\atsu\AppData\Local\Temp\cc7os1vl.s 			page 8


 107:.\w5100.c     **** 	SPI_transfer(addr >> 8);
 291              		.loc 1 107 0
 292 0012 210A     		lsr	r1, r4, #8
 293 0014 48B2     		sxtb	r0, r1
 294 0016 FFF7FEFF 		bl	SPI_transfer
 295              	.LVL20:
 108:.\w5100.c     **** 	SPI_transfer(addr & 0xFF);
 296              		.loc 1 108 0
 297 001a 60B2     		sxtb	r0, r4
 298 001c FFF7FEFF 		bl	SPI_transfer
 299              	.LVL21:
 109:.\w5100.c     **** 	SPI_transfer(data);
 300              		.loc 1 109 0
 301 0020 68B2     		sxtb	r0, r5
 302 0022 FFF7FEFF 		bl	SPI_transfer
 303              	.LVL22:
 110:.\w5100.c     **** 
 111:.\w5100.c     **** 	spi_cs_high();    
 112:.\w5100.c     **** 	return 1;
 113:.\w5100.c     **** }
 304              		.loc 1 113 0
 305              		@ sp needed for prologue
 111:.\w5100.c     **** 	spi_cs_high();    
 306              		.loc 1 111 0
 307 0026 FFF7FEFF 		bl	spi_cs_high
 308              	.LVL23:
 309              		.loc 1 113 0
 310 002a 0120     		mov	r0, #1
 311 002c 38BD     		pop	{r3, r4, r5, pc}
 312              		.cfi_endproc
 313              	.LFE42:
 314              		.size	IINCHIP_WRITE, .-IINCHIP_WRITE
 315              		.section	.text.IINCHIP_READ,"ax",%progbits
 316              		.align	1
 317              		.global	IINCHIP_READ
 318              		.code	16
 319              		.thumb_func
 320              		.type	IINCHIP_READ, %function
 321              	IINCHIP_READ:
 322              	.LFB43:
 114:.\w5100.c     **** 
 115:.\w5100.c     **** 
 116:.\w5100.c     **** /**
 117:.\w5100.c     **** @brief	This function reads the value from W5100 registers.
 118:.\w5100.c     **** */
 119:.\w5100.c     **** uint8 IINCHIP_READ(uint16 addr)
 120:.\w5100.c     **** {
 323              		.loc 1 120 0
 324              		.cfi_startproc
 325              	.LVL24:
 326 0000 10B5     		push	{r4, lr}
 327              	.LCFI2:
 328              		.cfi_def_cfa_offset 8
 329              		.cfi_offset 4, -8
 330              		.cfi_offset 14, -4
 331              		.loc 1 120 0
 332 0002 041C     		mov	r4, r0
ARM GAS  C:\Users\atsu\AppData\Local\Temp\cc7os1vl.s 			page 9


 121:.\w5100.c     **** 	uint8 data;
 122:.\w5100.c     **** 	spi_cs_low();				// CS=0, SPI start
 333              		.loc 1 122 0
 334 0004 FFF7FEFF 		bl	spi_cs_low
 335              	.LVL25:
 123:.\w5100.c     **** 	SPI_transfer(0x0F);
 336              		.loc 1 123 0
 337 0008 0F20     		mov	r0, #15
 338 000a FFF7FEFF 		bl	SPI_transfer
 339              	.LVL26:
 124:.\w5100.c     **** 	SPI_transfer(addr >> 8);
 340              		.loc 1 124 0
 341 000e 200A     		lsr	r0, r4, #8
 342 0010 40B2     		sxtb	r0, r0
 343 0012 FFF7FEFF 		bl	SPI_transfer
 344              	.LVL27:
 125:.\w5100.c     **** 	SPI_transfer(addr & 0xFF);
 345              		.loc 1 125 0
 346 0016 60B2     		sxtb	r0, r4
 347 0018 FFF7FEFF 		bl	SPI_transfer
 348              	.LVL28:
 349              	.LBB26:
 350              	.LBB27:
  62:.\w5100.c     **** 	return ((int8)spi_master_send(send_data));
 351              		.loc 1 62 0
 352 001c 0020     		mov	r0, #0
 353 001e FFF7FEFF 		bl	spi_master_send
 354              	.LVL29:
 355 0022 041C     		mov	r4, r0
 356              	.LVL30:
 357              	.LBE27:
 358              	.LBE26:
 126:.\w5100.c     **** 	data = SPI_transfer(0);
 127:.\w5100.c     **** 	spi_cs_high();				// SPI end
 128:.\w5100.c     **** 	return data;
 129:.\w5100.c     **** }
 359              		.loc 1 129 0
 360              		@ sp needed for prologue
 127:.\w5100.c     **** 	spi_cs_high();				// SPI end
 361              		.loc 1 127 0
 362 0024 FFF7FEFF 		bl	spi_cs_high
 363              	.LVL31:
 364              		.loc 1 129 0
 365 0028 201C     		mov	r0, r4
 366              	.LVL32:
 367 002a 10BD     		pop	{r4, pc}
 368              		.cfi_endproc
 369              	.LFE43:
 370              		.size	IINCHIP_READ, .-IINCHIP_READ
 371              		.section	.text.wiz_write_buf,"ax",%progbits
 372              		.align	1
 373              		.global	wiz_write_buf
 374              		.code	16
 375              		.thumb_func
 376              		.type	wiz_write_buf, %function
 377              	wiz_write_buf:
 378              	.LFB44:
ARM GAS  C:\Users\atsu\AppData\Local\Temp\cc7os1vl.s 			page 10


 130:.\w5100.c     **** 
 131:.\w5100.c     **** 
 132:.\w5100.c     **** uint16 wiz_write_buf(uint16 addr,uint8* buf,uint16 len)
 133:.\w5100.c     **** {
 379              		.loc 1 133 0
 380              		.cfi_startproc
 381              	.LVL33:
 382 0000 F8B5     		push	{r3, r4, r5, r6, r7, lr}
 383              	.LCFI3:
 384              		.cfi_def_cfa_offset 24
 385              		.cfi_offset 3, -24
 386              		.cfi_offset 4, -20
 387              		.cfi_offset 5, -16
 388              		.cfi_offset 6, -12
 389              		.cfi_offset 7, -8
 390              		.cfi_offset 14, -4
 132:.\w5100.c     **** uint16 wiz_write_buf(uint16 addr,uint8* buf,uint16 len)
 391              		.loc 1 132 0
 392 0002 1718     		add	r7, r2, r0
 393              		.loc 1 133 0
 394 0004 041C     		mov	r4, r0
 395 0006 161C     		mov	r6, r2
 396 0008 0D1C     		mov	r5, r1
 132:.\w5100.c     **** uint16 wiz_write_buf(uint16 addr,uint8* buf,uint16 len)
 397              		.loc 1 132 0
 398 000a BFB2     		uxth	r7, r7
 399              	.LVL34:
 400              	.L29:
 134:.\w5100.c     **** 	uint16 idx = 0;
 135:.\w5100.c     **** 	for(idx = 0; idx < len; idx++)
 401              		.loc 1 135 0 discriminator 1
 402 000c BC42     		cmp	r4, r7
 403 000e 16D0     		beq	.L32
 404              	.L30:
 136:.\w5100.c     **** 	{
 137:.\w5100.c     **** 		spi_cs_low();                             // CS=0, SPI start 
 405              		.loc 1 137 0 discriminator 2
 406 0010 FFF7FEFF 		bl	spi_cs_low
 407              	.LVL35:
 138:.\w5100.c     **** 
 139:.\w5100.c     **** 		SPI_transfer(0xF0);
 408              		.loc 1 139 0 discriminator 2
 409 0014 1020     		mov	r0, #16
 410 0016 4042     		neg	r0, r0
 411 0018 FFF7FEFF 		bl	SPI_transfer
 412              	.LVL36:
 140:.\w5100.c     **** 		SPI_transfer(addr >> 8);
 413              		.loc 1 140 0 discriminator 2
 414 001c 210A     		lsr	r1, r4, #8
 415 001e 48B2     		sxtb	r0, r1
 416 0020 FFF7FEFF 		bl	SPI_transfer
 417              	.LVL37:
 141:.\w5100.c     **** 		SPI_transfer(addr & 0xFF);
 418              		.loc 1 141 0 discriminator 2
 419 0024 60B2     		sxtb	r0, r4
 420 0026 FFF7FEFF 		bl	SPI_transfer
 421              	.LVL38:
ARM GAS  C:\Users\atsu\AppData\Local\Temp\cc7os1vl.s 			page 11


 142:.\w5100.c     **** 		addr++;
 143:.\w5100.c     **** 		SPI_transfer(buf[idx]);
 422              		.loc 1 143 0 discriminator 2
 423 002a 0022     		mov	r2, #0
 424 002c A856     		ldrsb	r0, [r5, r2]
 142:.\w5100.c     **** 		addr++;
 425              		.loc 1 142 0 discriminator 2
 426 002e 0134     		add	r4, r4, #1
 427              	.LVL39:
 428              		.loc 1 143 0 discriminator 2
 429 0030 FFF7FEFF 		bl	SPI_transfer
 430              	.LVL40:
 142:.\w5100.c     **** 		addr++;
 431              		.loc 1 142 0 discriminator 2
 432 0034 A4B2     		uxth	r4, r4
 433              	.LVL41:
 144:.\w5100.c     **** 
 145:.\w5100.c     **** 		spi_cs_high();                             // CS=0, SPI end 
 434              		.loc 1 145 0 discriminator 2
 435 0036 FFF7FEFF 		bl	spi_cs_high
 436              	.LVL42:
 437 003a 0135     		add	r5, r5, #1
 438 003c E6E7     		b	.L29
 439              	.L32:
 146:.\w5100.c     **** 	}
 147:.\w5100.c     **** 	return len;
 148:.\w5100.c     **** }
 440              		.loc 1 148 0
 441 003e 301C     		mov	r0, r6
 442              		@ sp needed for prologue
 443              	.LVL43:
 444 0040 F8BD     		pop	{r3, r4, r5, r6, r7, pc}
 445              		.cfi_endproc
 446              	.LFE44:
 447              		.size	wiz_write_buf, .-wiz_write_buf
 448              		.section	.text.wiz_read_buf,"ax",%progbits
 449              		.align	1
 450              		.global	wiz_read_buf
 451              		.code	16
 452              		.thumb_func
 453              		.type	wiz_read_buf, %function
 454              	wiz_read_buf:
 455              	.LFB45:
 149:.\w5100.c     **** 
 150:.\w5100.c     **** 
 151:.\w5100.c     **** uint16 wiz_read_buf(uint16 addr, uint8* buf,uint16 len)
 152:.\w5100.c     **** {
 456              		.loc 1 152 0
 457              		.cfi_startproc
 458              	.LVL44:
 459 0000 F8B5     		push	{r3, r4, r5, r6, r7, lr}
 460              	.LCFI4:
 461              		.cfi_def_cfa_offset 24
 462              		.cfi_offset 3, -24
 463              		.cfi_offset 4, -20
 464              		.cfi_offset 5, -16
 465              		.cfi_offset 6, -12
ARM GAS  C:\Users\atsu\AppData\Local\Temp\cc7os1vl.s 			page 12


 466              		.cfi_offset 7, -8
 467              		.cfi_offset 14, -4
 151:.\w5100.c     **** uint16 wiz_read_buf(uint16 addr, uint8* buf,uint16 len)
 468              		.loc 1 151 0
 469 0002 1718     		add	r7, r2, r0
 470              		.loc 1 152 0
 471 0004 041C     		mov	r4, r0
 472 0006 161C     		mov	r6, r2
 473 0008 0D1C     		mov	r5, r1
 151:.\w5100.c     **** uint16 wiz_read_buf(uint16 addr, uint8* buf,uint16 len)
 474              		.loc 1 151 0
 475 000a BFB2     		uxth	r7, r7
 476              	.LVL45:
 477              	.L34:
 153:.\w5100.c     **** 	uint16 idx = 0;
 154:.\w5100.c     **** 	for (idx=0; idx<len; idx++)
 478              		.loc 1 154 0 discriminator 1
 479 000c BC42     		cmp	r4, r7
 480 000e 15D0     		beq	.L36
 481              	.L35:
 155:.\w5100.c     **** 	{
 156:.\w5100.c     **** 		spi_cs_low();	// CS=0, SPI start 
 482              		.loc 1 156 0 discriminator 2
 483 0010 FFF7FEFF 		bl	spi_cs_low
 484              	.LVL46:
 157:.\w5100.c     **** 		SPI_transfer(0x0F);
 485              		.loc 1 157 0 discriminator 2
 486 0014 0F20     		mov	r0, #15
 487 0016 FFF7FEFF 		bl	SPI_transfer
 488              	.LVL47:
 158:.\w5100.c     **** 		SPI_transfer(addr >> 8);
 489              		.loc 1 158 0 discriminator 2
 490 001a 200A     		lsr	r0, r4, #8
 491 001c 40B2     		sxtb	r0, r0
 492 001e FFF7FEFF 		bl	SPI_transfer
 493              	.LVL48:
 159:.\w5100.c     **** 		SPI_transfer(addr & 0xFF);
 494              		.loc 1 159 0 discriminator 2
 495 0022 60B2     		sxtb	r0, r4
 496 0024 FFF7FEFF 		bl	SPI_transfer
 497              	.LVL49:
 498              	.LBB28:
 499              	.LBB29:
  62:.\w5100.c     **** 	return ((int8)spi_master_send(send_data));
 500              		.loc 1 62 0 discriminator 2
 501 0028 0020     		mov	r0, #0
 502 002a FFF7FEFF 		bl	spi_master_send
 503              	.LVL50:
 504              	.LBE29:
 505              	.LBE28:
 160:.\w5100.c     **** 		addr++;
 506              		.loc 1 160 0 discriminator 2
 507 002e 0134     		add	r4, r4, #1
 508              	.LVL51:
 161:.\w5100.c     **** 		buf[idx] = SPI_transfer(0);
 509              		.loc 1 161 0 discriminator 2
 510 0030 2870     		strb	r0, [r5]
ARM GAS  C:\Users\atsu\AppData\Local\Temp\cc7os1vl.s 			page 13


 160:.\w5100.c     **** 		addr++;
 511              		.loc 1 160 0 discriminator 2
 512 0032 A4B2     		uxth	r4, r4
 513              	.LVL52:
 162:.\w5100.c     **** 		spi_cs_high();                             // CS=0, SPI end 	   
 514              		.loc 1 162 0 discriminator 2
 515 0034 FFF7FEFF 		bl	spi_cs_high
 516              	.LVL53:
 517 0038 0135     		add	r5, r5, #1
 518 003a E7E7     		b	.L34
 519              	.LVL54:
 520              	.L36:
 163:.\w5100.c     **** 	   }
 164:.\w5100.c     **** 	return len;
 165:.\w5100.c     **** }
 521              		.loc 1 165 0
 522 003c 301C     		mov	r0, r6
 523              		@ sp needed for prologue
 524              	.LVL55:
 525 003e F8BD     		pop	{r3, r4, r5, r6, r7, pc}
 526              		.cfi_endproc
 527              	.LFE45:
 528              		.size	wiz_read_buf, .-wiz_read_buf
 529              		.section	.text.sysinit,"ax",%progbits
 530              		.align	1
 531              		.global	sysinit
 532              		.code	16
 533              		.thumb_func
 534              		.type	sysinit, %function
 535              	sysinit:
 536              	.LFB47:
 166:.\w5100.c     **** 
 167:.\w5100.c     **** 
 168:.\w5100.c     **** /**
 169:.\w5100.c     **** @brief	Socket interrupt routine
 170:.\w5100.c     **** */ 
 171:.\w5100.c     **** #ifdef __DEF_IINCHIP_INT__
 172:.\w5100.c     **** ISR(INT4_vect)
 173:.\w5100.c     **** {
 174:.\w5100.c     **** 	uint8 int_val;
 175:.\w5100.c     **** 	IINCHIP_ISR_DISABLE();
 176:.\w5100.c     **** 	int_val = IINCHIP_READ(IR);
 177:.\w5100.c     **** 	
 178:.\w5100.c     **** 	/* +200801[bj] process all of interupt */
 179:.\w5100.c     ****    do {
 180:.\w5100.c     ****    /*---*/
 181:.\w5100.c     ****    
 182:.\w5100.c     ****    	if (int_val & IR_CONFLICT)
 183:.\w5100.c     ****    	{
 184:.\w5100.c     ****    		printf("IP conflict : %.2x\r\n", int_val);
 185:.\w5100.c     ****    	}
 186:.\w5100.c     ****    	if (int_val & IR_UNREACH)
 187:.\w5100.c     ****    	{
 188:.\w5100.c     ****    		printf("INT Port Unreachable : %.2x\r\n", int_val);
 189:.\w5100.c     ****    		printf("UIPR0 : %d.%d.%d.%d\r\n", IINCHIP_READ(UIPR0), IINCHIP_READ(UIPR0+1), IINCHIP_READ(UIP
 190:.\w5100.c     ****    		printf("UPORT0 : %.2x %.2x\r\n", IINCHIP_READ(UPORT0), IINCHIP_READ(UPORT0+1));
 191:.\w5100.c     ****    	}
ARM GAS  C:\Users\atsu\AppData\Local\Temp\cc7os1vl.s 			page 14


 192:.\w5100.c     ****    
 193:.\w5100.c     ****    	/* +200801[bj] interrupt clear */
 194:.\w5100.c     ****    	IINCHIP_WRITE(IR, 0xf0); 
 195:.\w5100.c     ****       /*---*/
 196:.\w5100.c     ****    
 197:.\w5100.c     ****    	if (int_val & IR_SOCK(0))
 198:.\w5100.c     ****    	{
 199:.\w5100.c     ****    	/* +-200801[bj] save interrupt value*/
 200:.\w5100.c     ****    		I_STATUS[0] |= IINCHIP_READ(Sn_IR(0)); // can be come to over two times.
 201:.\w5100.c     ****    		IINCHIP_WRITE(Sn_IR(0), I_STATUS[0]);
 202:.\w5100.c     ****       /*---*/
 203:.\w5100.c     ****    	}
 204:.\w5100.c     ****    	if (int_val & IR_SOCK(1))
 205:.\w5100.c     ****    	{
 206:.\w5100.c     ****    	/* +-200801[bj] save interrupt value*/
 207:.\w5100.c     ****    		I_STATUS[1] |= IINCHIP_READ(Sn_IR(1));
 208:.\w5100.c     ****    		IINCHIP_WRITE(Sn_IR(1), I_STATUS[1]);
 209:.\w5100.c     ****       /*---*/
 210:.\w5100.c     ****    	}
 211:.\w5100.c     ****    	if (int_val & IR_SOCK(2))
 212:.\w5100.c     ****    	{
 213:.\w5100.c     ****    	/* +-200801[bj] save interrupt value*/
 214:.\w5100.c     ****    		I_STATUS[2] |= IINCHIP_READ(Sn_IR(2));
 215:.\w5100.c     ****    		IINCHIP_WRITE(Sn_IR(2), I_STATUS[2]);
 216:.\w5100.c     ****       /*---*/
 217:.\w5100.c     ****    	}
 218:.\w5100.c     ****    	if (int_val & IR_SOCK(3))
 219:.\w5100.c     ****    	{
 220:.\w5100.c     ****    	/* +-200801[bj] save interrupt value*/
 221:.\w5100.c     ****    		I_STATUS[3] |= IINCHIP_READ(Sn_IR(3));
 222:.\w5100.c     ****    		IINCHIP_WRITE(Sn_IR(3), I_STATUS[3]);
 223:.\w5100.c     ****       /*---*/
 224:.\w5100.c     ****    	}
 225:.\w5100.c     ****    
 226:.\w5100.c     ****    	/* +-200801[bj] re-read interrupt value*/
 227:.\w5100.c     ****    	int_val = IINCHIP_READ(IR);
 228:.\w5100.c     **** 
 229:.\w5100.c     **** 	/* +200801[bj] if exist, contiue to process */
 230:.\w5100.c     ****    } while (int_val != 0x00);
 231:.\w5100.c     ****    /*---*/
 232:.\w5100.c     **** 
 233:.\w5100.c     **** 	IINCHIP_ISR_ENABLE();
 234:.\w5100.c     **** }
 235:.\w5100.c     **** #endif
 236:.\w5100.c     **** 
 237:.\w5100.c     **** /**
 238:.\w5100.c     **** @brief	This function is for resetting of the iinchip. Initializes the iinchip to work in whether DI
 239:.\w5100.c     **** */ 
 240:.\w5100.c     **** void iinchip_init(void)
 241:.\w5100.c     **** {	
 242:.\w5100.c     **** 	wait_delay_ms(300);
 243:.\w5100.c     **** 	spi_master_init();
 244:.\w5100.c     **** 	setMR( MR_RST );
 245:.\w5100.c     **** #if (__DEF_IINCHIP_BUS__ == __DEF_IINCHIP_INDIRECT_MODE__)
 246:.\w5100.c     **** 	setMR( MR_IND | MR_AI );
 247:.\w5100.c     **** #ifdef __DEF_IINCHIP_DBG__	
 248:.\w5100.c     **** 	printf("MR value is %d \r\n",IINCHIP_READ(MR));
ARM GAS  C:\Users\atsu\AppData\Local\Temp\cc7os1vl.s 			page 15


 249:.\w5100.c     **** #endif	
 250:.\w5100.c     **** #endif
 251:.\w5100.c     **** }
 252:.\w5100.c     **** 
 253:.\w5100.c     **** 
 254:.\w5100.c     **** /**
 255:.\w5100.c     **** @brief	This function set the transmit & receive buffer size as per the channels is used
 256:.\w5100.c     **** 
 257:.\w5100.c     **** Note for TMSR and RMSR bits are as follows\n
 258:.\w5100.c     **** bit 1-0 : memory size of channel #0 \n
 259:.\w5100.c     **** bit 3-2 : memory size of channel #1 \n
 260:.\w5100.c     **** bit 5-4 : memory size of channel #2 \n
 261:.\w5100.c     **** bit 7-6 : memory size of channel #3 \n\n
 262:.\w5100.c     **** Maximum memory size for Tx, Rx in the W5100 is 8K uint8s,\n
 263:.\w5100.c     **** In the range of 8Kuint8s, the memory size could be allocated dynamically by each channel.\n
 264:.\w5100.c     **** Be attentive to sum of memory size shouldn't exceed 8Kuint8s\n
 265:.\w5100.c     **** and to data transmission and receiption from non-allocated channel may cause some problems.\n
 266:.\w5100.c     **** If the 8Kuint8s memory is already  assigned to centain channel, \n
 267:.\w5100.c     **** other 3 channels couldn't be used, for there's no available memory.\n
 268:.\w5100.c     **** If two 4Kuint8s memory are assigned to two each channels, \n
 269:.\w5100.c     **** other 2 channels couldn't be used, for there's no available memory.\n
 270:.\w5100.c     **** */ 
 271:.\w5100.c     **** void sysinit(
 272:.\w5100.c     **** 	uint8 tx_size, 	/**< tx_size Tx memory size (00 - 1Kuint8, 01- 2KBtye, 10 - 4Kuint8, 11 - 8Kuint8)
 273:.\w5100.c     **** 	uint8 rx_size		/**< rx_size Rx memory size (00 - 1Kuint8, 01- 2KBtye, 10 - 4Kuint8, 11 - 8Kuint8) 
 274:.\w5100.c     **** 	)
 275:.\w5100.c     **** {
 537              		.loc 1 275 0
 538              		.cfi_startproc
 539              	.LVL56:
 540 0000 F0B5     		push	{r4, r5, r6, r7, lr}
 541              	.LCFI5:
 542              		.cfi_def_cfa_offset 20
 543              		.cfi_offset 4, -20
 544              		.cfi_offset 5, -16
 545              		.cfi_offset 6, -12
 546              		.cfi_offset 7, -8
 547              		.cfi_offset 14, -4
 548 0002 85B0     		sub	sp, sp, #20
 549              	.LCFI6:
 550              		.cfi_def_cfa_offset 40
 551              		.loc 1 275 0
 552 0004 0290     		str	r0, [sp, #8]
 553 0006 0391     		str	r1, [sp, #12]
 276:.\w5100.c     **** 	int16 i;
 277:.\w5100.c     **** 	int16 ssum,rsum;
 278:.\w5100.c     **** 
 279:.\w5100.c     **** #ifdef __DEF_IINCHIP_DBG__
 280:.\w5100.c     **** 	printf("sysinit()\r\n"); 
 281:.\w5100.c     **** #endif
 282:.\w5100.c     **** 
 283:.\w5100.c     **** 	ssum = 0;
 284:.\w5100.c     **** 	rsum = 0;
 285:.\w5100.c     **** 	
 286:.\w5100.c     **** 	IINCHIP_WRITE(TMSR,tx_size); /* Set Tx memory size for each channel */
 554              		.loc 1 286 0
 555 0008 1B20     		mov	r0, #27
ARM GAS  C:\Users\atsu\AppData\Local\Temp\cc7os1vl.s 			page 16


 556              	.LVL57:
 557 000a 0299     		ldr	r1, [sp, #8]
 558              	.LVL58:
 559 000c FFF7FEFF 		bl	IINCHIP_WRITE
 560              	.LVL59:
 287:.\w5100.c     **** 	IINCHIP_WRITE(RMSR,rx_size);	 /* Set Rx memory size for each channel */
 561              		.loc 1 287 0
 562 0010 0399     		ldr	r1, [sp, #12]
 563 0012 1A20     		mov	r0, #26
 564 0014 FFF7FEFF 		bl	IINCHIP_WRITE
 565              	.LVL60:
 288:.\w5100.c     **** 
 289:.\w5100.c     **** 	SBUFBASEADDRESS[0] = (uint16)(__DEF_IINCHIP_MAP_TXBUF__);		/* Set base address of Tx memory for ch
 566              		.loc 1 289 0
 567 0018 444B     		ldr	r3, .L56
 568 001a 8022     		mov	r2, #128
 290:.\w5100.c     **** 	RBUFBASEADDRESS[0] = (uint16)(__DEF_IINCHIP_MAP_RXBUF__);		/* Set base address of Rx memory for ch
 569              		.loc 1 290 0
 570 001c C021     		mov	r1, #192
 571 001e CC01     		lsl	r4, r1, #7
 289:.\w5100.c     **** 	SBUFBASEADDRESS[0] = (uint16)(__DEF_IINCHIP_MAP_TXBUF__);		/* Set base address of Tx memory for ch
 572              		.loc 1 289 0
 573 0020 D001     		lsl	r0, r2, #7
 574              		.loc 1 290 0
 575 0022 9C84     		strh	r4, [r3, #36]
 576              	.LVL61:
 289:.\w5100.c     **** 	SBUFBASEADDRESS[0] = (uint16)(__DEF_IINCHIP_MAP_TXBUF__);		/* Set base address of Tx memory for ch
 577              		.loc 1 289 0
 578 0024 9885     		strh	r0, [r3, #44]
 579              		.loc 1 290 0
 580 0026 0023     		mov	r3, #0
 284:.\w5100.c     **** 	rsum = 0;
 581              		.loc 1 284 0
 582 0028 0093     		str	r3, [sp]
 283:.\w5100.c     **** 	ssum = 0;
 583              		.loc 1 283 0
 584 002a 1D1C     		mov	r5, r3
 291:.\w5100.c     **** 
 292:.\w5100.c     **** #ifdef __DEF_IINCHIP_DBG__
 293:.\w5100.c     **** 	printf("Channel : SEND MEM SIZE : RECV MEM SIZE\r\n");
 294:.\w5100.c     **** #endif
 295:.\w5100.c     **** 
 296:.\w5100.c     ****    for (i = 0 ; i < MAX_SOCK_NUM; i++)       // Set the size, masking and base address of Tx & Rx m
 585              		.loc 1 296 0
 586 002c 1C1C     		mov	r4, r3
 587              	.LVL62:
 588              	.L49:
 297:.\w5100.c     **** 	{
 298:.\w5100.c     **** 		SSIZE[i] = (int16)(0);
 589              		.loc 1 298 0
 590 002e 3F4E     		ldr	r6, .L56
 591 0030 0020     		mov	r0, #0
 592 0032 321C     		mov	r2, r6
 593 0034 0C32     		add	r2, r2, #12
 299:.\w5100.c     **** 		RSIZE[i] = (int16)(0);
 594              		.loc 1 299 0
 595 0036 371D     		add	r7, r6, #4
ARM GAS  C:\Users\atsu\AppData\Local\Temp\cc7os1vl.s 			page 17


 298:.\w5100.c     **** 		SSIZE[i] = (int16)(0);
 596              		.loc 1 298 0
 597 0038 9852     		strh	r0, [r3, r2]
 598              		.loc 1 299 0
 599 003a D853     		strh	r0, [r3, r7]
 600 003c 3C48     		ldr	r0, .L56+4
 300:.\w5100.c     **** 		if (ssum < 8192)
 601              		.loc 1 300 0
 602 003e 29B2     		sxth	r1, r5
 603 0040 8142     		cmp	r1, r0
 604 0042 1BDC     		bgt	.L38
 301:.\w5100.c     **** 		{
 302:.\w5100.c     ****          switch((tx_size >> i*2) & 0x03)  // Set Tx memory size
 605              		.loc 1 302 0
 606 0044 029F     		ldr	r7, [sp, #8]
 607 0046 0321     		mov	r1, #3
 608 0048 1F41     		asr	r7, r7, r3
 609 004a 3940     		and	r1, r7
 610 004c 1C36     		add	r6, r6, #28
 303:.\w5100.c     **** 			{
 304:.\w5100.c     **** 			case 0:
 305:.\w5100.c     **** 				SSIZE[i] = (int16)(1024);
 306:.\w5100.c     **** 				SMASK[i] = (uint16)(0x03FF);
 307:.\w5100.c     **** 				break;
 308:.\w5100.c     **** 			case 1:
 309:.\w5100.c     **** 				SSIZE[i] = (int16)(2048);
 310:.\w5100.c     **** 				SMASK[i] = (uint16)(0x07FF);
 311:.\w5100.c     **** 				break;
 312:.\w5100.c     **** 			case 2:
 313:.\w5100.c     **** 				SSIZE[i] = (int16)(4096);
 611              		.loc 1 313 0
 612 004e 8027     		mov	r7, #128
 302:.\w5100.c     ****          switch((tx_size >> i*2) & 0x03)  // Set Tx memory size
 613              		.loc 1 302 0
 614 0050 0229     		cmp	r1, #2
 615 0052 0BD0     		beq	.L41
 616 0054 0329     		cmp	r1, #3
 617 0056 0ED0     		beq	.L42
 618 0058 0129     		cmp	r1, #1
 619 005a 03D0     		beq	.L40
 305:.\w5100.c     **** 				SSIZE[i] = (int16)(1024);
 620              		.loc 1 305 0
 621 005c F900     		lsl	r1, r7, #3
 622 005e 9952     		strh	r1, [r3, r2]
 306:.\w5100.c     **** 				SMASK[i] = (uint16)(0x03FF);
 623              		.loc 1 306 0
 624 0060 344A     		ldr	r2, .L56+8
 625 0062 06E0     		b	.L54
 626              	.L40:
 309:.\w5100.c     **** 				SSIZE[i] = (int16)(2048);
 627              		.loc 1 309 0
 628 0064 3F01     		lsl	r7, r7, #4
 629 0066 9F52     		strh	r7, [r3, r2]
 310:.\w5100.c     **** 				SMASK[i] = (uint16)(0x07FF);
 630              		.loc 1 310 0
 631 0068 334A     		ldr	r2, .L56+12
 632 006a 02E0     		b	.L54
ARM GAS  C:\Users\atsu\AppData\Local\Temp\cc7os1vl.s 			page 18


 633              	.L41:
 634              		.loc 1 313 0
 635 006c 7F01     		lsl	r7, r7, #5
 636 006e 9F52     		strh	r7, [r3, r2]
 314:.\w5100.c     **** 				SMASK[i] = (uint16)(0x0FFF);
 637              		.loc 1 314 0
 638 0070 324A     		ldr	r2, .L56+16
 639              	.L54:
 640 0072 F252     		strh	r2, [r6, r3]
 315:.\w5100.c     **** 				break;
 641              		.loc 1 315 0
 642 0074 02E0     		b	.L38
 643              	.L42:
 316:.\w5100.c     **** 			case 3:
 317:.\w5100.c     **** 				SSIZE[i] = (int16)(8192);
 644              		.loc 1 317 0
 645 0076 B901     		lsl	r1, r7, #6
 646 0078 9952     		strh	r1, [r3, r2]
 318:.\w5100.c     **** 				SMASK[i] = (uint16)(0x1FFF);
 647              		.loc 1 318 0
 648 007a F052     		strh	r0, [r6, r3]
 649              	.L38:
 319:.\w5100.c     **** 				break;
 320:.\w5100.c     **** 			}
 321:.\w5100.c     **** 		}
 322:.\w5100.c     **** 		if (rsum < 8192)
 650              		.loc 1 322 0
 651 007c 6E46     		mov	r6, sp
 652 007e 0021     		mov	r1, #0
 653 0080 715E     		ldrsh	r1, [r6, r1]
 654 0082 8142     		cmp	r1, r0
 655 0084 26DC     		bgt	.L43
 323:.\w5100.c     **** 		{
 324:.\w5100.c     ****          switch((rx_size >> i*2) & 0x03)     // Set Rx memory size
 656              		.loc 1 324 0
 657 0086 0398     		ldr	r0, [sp, #12]
 658 0088 0327     		mov	r7, #3
 659 008a 1841     		asr	r0, r0, r3
 660 008c 3840     		and	r0, r7
 661 008e 274A     		ldr	r2, .L56
 662 0090 0228     		cmp	r0, #2
 663 0092 11D0     		beq	.L46
 664 0094 0328     		cmp	r0, #3
 665 0096 16D0     		beq	.L47
 666 0098 0128     		cmp	r0, #1
 667 009a 06D0     		beq	.L45
 325:.\w5100.c     **** 			{
 326:.\w5100.c     **** 			case 0:
 327:.\w5100.c     **** 				RSIZE[i] = (int16)(1024);
 668              		.loc 1 327 0
 669 009c 8026     		mov	r6, #128
 670 009e 111D     		add	r1, r2, #4
 671 00a0 F000     		lsl	r0, r6, #3
 672 00a2 5852     		strh	r0, [r3, r1]
 328:.\w5100.c     **** 				RMASK[i] = (uint16)(0x03FF);
 673              		.loc 1 328 0
 674 00a4 1432     		add	r2, r2, #20
ARM GAS  C:\Users\atsu\AppData\Local\Temp\cc7os1vl.s 			page 19


 675 00a6 234E     		ldr	r6, .L56+8
 676 00a8 13E0     		b	.L55
 677              	.L45:
 329:.\w5100.c     **** 				break;
 330:.\w5100.c     **** 			case 1:
 331:.\w5100.c     **** 				RSIZE[i] = (int16)(2048);
 678              		.loc 1 331 0
 679 00aa 8021     		mov	r1, #128
 680 00ac 171D     		add	r7, r2, #4
 681 00ae 0E01     		lsl	r6, r1, #4
 682 00b0 DE53     		strh	r6, [r3, r7]
 332:.\w5100.c     **** 				RMASK[i] = (uint16)(0x07FF);
 683              		.loc 1 332 0
 684 00b2 1432     		add	r2, r2, #20
 685 00b4 204E     		ldr	r6, .L56+12
 686 00b6 0CE0     		b	.L55
 687              	.L46:
 333:.\w5100.c     **** 				break;
 334:.\w5100.c     **** 			case 2:
 335:.\w5100.c     **** 				RSIZE[i] = (int16)(4096);
 688              		.loc 1 335 0
 689 00b8 8027     		mov	r7, #128
 690 00ba 101D     		add	r0, r2, #4
 691 00bc 7901     		lsl	r1, r7, #5
 692 00be 1952     		strh	r1, [r3, r0]
 336:.\w5100.c     **** 				RMASK[i] = (uint16)(0x0FFF);
 693              		.loc 1 336 0
 694 00c0 1432     		add	r2, r2, #20
 695 00c2 1E4E     		ldr	r6, .L56+16
 696 00c4 05E0     		b	.L55
 697              	.L47:
 337:.\w5100.c     **** 				break;
 338:.\w5100.c     **** 			case 3:
 339:.\w5100.c     **** 				RSIZE[i] = (int16)(8192);
 698              		.loc 1 339 0
 699 00c6 8027     		mov	r7, #128
 700 00c8 101D     		add	r0, r2, #4
 701 00ca B901     		lsl	r1, r7, #6
 340:.\w5100.c     **** 				RMASK[i] = (uint16)(0x1FFF);
 702              		.loc 1 340 0
 703 00cc 184E     		ldr	r6, .L56+4
 339:.\w5100.c     **** 				RSIZE[i] = (int16)(8192);
 704              		.loc 1 339 0
 705 00ce 1952     		strh	r1, [r3, r0]
 706              		.loc 1 340 0
 707 00d0 1432     		add	r2, r2, #20
 708              	.L55:
 709 00d2 9E52     		strh	r6, [r3, r2]
 710              	.L43:
 341:.\w5100.c     **** 				break;
 342:.\w5100.c     **** 			}
 343:.\w5100.c     **** 		}
 344:.\w5100.c     **** 		ssum += SSIZE[i];
 711              		.loc 1 344 0
 712 00d4 154A     		ldr	r2, .L56
 713 00d6 171C     		mov	r7, r2
 714 00d8 0C37     		add	r7, r7, #12
ARM GAS  C:\Users\atsu\AppData\Local\Temp\cc7os1vl.s 			page 20


 715 00da DE5B     		ldrh	r6, [r3, r7]
 345:.\w5100.c     **** 		rsum += RSIZE[i];
 716              		.loc 1 345 0
 717 00dc 101D     		add	r0, r2, #4
 344:.\w5100.c     **** 		ssum += SSIZE[i];
 718              		.loc 1 344 0
 719 00de 7519     		add	r5, r6, r5
 720              		.loc 1 345 0
 721 00e0 195A     		ldrh	r1, [r3, r0]
 722 00e2 009E     		ldr	r6, [sp]
 344:.\w5100.c     **** 		ssum += SSIZE[i];
 723              		.loc 1 344 0
 724 00e4 ADB2     		uxth	r5, r5
 725              	.LVL63:
 726              		.loc 1 345 0
 727 00e6 8919     		add	r1, r1, r6
 728 00e8 8EB2     		uxth	r6, r1
 729 00ea 0096     		str	r6, [sp]
 730              	.LVL64:
 346:.\w5100.c     **** 
 347:.\w5100.c     ****       if (i != 0)             // Sets base address of Tx and Rx memory for channel #1,#2,#3
 731              		.loc 1 347 0
 732 00ec 002C     		cmp	r4, #0
 733 00ee 15D0     		beq	.L48
 348:.\w5100.c     **** 		{
 349:.\w5100.c     **** 			SBUFBASEADDRESS[i] = SBUFBASEADDRESS[i-1] + SSIZE[i-1];
 734              		.loc 1 349 0
 735 00f0 161C     		mov	r6, r2
 736 00f2 2C36     		add	r6, r6, #44
 271:.\w5100.c     **** void sysinit(
 737              		.loc 1 271 0
 738 00f4 F118     		add	r1, r6, r3
 739 00f6 0239     		sub	r1, r1, #2
 740 00f8 FF18     		add	r7, r7, r3
 741 00fa 023F     		sub	r7, r7, #2
 742 00fc 0191     		str	r1, [sp, #4]
 743              		.loc 1 349 0
 744 00fe 3988     		ldrh	r1, [r7]
 745 0100 019F     		ldr	r7, [sp, #4]
 746 0102 8C46     		mov	ip, r1
 350:.\w5100.c     **** 			RBUFBASEADDRESS[i] = RBUFBASEADDRESS[i-1] + RSIZE[i-1];
 747              		.loc 1 350 0
 748 0104 2432     		add	r2, r2, #36
 349:.\w5100.c     **** 			SBUFBASEADDRESS[i] = SBUFBASEADDRESS[i-1] + SSIZE[i-1];
 749              		.loc 1 349 0
 750 0106 3988     		ldrh	r1, [r7]
 271:.\w5100.c     **** void sysinit(
 751              		.loc 1 271 0
 752 0108 C018     		add	r0, r0, r3
 753 010a D718     		add	r7, r2, r3
 349:.\w5100.c     **** 			SBUFBASEADDRESS[i] = SBUFBASEADDRESS[i-1] + SSIZE[i-1];
 754              		.loc 1 349 0
 755 010c 6144     		add	r1, r1, ip
 271:.\w5100.c     **** void sysinit(
 756              		.loc 1 271 0
 757 010e 0238     		sub	r0, r0, #2
 758 0110 023F     		sub	r7, r7, #2
ARM GAS  C:\Users\atsu\AppData\Local\Temp\cc7os1vl.s 			page 21


 349:.\w5100.c     **** 			SBUFBASEADDRESS[i] = SBUFBASEADDRESS[i-1] + SSIZE[i-1];
 759              		.loc 1 349 0
 760 0112 9953     		strh	r1, [r3, r6]
 761              		.loc 1 350 0
 762 0114 3988     		ldrh	r1, [r7]
 763 0116 0688     		ldrh	r6, [r0]
 764 0118 7018     		add	r0, r6, r1
 765 011a 9852     		strh	r0, [r3, r2]
 766              	.L48:
 296:.\w5100.c     ****    for (i = 0 ; i < MAX_SOCK_NUM; i++)       // Set the size, masking and base address of Tx & Rx m
 767              		.loc 1 296 0
 768 011c 0134     		add	r4, r4, #1
 769 011e 0233     		add	r3, r3, #2
 770 0120 A4B2     		uxth	r4, r4
 771              	.LVL65:
 772 0122 082B     		cmp	r3, #8
 773 0124 00D0     		beq	.LCB671
 774 0126 82E7     		b	.L49	@long jump
 775              	.LCB671:
 351:.\w5100.c     **** 		}
 352:.\w5100.c     **** #ifdef __DEF_IINCHIP_DBG__
 353:.\w5100.c     **** 		printf("%d : %.4x : %.4x : %.4x : %.4x\r\n", i, (uint16)SBUFBASEADDRESS[i], (uint16)RBUFBASEADDRE
 354:.\w5100.c     **** #endif
 355:.\w5100.c     **** 	}
 356:.\w5100.c     **** }
 776              		.loc 1 356 0
 777 0128 05B0     		add	sp, sp, #20
 778              	.LVL66:
 779              		@ sp needed for prologue
 780              	.LVL67:
 781              	.LVL68:
 782 012a F0BD     		pop	{r4, r5, r6, r7, pc}
 783              	.L57:
 784              		.align	2
 785              	.L56:
 786 012c 00000000 		.word	.LANCHOR0
 787 0130 FF1F0000 		.word	8191
 788 0134 FF030000 		.word	1023
 789 0138 FF070000 		.word	2047
 790 013c FF0F0000 		.word	4095
 791              		.cfi_endproc
 792              	.LFE47:
 793              		.size	sysinit, .-sysinit
 794              		.section	.text.setMR,"ax",%progbits
 795              		.align	1
 796              		.global	setMR
 797              		.code	16
 798              		.thumb_func
 799              		.type	setMR, %function
 800              	setMR:
 801              	.LFB48:
 357:.\w5100.c     **** 
 358:.\w5100.c     **** 
 359:.\w5100.c     **** void setMR(uint8 val)
 360:.\w5100.c     **** {
 802              		.loc 1 360 0
 803              		.cfi_startproc
ARM GAS  C:\Users\atsu\AppData\Local\Temp\cc7os1vl.s 			page 22


 804              	.LVL69:
 805 0000 08B5     		push	{r3, lr}
 806              	.LCFI7:
 807              		.cfi_def_cfa_offset 8
 808              		.cfi_offset 3, -8
 809              		.cfi_offset 14, -4
 810              		.loc 1 360 0
 811 0002 011C     		mov	r1, r0
 361:.\w5100.c     **** 	IINCHIP_WRITE(MR,val);
 812              		.loc 1 361 0
 813 0004 8020     		mov	r0, #128
 814              	.LVL70:
 815 0006 0002     		lsl	r0, r0, #8
 816 0008 FFF7FEFF 		bl	IINCHIP_WRITE
 817              	.LVL71:
 362:.\w5100.c     **** 	
 363:.\w5100.c     **** }
 818              		.loc 1 363 0
 819              		@ sp needed for prologue
 820 000c 08BD     		pop	{r3, pc}
 821              		.cfi_endproc
 822              	.LFE48:
 823              		.size	setMR, .-setMR
 824              		.section	.text.iinchip_init,"ax",%progbits
 825              		.align	1
 826              		.global	iinchip_init
 827              		.code	16
 828              		.thumb_func
 829              		.type	iinchip_init, %function
 830              	iinchip_init:
 831              	.LFB46:
 241:.\w5100.c     **** {	
 832              		.loc 1 241 0
 833              		.cfi_startproc
 834 0000 08B5     		push	{r3, lr}
 835              	.LCFI8:
 836              		.cfi_def_cfa_offset 8
 837              		.cfi_offset 3, -8
 838              		.cfi_offset 14, -4
 242:.\w5100.c     **** 	wait_delay_ms(300);
 839              		.loc 1 242 0
 840 0002 9620     		mov	r0, #150
 841 0004 4000     		lsl	r0, r0, #1
 842 0006 FFF7FEFF 		bl	wait_delay_ms
 843              	.LVL72:
 243:.\w5100.c     **** 	spi_master_init();
 844              		.loc 1 243 0
 845 000a FFF7FEFF 		bl	spi_master_init
 846              	.LVL73:
 244:.\w5100.c     **** 	setMR( MR_RST );
 847              		.loc 1 244 0
 848 000e 8020     		mov	r0, #128
 849 0010 FFF7FEFF 		bl	setMR
 850              	.LVL74:
 251:.\w5100.c     **** }
 851              		.loc 1 251 0
 852              		@ sp needed for prologue
ARM GAS  C:\Users\atsu\AppData\Local\Temp\cc7os1vl.s 			page 23


 853 0014 08BD     		pop	{r3, pc}
 854              		.cfi_endproc
 855              	.LFE46:
 856              		.size	iinchip_init, .-iinchip_init
 857              		.section	.text.setGAR,"ax",%progbits
 858              		.align	1
 859              		.global	setGAR
 860              		.code	16
 861              		.thumb_func
 862              		.type	setGAR, %function
 863              	setGAR:
 864              	.LFB49:
 364:.\w5100.c     **** 
 365:.\w5100.c     **** 
 366:.\w5100.c     **** /**
 367:.\w5100.c     **** @brief	This function sets up gateway IP address.
 368:.\w5100.c     **** */ 
 369:.\w5100.c     **** void setGAR(
 370:.\w5100.c     **** 	uint8 * addr	/**< a pointer to a 4 -uint8 array responsible to set the Gateway IP address. */
 371:.\w5100.c     **** 	)
 372:.\w5100.c     **** {
 865              		.loc 1 372 0
 866              		.cfi_startproc
 867              	.LVL75:
 868 0000 10B5     		push	{r4, lr}
 869              	.LCFI9:
 870              		.cfi_def_cfa_offset 8
 871              		.cfi_offset 4, -8
 872              		.cfi_offset 14, -4
 873              		.loc 1 372 0
 874 0002 041C     		mov	r4, r0
 373:.\w5100.c     **** 	IINCHIP_WRITE((GAR0 + 0),addr[0]);
 875              		.loc 1 373 0
 876 0004 0178     		ldrb	r1, [r0]
 877 0006 0120     		mov	r0, #1
 878              	.LVL76:
 879 0008 FFF7FEFF 		bl	IINCHIP_WRITE
 880              	.LVL77:
 374:.\w5100.c     **** 	IINCHIP_WRITE((GAR0 + 1),addr[1]);
 881              		.loc 1 374 0
 882 000c 6178     		ldrb	r1, [r4, #1]
 883 000e 0220     		mov	r0, #2
 884 0010 FFF7FEFF 		bl	IINCHIP_WRITE
 885              	.LVL78:
 375:.\w5100.c     **** 	IINCHIP_WRITE((GAR0 + 2),addr[2]);
 886              		.loc 1 375 0
 887 0014 A178     		ldrb	r1, [r4, #2]
 888 0016 0320     		mov	r0, #3
 889 0018 FFF7FEFF 		bl	IINCHIP_WRITE
 890              	.LVL79:
 376:.\w5100.c     **** 	IINCHIP_WRITE((GAR0 + 3),addr[3]);
 891              		.loc 1 376 0
 892 001c E178     		ldrb	r1, [r4, #3]
 893 001e 0420     		mov	r0, #4
 894 0020 FFF7FEFF 		bl	IINCHIP_WRITE
 895              	.LVL80:
 377:.\w5100.c     **** }
ARM GAS  C:\Users\atsu\AppData\Local\Temp\cc7os1vl.s 			page 24


 896              		.loc 1 377 0
 897              		@ sp needed for prologue
 898              	.LVL81:
 899 0024 10BD     		pop	{r4, pc}
 900              		.cfi_endproc
 901              	.LFE49:
 902              		.size	setGAR, .-setGAR
 903              		.section	.text.getGWIP,"ax",%progbits
 904              		.align	1
 905              		.global	getGWIP
 906              		.code	16
 907              		.thumb_func
 908              		.type	getGWIP, %function
 909              	getGWIP:
 910              	.LFB50:
 378:.\w5100.c     **** void getGWIP(uint8 * addr)
 379:.\w5100.c     **** {
 911              		.loc 1 379 0
 912              		.cfi_startproc
 913              	.LVL82:
 914 0000 10B5     		push	{r4, lr}
 915              	.LCFI10:
 916              		.cfi_def_cfa_offset 8
 917              		.cfi_offset 4, -8
 918              		.cfi_offset 14, -4
 919              		.loc 1 379 0
 920 0002 041C     		mov	r4, r0
 380:.\w5100.c     **** 	addr[0] = IINCHIP_READ((GAR0 + 0));
 921              		.loc 1 380 0
 922 0004 0120     		mov	r0, #1
 923              	.LVL83:
 924 0006 FFF7FEFF 		bl	IINCHIP_READ
 925              	.LVL84:
 926 000a 2070     		strb	r0, [r4]
 381:.\w5100.c     **** 	addr[1] = IINCHIP_READ((GAR0 + 1));
 927              		.loc 1 381 0
 928 000c 0220     		mov	r0, #2
 929 000e FFF7FEFF 		bl	IINCHIP_READ
 930              	.LVL85:
 931 0012 6070     		strb	r0, [r4, #1]
 382:.\w5100.c     **** 	addr[2] = IINCHIP_READ((GAR0 + 2));
 932              		.loc 1 382 0
 933 0014 0320     		mov	r0, #3
 934 0016 FFF7FEFF 		bl	IINCHIP_READ
 935              	.LVL86:
 936 001a A070     		strb	r0, [r4, #2]
 383:.\w5100.c     **** 	addr[3] = IINCHIP_READ((GAR0 + 3));
 937              		.loc 1 383 0
 938 001c 0420     		mov	r0, #4
 939 001e FFF7FEFF 		bl	IINCHIP_READ
 940              	.LVL87:
 384:.\w5100.c     **** }
 941              		.loc 1 384 0
 942              		@ sp needed for prologue
 383:.\w5100.c     **** 	addr[3] = IINCHIP_READ((GAR0 + 3));
 943              		.loc 1 383 0
 944 0022 E070     		strb	r0, [r4, #3]
ARM GAS  C:\Users\atsu\AppData\Local\Temp\cc7os1vl.s 			page 25


 945              	.LVL88:
 946              		.loc 1 384 0
 947 0024 10BD     		pop	{r4, pc}
 948              		.cfi_endproc
 949              	.LFE50:
 950              		.size	getGWIP, .-getGWIP
 951              		.section	.text.setSUBR,"ax",%progbits
 952              		.align	1
 953              		.global	setSUBR
 954              		.code	16
 955              		.thumb_func
 956              		.type	setSUBR, %function
 957              	setSUBR:
 958              	.LFB51:
 385:.\w5100.c     **** 
 386:.\w5100.c     **** 
 387:.\w5100.c     **** /**
 388:.\w5100.c     **** @brief	It sets up SubnetMask address
 389:.\w5100.c     **** */ 
 390:.\w5100.c     **** void setSUBR(
 391:.\w5100.c     **** 	uint8 * addr	/**< a pointer to a 4 -uint8 array responsible to set the SubnetMask address */
 392:.\w5100.c     **** 	)
 393:.\w5100.c     **** {
 959              		.loc 1 393 0
 960              		.cfi_startproc
 961              	.LVL89:
 962 0000 10B5     		push	{r4, lr}
 963              	.LCFI11:
 964              		.cfi_def_cfa_offset 8
 965              		.cfi_offset 4, -8
 966              		.cfi_offset 14, -4
 967              		.loc 1 393 0
 968 0002 041C     		mov	r4, r0
 394:.\w5100.c     **** 	IINCHIP_WRITE((SUBR0 + 0),addr[0]);
 969              		.loc 1 394 0
 970 0004 0178     		ldrb	r1, [r0]
 971 0006 0520     		mov	r0, #5
 972              	.LVL90:
 973 0008 FFF7FEFF 		bl	IINCHIP_WRITE
 974              	.LVL91:
 395:.\w5100.c     **** 	IINCHIP_WRITE((SUBR0 + 1),addr[1]);
 975              		.loc 1 395 0
 976 000c 6178     		ldrb	r1, [r4, #1]
 977 000e 0620     		mov	r0, #6
 978 0010 FFF7FEFF 		bl	IINCHIP_WRITE
 979              	.LVL92:
 396:.\w5100.c     **** 	IINCHIP_WRITE((SUBR0 + 2),addr[2]);
 980              		.loc 1 396 0
 981 0014 A178     		ldrb	r1, [r4, #2]
 982 0016 0720     		mov	r0, #7
 983 0018 FFF7FEFF 		bl	IINCHIP_WRITE
 984              	.LVL93:
 397:.\w5100.c     **** 	IINCHIP_WRITE((SUBR0 + 3),addr[3]);
 985              		.loc 1 397 0
 986 001c E178     		ldrb	r1, [r4, #3]
 987 001e 0820     		mov	r0, #8
 988 0020 FFF7FEFF 		bl	IINCHIP_WRITE
ARM GAS  C:\Users\atsu\AppData\Local\Temp\cc7os1vl.s 			page 26


 989              	.LVL94:
 398:.\w5100.c     **** }
 990              		.loc 1 398 0
 991              		@ sp needed for prologue
 992              	.LVL95:
 993 0024 10BD     		pop	{r4, pc}
 994              		.cfi_endproc
 995              	.LFE51:
 996              		.size	setSUBR, .-setSUBR
 997              		.section	.text.setSHAR,"ax",%progbits
 998              		.align	1
 999              		.global	setSHAR
 1000              		.code	16
 1001              		.thumb_func
 1002              		.type	setSHAR, %function
 1003              	setSHAR:
 1004              	.LFB52:
 399:.\w5100.c     **** 
 400:.\w5100.c     **** 
 401:.\w5100.c     **** /**
 402:.\w5100.c     **** @brief	This function sets up MAC address.
 403:.\w5100.c     **** */ 
 404:.\w5100.c     **** void setSHAR(
 405:.\w5100.c     **** 	uint8 * addr	/**< a pointer to a 6 -uint8 array responsible to set the MAC address. */
 406:.\w5100.c     **** 	)
 407:.\w5100.c     **** {
 1005              		.loc 1 407 0
 1006              		.cfi_startproc
 1007              	.LVL96:
 1008 0000 10B5     		push	{r4, lr}
 1009              	.LCFI12:
 1010              		.cfi_def_cfa_offset 8
 1011              		.cfi_offset 4, -8
 1012              		.cfi_offset 14, -4
 1013              		.loc 1 407 0
 1014 0002 041C     		mov	r4, r0
 408:.\w5100.c     **** 	IINCHIP_WRITE((SHAR0 + 0),addr[0]);
 1015              		.loc 1 408 0
 1016 0004 0178     		ldrb	r1, [r0]
 1017 0006 0920     		mov	r0, #9
 1018              	.LVL97:
 1019 0008 FFF7FEFF 		bl	IINCHIP_WRITE
 1020              	.LVL98:
 409:.\w5100.c     **** 	IINCHIP_WRITE((SHAR0 + 1),addr[1]);
 1021              		.loc 1 409 0
 1022 000c 6178     		ldrb	r1, [r4, #1]
 1023 000e 0A20     		mov	r0, #10
 1024 0010 FFF7FEFF 		bl	IINCHIP_WRITE
 1025              	.LVL99:
 410:.\w5100.c     **** 	IINCHIP_WRITE((SHAR0 + 2),addr[2]);
 1026              		.loc 1 410 0
 1027 0014 A178     		ldrb	r1, [r4, #2]
 1028 0016 0B20     		mov	r0, #11
 1029 0018 FFF7FEFF 		bl	IINCHIP_WRITE
 1030              	.LVL100:
 411:.\w5100.c     **** 	IINCHIP_WRITE((SHAR0 + 3),addr[3]);
 1031              		.loc 1 411 0
ARM GAS  C:\Users\atsu\AppData\Local\Temp\cc7os1vl.s 			page 27


 1032 001c E178     		ldrb	r1, [r4, #3]
 1033 001e 0C20     		mov	r0, #12
 1034 0020 FFF7FEFF 		bl	IINCHIP_WRITE
 1035              	.LVL101:
 412:.\w5100.c     **** 	IINCHIP_WRITE((SHAR0 + 4),addr[4]);
 1036              		.loc 1 412 0
 1037 0024 2179     		ldrb	r1, [r4, #4]
 1038 0026 0D20     		mov	r0, #13
 1039 0028 FFF7FEFF 		bl	IINCHIP_WRITE
 1040              	.LVL102:
 413:.\w5100.c     **** 	IINCHIP_WRITE((SHAR0 + 5),addr[5]);
 1041              		.loc 1 413 0
 1042 002c 6179     		ldrb	r1, [r4, #5]
 1043 002e 0E20     		mov	r0, #14
 1044 0030 FFF7FEFF 		bl	IINCHIP_WRITE
 1045              	.LVL103:
 414:.\w5100.c     **** }
 1046              		.loc 1 414 0
 1047              		@ sp needed for prologue
 1048              	.LVL104:
 1049 0034 10BD     		pop	{r4, pc}
 1050              		.cfi_endproc
 1051              	.LFE52:
 1052              		.size	setSHAR, .-setSHAR
 1053              		.section	.text.setSIPR,"ax",%progbits
 1054              		.align	1
 1055              		.global	setSIPR
 1056              		.code	16
 1057              		.thumb_func
 1058              		.type	setSIPR, %function
 1059              	setSIPR:
 1060              	.LFB53:
 415:.\w5100.c     **** 
 416:.\w5100.c     **** 
 417:.\w5100.c     **** /**
 418:.\w5100.c     **** @brief	This function sets up Source IP address.
 419:.\w5100.c     **** */
 420:.\w5100.c     **** void setSIPR(
 421:.\w5100.c     **** 	uint8 * addr	/**< a pointer to a 4 -uint8 array responsible to set the Source IP address. */
 422:.\w5100.c     **** 	)
 423:.\w5100.c     **** {
 1061              		.loc 1 423 0
 1062              		.cfi_startproc
 1063              	.LVL105:
 1064 0000 10B5     		push	{r4, lr}
 1065              	.LCFI13:
 1066              		.cfi_def_cfa_offset 8
 1067              		.cfi_offset 4, -8
 1068              		.cfi_offset 14, -4
 1069              		.loc 1 423 0
 1070 0002 041C     		mov	r4, r0
 424:.\w5100.c     **** 	IINCHIP_WRITE((SIPR0 + 0),addr[0]);
 1071              		.loc 1 424 0
 1072 0004 0178     		ldrb	r1, [r0]
 1073 0006 0F20     		mov	r0, #15
 1074              	.LVL106:
 1075 0008 FFF7FEFF 		bl	IINCHIP_WRITE
ARM GAS  C:\Users\atsu\AppData\Local\Temp\cc7os1vl.s 			page 28


 1076              	.LVL107:
 425:.\w5100.c     **** 	IINCHIP_WRITE((SIPR0 + 1),addr[1]);
 1077              		.loc 1 425 0
 1078 000c 6178     		ldrb	r1, [r4, #1]
 1079 000e 1020     		mov	r0, #16
 1080 0010 FFF7FEFF 		bl	IINCHIP_WRITE
 1081              	.LVL108:
 426:.\w5100.c     **** 	IINCHIP_WRITE((SIPR0 + 2),addr[2]);
 1082              		.loc 1 426 0
 1083 0014 A178     		ldrb	r1, [r4, #2]
 1084 0016 1120     		mov	r0, #17
 1085 0018 FFF7FEFF 		bl	IINCHIP_WRITE
 1086              	.LVL109:
 427:.\w5100.c     **** 	IINCHIP_WRITE((SIPR0 + 3),addr[3]);
 1087              		.loc 1 427 0
 1088 001c E178     		ldrb	r1, [r4, #3]
 1089 001e 1220     		mov	r0, #18
 1090 0020 FFF7FEFF 		bl	IINCHIP_WRITE
 1091              	.LVL110:
 428:.\w5100.c     **** }
 1092              		.loc 1 428 0
 1093              		@ sp needed for prologue
 1094              	.LVL111:
 1095 0024 10BD     		pop	{r4, pc}
 1096              		.cfi_endproc
 1097              	.LFE53:
 1098              		.size	setSIPR, .-setSIPR
 1099              		.section	.text.getIR,"ax",%progbits
 1100              		.align	1
 1101              		.global	getIR
 1102              		.code	16
 1103              		.thumb_func
 1104              		.type	getIR, %function
 1105              	getIR:
 1106              	.LFB54:
 429:.\w5100.c     **** 
 430:.\w5100.c     **** 
 431:.\w5100.c     **** /**
 432:.\w5100.c     **** @brief	This function gets Interrupt register in common register.
 433:.\w5100.c     ****  */
 434:.\w5100.c     **** uint8 getIR( void )
 435:.\w5100.c     **** {
 1107              		.loc 1 435 0
 1108              		.cfi_startproc
 1109 0000 08B5     		push	{r3, lr}
 1110              	.LCFI14:
 1111              		.cfi_def_cfa_offset 8
 1112              		.cfi_offset 3, -8
 1113              		.cfi_offset 14, -4
 436:.\w5100.c     ****    return IINCHIP_READ(IR);
 1114              		.loc 1 436 0
 1115 0002 1520     		mov	r0, #21
 1116 0004 FFF7FEFF 		bl	IINCHIP_READ
 1117              	.LVL112:
 437:.\w5100.c     **** }
 1118              		.loc 1 437 0
 1119              		@ sp needed for prologue
ARM GAS  C:\Users\atsu\AppData\Local\Temp\cc7os1vl.s 			page 29


 1120 0008 08BD     		pop	{r3, pc}
 1121              		.cfi_endproc
 1122              	.LFE54:
 1123              		.size	getIR, .-getIR
 1124              		.section	.text.setRTR,"ax",%progbits
 1125              		.align	1
 1126              		.global	setRTR
 1127              		.code	16
 1128              		.thumb_func
 1129              		.type	setRTR, %function
 1130              	setRTR:
 1131              	.LFB55:
 438:.\w5100.c     **** 
 439:.\w5100.c     **** 
 440:.\w5100.c     **** 
 441:.\w5100.c     **** /**
 442:.\w5100.c     **** @brief	This function sets up Retransmission time.
 443:.\w5100.c     **** 
 444:.\w5100.c     **** If there is no response from the peer or delay in response then retransmission 
 445:.\w5100.c     **** will be there as per RTR (Retry Time-value Register)setting
 446:.\w5100.c     **** */
 447:.\w5100.c     **** void setRTR(uint16 timeout)
 448:.\w5100.c     **** {
 1132              		.loc 1 448 0
 1133              		.cfi_startproc
 1134              	.LVL113:
 1135 0000 10B5     		push	{r4, lr}
 1136              	.LCFI15:
 1137              		.cfi_def_cfa_offset 8
 1138              		.cfi_offset 4, -8
 1139              		.cfi_offset 14, -4
 449:.\w5100.c     **** 	IINCHIP_WRITE(RTR0,(uint8)((timeout & 0xff00) >> 8));
 1140              		.loc 1 449 0
 1141 0002 010A     		lsr	r1, r0, #8
 448:.\w5100.c     **** {
 1142              		.loc 1 448 0
 1143 0004 041C     		mov	r4, r0
 1144              		.loc 1 449 0
 1145 0006 1720     		mov	r0, #23
 1146              	.LVL114:
 1147 0008 FFF7FEFF 		bl	IINCHIP_WRITE
 1148              	.LVL115:
 450:.\w5100.c     **** 	IINCHIP_WRITE((RTR0 + 1),(uint8)(timeout & 0x00ff));
 1149              		.loc 1 450 0
 1150 000c E1B2     		uxtb	r1, r4
 1151 000e 1820     		mov	r0, #24
 1152 0010 FFF7FEFF 		bl	IINCHIP_WRITE
 1153              	.LVL116:
 451:.\w5100.c     **** }
 1154              		.loc 1 451 0
 1155              		@ sp needed for prologue
 1156 0014 10BD     		pop	{r4, pc}
 1157              		.cfi_endproc
 1158              	.LFE55:
 1159              		.size	setRTR, .-setRTR
 1160              		.section	.text.setRCR,"ax",%progbits
 1161              		.align	1
ARM GAS  C:\Users\atsu\AppData\Local\Temp\cc7os1vl.s 			page 30


 1162              		.global	setRCR
 1163              		.code	16
 1164              		.thumb_func
 1165              		.type	setRCR, %function
 1166              	setRCR:
 1167              	.LFB56:
 452:.\w5100.c     **** 
 453:.\w5100.c     **** 
 454:.\w5100.c     **** /**
 455:.\w5100.c     **** @brief	This function set the number of Retransmission.
 456:.\w5100.c     **** 
 457:.\w5100.c     **** If there is no response from the peer or delay in response then recorded time 
 458:.\w5100.c     **** as per RTR & RCR register seeting then time out will occur.
 459:.\w5100.c     **** */
 460:.\w5100.c     **** void setRCR(uint8 retry)
 461:.\w5100.c     **** {
 1168              		.loc 1 461 0
 1169              		.cfi_startproc
 1170              	.LVL117:
 1171 0000 08B5     		push	{r3, lr}
 1172              	.LCFI16:
 1173              		.cfi_def_cfa_offset 8
 1174              		.cfi_offset 3, -8
 1175              		.cfi_offset 14, -4
 1176              		.loc 1 461 0
 1177 0002 011C     		mov	r1, r0
 462:.\w5100.c     **** 	IINCHIP_WRITE(RCR,retry);
 1178              		.loc 1 462 0
 1179 0004 1920     		mov	r0, #25
 1180              	.LVL118:
 1181 0006 FFF7FEFF 		bl	IINCHIP_WRITE
 1182              	.LVL119:
 463:.\w5100.c     **** }
 1183              		.loc 1 463 0
 1184              		@ sp needed for prologue
 1185 000a 08BD     		pop	{r3, pc}
 1186              		.cfi_endproc
 1187              	.LFE56:
 1188              		.size	setRCR, .-setRCR
 1189              		.section	.text.setIMR,"ax",%progbits
 1190              		.align	1
 1191              		.global	setIMR
 1192              		.code	16
 1193              		.thumb_func
 1194              		.type	setIMR, %function
 1195              	setIMR:
 1196              	.LFB57:
 464:.\w5100.c     **** 
 465:.\w5100.c     **** 
 466:.\w5100.c     **** /**
 467:.\w5100.c     **** @brief	This function set the interrupt mask Enable/Disable appropriate Interrupt. ('1' : interrupt 
 468:.\w5100.c     **** 
 469:.\w5100.c     **** If any bit in IMR is set as '0' then there is not interrupt signal though the bit is
 470:.\w5100.c     **** set in IR register.
 471:.\w5100.c     **** */
 472:.\w5100.c     **** void setIMR(uint8 mask)
 473:.\w5100.c     **** {
ARM GAS  C:\Users\atsu\AppData\Local\Temp\cc7os1vl.s 			page 31


 1197              		.loc 1 473 0
 1198              		.cfi_startproc
 1199              	.LVL120:
 1200 0000 08B5     		push	{r3, lr}
 1201              	.LCFI17:
 1202              		.cfi_def_cfa_offset 8
 1203              		.cfi_offset 3, -8
 1204              		.cfi_offset 14, -4
 1205              		.loc 1 473 0
 1206 0002 011C     		mov	r1, r0
 474:.\w5100.c     **** 	IINCHIP_WRITE(IMR,mask); // must be setted 0x10.
 1207              		.loc 1 474 0
 1208 0004 1620     		mov	r0, #22
 1209              	.LVL121:
 1210 0006 FFF7FEFF 		bl	IINCHIP_WRITE
 1211              	.LVL122:
 475:.\w5100.c     **** }
 1212              		.loc 1 475 0
 1213              		@ sp needed for prologue
 1214 000a 08BD     		pop	{r3, pc}
 1215              		.cfi_endproc
 1216              	.LFE57:
 1217              		.size	setIMR, .-setIMR
 1218              		.section	.text.getGAR,"ax",%progbits
 1219              		.align	1
 1220              		.global	getGAR
 1221              		.code	16
 1222              		.thumb_func
 1223              		.type	getGAR, %function
 1224              	getGAR:
 1225              	.LFB58:
 476:.\w5100.c     **** 
 477:.\w5100.c     **** 
 478:.\w5100.c     **** /**
 479:.\w5100.c     **** @brief	These below functions are used to get the Gateway, SubnetMask
 480:.\w5100.c     **** 		and Source Hardware Address (MAC Address) and Source IP address
 481:.\w5100.c     **** */
 482:.\w5100.c     **** void getGAR(uint8 * addr)
 483:.\w5100.c     **** {
 1226              		.loc 1 483 0
 1227              		.cfi_startproc
 1228              	.LVL123:
 1229 0000 10B5     		push	{r4, lr}
 1230              	.LCFI18:
 1231              		.cfi_def_cfa_offset 8
 1232              		.cfi_offset 4, -8
 1233              		.cfi_offset 14, -4
 1234              		.loc 1 483 0
 1235 0002 041C     		mov	r4, r0
 484:.\w5100.c     **** 	addr[0] = IINCHIP_READ(GAR0);
 1236              		.loc 1 484 0
 1237 0004 0120     		mov	r0, #1
 1238              	.LVL124:
 1239 0006 FFF7FEFF 		bl	IINCHIP_READ
 1240              	.LVL125:
 1241 000a 2070     		strb	r0, [r4]
 485:.\w5100.c     **** 	addr[1] = IINCHIP_READ(GAR0+1);
ARM GAS  C:\Users\atsu\AppData\Local\Temp\cc7os1vl.s 			page 32


 1242              		.loc 1 485 0
 1243 000c 0220     		mov	r0, #2
 1244 000e FFF7FEFF 		bl	IINCHIP_READ
 1245              	.LVL126:
 1246 0012 6070     		strb	r0, [r4, #1]
 486:.\w5100.c     **** 	addr[2] = IINCHIP_READ(GAR0+2);
 1247              		.loc 1 486 0
 1248 0014 0320     		mov	r0, #3
 1249 0016 FFF7FEFF 		bl	IINCHIP_READ
 1250              	.LVL127:
 1251 001a A070     		strb	r0, [r4, #2]
 487:.\w5100.c     **** 	addr[3] = IINCHIP_READ(GAR0+3);
 1252              		.loc 1 487 0
 1253 001c 0420     		mov	r0, #4
 1254 001e FFF7FEFF 		bl	IINCHIP_READ
 1255              	.LVL128:
 488:.\w5100.c     **** }
 1256              		.loc 1 488 0
 1257              		@ sp needed for prologue
 487:.\w5100.c     **** 	addr[3] = IINCHIP_READ(GAR0+3);
 1258              		.loc 1 487 0
 1259 0022 E070     		strb	r0, [r4, #3]
 1260              	.LVL129:
 1261              		.loc 1 488 0
 1262 0024 10BD     		pop	{r4, pc}
 1263              		.cfi_endproc
 1264              	.LFE58:
 1265              		.size	getGAR, .-getGAR
 1266              		.section	.text.getSUBR,"ax",%progbits
 1267              		.align	1
 1268              		.global	getSUBR
 1269              		.code	16
 1270              		.thumb_func
 1271              		.type	getSUBR, %function
 1272              	getSUBR:
 1273              	.LFB59:
 489:.\w5100.c     **** void getSUBR(uint8 * addr)
 490:.\w5100.c     **** {
 1274              		.loc 1 490 0
 1275              		.cfi_startproc
 1276              	.LVL130:
 1277 0000 10B5     		push	{r4, lr}
 1278              	.LCFI19:
 1279              		.cfi_def_cfa_offset 8
 1280              		.cfi_offset 4, -8
 1281              		.cfi_offset 14, -4
 1282              		.loc 1 490 0
 1283 0002 041C     		mov	r4, r0
 491:.\w5100.c     **** 	addr[0] = IINCHIP_READ(SUBR0);
 1284              		.loc 1 491 0
 1285 0004 0520     		mov	r0, #5
 1286              	.LVL131:
 1287 0006 FFF7FEFF 		bl	IINCHIP_READ
 1288              	.LVL132:
 1289 000a 2070     		strb	r0, [r4]
 492:.\w5100.c     **** 	addr[1] = IINCHIP_READ(SUBR0+1);
 1290              		.loc 1 492 0
ARM GAS  C:\Users\atsu\AppData\Local\Temp\cc7os1vl.s 			page 33


 1291 000c 0620     		mov	r0, #6
 1292 000e FFF7FEFF 		bl	IINCHIP_READ
 1293              	.LVL133:
 1294 0012 6070     		strb	r0, [r4, #1]
 493:.\w5100.c     **** 	addr[2] = IINCHIP_READ(SUBR0+2);
 1295              		.loc 1 493 0
 1296 0014 0720     		mov	r0, #7
 1297 0016 FFF7FEFF 		bl	IINCHIP_READ
 1298              	.LVL134:
 1299 001a A070     		strb	r0, [r4, #2]
 494:.\w5100.c     **** 	addr[3] = IINCHIP_READ(SUBR0+3);
 1300              		.loc 1 494 0
 1301 001c 0820     		mov	r0, #8
 1302 001e FFF7FEFF 		bl	IINCHIP_READ
 1303              	.LVL135:
 495:.\w5100.c     **** }
 1304              		.loc 1 495 0
 1305              		@ sp needed for prologue
 494:.\w5100.c     **** 	addr[3] = IINCHIP_READ(SUBR0+3);
 1306              		.loc 1 494 0
 1307 0022 E070     		strb	r0, [r4, #3]
 1308              	.LVL136:
 1309              		.loc 1 495 0
 1310 0024 10BD     		pop	{r4, pc}
 1311              		.cfi_endproc
 1312              	.LFE59:
 1313              		.size	getSUBR, .-getSUBR
 1314              		.section	.text.getSHAR,"ax",%progbits
 1315              		.align	1
 1316              		.global	getSHAR
 1317              		.code	16
 1318              		.thumb_func
 1319              		.type	getSHAR, %function
 1320              	getSHAR:
 1321              	.LFB60:
 496:.\w5100.c     **** void getSHAR(uint8 * addr)
 497:.\w5100.c     **** {
 1322              		.loc 1 497 0
 1323              		.cfi_startproc
 1324              	.LVL137:
 1325 0000 10B5     		push	{r4, lr}
 1326              	.LCFI20:
 1327              		.cfi_def_cfa_offset 8
 1328              		.cfi_offset 4, -8
 1329              		.cfi_offset 14, -4
 1330              		.loc 1 497 0
 1331 0002 041C     		mov	r4, r0
 498:.\w5100.c     **** 	addr[0] = IINCHIP_READ(SHAR0);
 1332              		.loc 1 498 0
 1333 0004 0920     		mov	r0, #9
 1334              	.LVL138:
 1335 0006 FFF7FEFF 		bl	IINCHIP_READ
 1336              	.LVL139:
 1337 000a 2070     		strb	r0, [r4]
 499:.\w5100.c     **** 	addr[1] = IINCHIP_READ(SHAR0+1);
 1338              		.loc 1 499 0
 1339 000c 0A20     		mov	r0, #10
ARM GAS  C:\Users\atsu\AppData\Local\Temp\cc7os1vl.s 			page 34


 1340 000e FFF7FEFF 		bl	IINCHIP_READ
 1341              	.LVL140:
 1342 0012 6070     		strb	r0, [r4, #1]
 500:.\w5100.c     **** 	addr[2] = IINCHIP_READ(SHAR0+2);
 1343              		.loc 1 500 0
 1344 0014 0B20     		mov	r0, #11
 1345 0016 FFF7FEFF 		bl	IINCHIP_READ
 1346              	.LVL141:
 1347 001a A070     		strb	r0, [r4, #2]
 501:.\w5100.c     **** 	addr[3] = IINCHIP_READ(SHAR0+3);
 1348              		.loc 1 501 0
 1349 001c 0C20     		mov	r0, #12
 1350 001e FFF7FEFF 		bl	IINCHIP_READ
 1351              	.LVL142:
 1352 0022 E070     		strb	r0, [r4, #3]
 502:.\w5100.c     **** 	addr[4] = IINCHIP_READ(SHAR0+4);
 1353              		.loc 1 502 0
 1354 0024 0D20     		mov	r0, #13
 1355 0026 FFF7FEFF 		bl	IINCHIP_READ
 1356              	.LVL143:
 1357 002a 2071     		strb	r0, [r4, #4]
 503:.\w5100.c     **** 	addr[5] = IINCHIP_READ(SHAR0+5);
 1358              		.loc 1 503 0
 1359 002c 0E20     		mov	r0, #14
 1360 002e FFF7FEFF 		bl	IINCHIP_READ
 1361              	.LVL144:
 504:.\w5100.c     **** }
 1362              		.loc 1 504 0
 1363              		@ sp needed for prologue
 503:.\w5100.c     **** 	addr[5] = IINCHIP_READ(SHAR0+5);
 1364              		.loc 1 503 0
 1365 0032 6071     		strb	r0, [r4, #5]
 1366              	.LVL145:
 1367              		.loc 1 504 0
 1368 0034 10BD     		pop	{r4, pc}
 1369              		.cfi_endproc
 1370              	.LFE60:
 1371              		.size	getSHAR, .-getSHAR
 1372              		.section	.text.getSIPR,"ax",%progbits
 1373              		.align	1
 1374              		.global	getSIPR
 1375              		.code	16
 1376              		.thumb_func
 1377              		.type	getSIPR, %function
 1378              	getSIPR:
 1379              	.LFB61:
 505:.\w5100.c     **** void getSIPR(uint8 * addr)
 506:.\w5100.c     **** {
 1380              		.loc 1 506 0
 1381              		.cfi_startproc
 1382              	.LVL146:
 1383 0000 10B5     		push	{r4, lr}
 1384              	.LCFI21:
 1385              		.cfi_def_cfa_offset 8
 1386              		.cfi_offset 4, -8
 1387              		.cfi_offset 14, -4
 1388              		.loc 1 506 0
ARM GAS  C:\Users\atsu\AppData\Local\Temp\cc7os1vl.s 			page 35


 1389 0002 041C     		mov	r4, r0
 507:.\w5100.c     **** 	addr[0] = IINCHIP_READ(SIPR0);
 1390              		.loc 1 507 0
 1391 0004 0F20     		mov	r0, #15
 1392              	.LVL147:
 1393 0006 FFF7FEFF 		bl	IINCHIP_READ
 1394              	.LVL148:
 1395 000a 2070     		strb	r0, [r4]
 508:.\w5100.c     **** 	addr[1] = IINCHIP_READ(SIPR0+1);
 1396              		.loc 1 508 0
 1397 000c 1020     		mov	r0, #16
 1398 000e FFF7FEFF 		bl	IINCHIP_READ
 1399              	.LVL149:
 1400 0012 6070     		strb	r0, [r4, #1]
 509:.\w5100.c     **** 	addr[2] = IINCHIP_READ(SIPR0+2);
 1401              		.loc 1 509 0
 1402 0014 1120     		mov	r0, #17
 1403 0016 FFF7FEFF 		bl	IINCHIP_READ
 1404              	.LVL150:
 1405 001a A070     		strb	r0, [r4, #2]
 510:.\w5100.c     **** 	addr[3] = IINCHIP_READ(SIPR0+3);
 1406              		.loc 1 510 0
 1407 001c 1220     		mov	r0, #18
 1408 001e FFF7FEFF 		bl	IINCHIP_READ
 1409              	.LVL151:
 511:.\w5100.c     **** }
 1410              		.loc 1 511 0
 1411              		@ sp needed for prologue
 510:.\w5100.c     **** 	addr[3] = IINCHIP_READ(SIPR0+3);
 1412              		.loc 1 510 0
 1413 0022 E070     		strb	r0, [r4, #3]
 1414              	.LVL152:
 1415              		.loc 1 511 0
 1416 0024 10BD     		pop	{r4, pc}
 1417              		.cfi_endproc
 1418              	.LFE61:
 1419              		.size	getSIPR, .-getSIPR
 1420              		.section	.text.getSn_DHAR,"ax",%progbits
 1421              		.align	1
 1422              		.global	getSn_DHAR
 1423              		.code	16
 1424              		.thumb_func
 1425              		.type	getSn_DHAR, %function
 1426              	getSn_DHAR:
 1427              	.LFB62:
 512:.\w5100.c     **** 
 513:.\w5100.c     **** 
 514:.\w5100.c     **** /**
 515:.\w5100.c     **** @brief	These below functions are used to get the Destination Hardware Address (MAC Address), Destin
 516:.\w5100.c     **** */
 517:.\w5100.c     **** void getSn_DHAR(SOCKET s, uint8 * addr)
 518:.\w5100.c     **** {
 1428              		.loc 1 518 0
 1429              		.cfi_startproc
 1430              	.LVL153:
 1431 0000 38B5     		push	{r3, r4, r5, lr}
 1432              	.LCFI22:
ARM GAS  C:\Users\atsu\AppData\Local\Temp\cc7os1vl.s 			page 36


 1433              		.cfi_def_cfa_offset 16
 1434              		.cfi_offset 3, -16
 1435              		.cfi_offset 4, -12
 1436              		.cfi_offset 5, -8
 1437              		.cfi_offset 14, -4
 519:.\w5100.c     **** 	addr[0] = IINCHIP_READ(Sn_DHAR0(s));
 1438              		.loc 1 519 0
 1439 0002 051D     		add	r5, r0, #4
 1440 0004 2802     		lsl	r0, r5, #8
 1441              	.LVL154:
 1442 0006 85B2     		uxth	r5, r0
 518:.\w5100.c     **** {
 1443              		.loc 1 518 0
 1444 0008 0C1C     		mov	r4, r1
 1445              		.loc 1 519 0
 1446 000a A91D     		add	r1, r5, #6
 1447              	.LVL155:
 1448 000c 88B2     		uxth	r0, r1
 1449 000e FFF7FEFF 		bl	IINCHIP_READ
 1450              	.LVL156:
 520:.\w5100.c     **** 	addr[1] = IINCHIP_READ(Sn_DHAR0(s)+1);
 1451              		.loc 1 520 0
 1452 0012 EA1D     		add	r2, r5, #7
 519:.\w5100.c     **** 	addr[0] = IINCHIP_READ(Sn_DHAR0(s));
 1453              		.loc 1 519 0
 1454 0014 2070     		strb	r0, [r4]
 1455              		.loc 1 520 0
 1456 0016 90B2     		uxth	r0, r2
 1457 0018 FFF7FEFF 		bl	IINCHIP_READ
 1458              	.LVL157:
 521:.\w5100.c     **** 	addr[2] = IINCHIP_READ(Sn_DHAR0(s)+2);
 1459              		.loc 1 521 0
 1460 001c 2B1C     		mov	r3, r5
 1461 001e 0833     		add	r3, r3, #8
 520:.\w5100.c     **** 	addr[1] = IINCHIP_READ(Sn_DHAR0(s)+1);
 1462              		.loc 1 520 0
 1463 0020 6070     		strb	r0, [r4, #1]
 1464              		.loc 1 521 0
 1465 0022 98B2     		uxth	r0, r3
 1466 0024 FFF7FEFF 		bl	IINCHIP_READ
 1467              	.LVL158:
 1468 0028 A070     		strb	r0, [r4, #2]
 522:.\w5100.c     **** 	addr[3] = IINCHIP_READ(Sn_DHAR0(s)+3);
 1469              		.loc 1 522 0
 1470 002a 281C     		mov	r0, r5
 1471 002c 0930     		add	r0, r0, #9
 1472 002e 80B2     		uxth	r0, r0
 1473 0030 FFF7FEFF 		bl	IINCHIP_READ
 1474              	.LVL159:
 523:.\w5100.c     **** 	addr[4] = IINCHIP_READ(Sn_DHAR0(s)+4);
 1475              		.loc 1 523 0
 1476 0034 291C     		mov	r1, r5
 1477 0036 0A31     		add	r1, r1, #10
 522:.\w5100.c     **** 	addr[3] = IINCHIP_READ(Sn_DHAR0(s)+3);
 1478              		.loc 1 522 0
 1479 0038 E070     		strb	r0, [r4, #3]
 1480              		.loc 1 523 0
ARM GAS  C:\Users\atsu\AppData\Local\Temp\cc7os1vl.s 			page 37


 1481 003a 88B2     		uxth	r0, r1
 1482 003c FFF7FEFF 		bl	IINCHIP_READ
 1483              	.LVL160:
 524:.\w5100.c     **** 	addr[5] = IINCHIP_READ(Sn_DHAR0(s)+5);
 1484              		.loc 1 524 0
 1485 0040 0B35     		add	r5, r5, #11
 523:.\w5100.c     **** 	addr[4] = IINCHIP_READ(Sn_DHAR0(s)+4);
 1486              		.loc 1 523 0
 1487 0042 2071     		strb	r0, [r4, #4]
 1488              		.loc 1 524 0
 1489 0044 A8B2     		uxth	r0, r5
 1490 0046 FFF7FEFF 		bl	IINCHIP_READ
 1491              	.LVL161:
 525:.\w5100.c     **** }
 1492              		.loc 1 525 0
 1493              		@ sp needed for prologue
 524:.\w5100.c     **** 	addr[5] = IINCHIP_READ(Sn_DHAR0(s)+5);
 1494              		.loc 1 524 0
 1495 004a 6071     		strb	r0, [r4, #5]
 1496              	.LVL162:
 1497              		.loc 1 525 0
 1498 004c 38BD     		pop	{r3, r4, r5, pc}
 1499              		.cfi_endproc
 1500              	.LFE62:
 1501              		.size	getSn_DHAR, .-getSn_DHAR
 1502              		.section	.text.setSn_DHAR,"ax",%progbits
 1503              		.align	1
 1504              		.global	setSn_DHAR
 1505              		.code	16
 1506              		.thumb_func
 1507              		.type	setSn_DHAR, %function
 1508              	setSn_DHAR:
 1509              	.LFB63:
 526:.\w5100.c     **** void setSn_DHAR(SOCKET s, uint8 * addr)
 527:.\w5100.c     **** {
 1510              		.loc 1 527 0
 1511              		.cfi_startproc
 1512              	.LVL163:
 1513 0000 38B5     		push	{r3, r4, r5, lr}
 1514              	.LCFI23:
 1515              		.cfi_def_cfa_offset 16
 1516              		.cfi_offset 3, -16
 1517              		.cfi_offset 4, -12
 1518              		.cfi_offset 5, -8
 1519              		.cfi_offset 14, -4
 528:.\w5100.c     **** 	IINCHIP_WRITE((Sn_DHAR0(s) + 0),addr[0]);
 1520              		.loc 1 528 0
 1521 0002 051D     		add	r5, r0, #4
 1522 0004 2802     		lsl	r0, r5, #8
 1523              	.LVL164:
 1524 0006 85B2     		uxth	r5, r0
 527:.\w5100.c     **** {
 1525              		.loc 1 527 0
 1526 0008 0C1C     		mov	r4, r1
 1527              		.loc 1 528 0
 1528 000a A91D     		add	r1, r5, #6
 1529              	.LVL165:
ARM GAS  C:\Users\atsu\AppData\Local\Temp\cc7os1vl.s 			page 38


 1530 000c 88B2     		uxth	r0, r1
 1531 000e 2178     		ldrb	r1, [r4]
 1532 0010 FFF7FEFF 		bl	IINCHIP_WRITE
 1533              	.LVL166:
 529:.\w5100.c     **** 	IINCHIP_WRITE((Sn_DHAR0(s) + 1),addr[1]);
 1534              		.loc 1 529 0
 1535 0014 EA1D     		add	r2, r5, #7
 1536 0016 90B2     		uxth	r0, r2
 1537 0018 6178     		ldrb	r1, [r4, #1]
 1538 001a FFF7FEFF 		bl	IINCHIP_WRITE
 1539              	.LVL167:
 530:.\w5100.c     **** 	IINCHIP_WRITE((Sn_DHAR0(s) + 2),addr[2]);
 1540              		.loc 1 530 0
 1541 001e 2B1C     		mov	r3, r5
 1542 0020 0833     		add	r3, r3, #8
 1543 0022 98B2     		uxth	r0, r3
 1544 0024 A178     		ldrb	r1, [r4, #2]
 1545 0026 FFF7FEFF 		bl	IINCHIP_WRITE
 1546              	.LVL168:
 531:.\w5100.c     **** 	IINCHIP_WRITE((Sn_DHAR0(s) + 3),addr[3]);
 1547              		.loc 1 531 0
 1548 002a 281C     		mov	r0, r5
 1549 002c 0930     		add	r0, r0, #9
 1550 002e E178     		ldrb	r1, [r4, #3]
 1551 0030 80B2     		uxth	r0, r0
 1552 0032 FFF7FEFF 		bl	IINCHIP_WRITE
 1553              	.LVL169:
 532:.\w5100.c     **** 	IINCHIP_WRITE((Sn_DHAR0(s) + 4),addr[4]);
 1554              		.loc 1 532 0
 1555 0036 291C     		mov	r1, r5
 1556 0038 0A31     		add	r1, r1, #10
 533:.\w5100.c     **** 	IINCHIP_WRITE((Sn_DHAR0(s) + 5),addr[5]);
 1557              		.loc 1 533 0
 1558 003a 0B35     		add	r5, r5, #11
 532:.\w5100.c     **** 	IINCHIP_WRITE((Sn_DHAR0(s) + 4),addr[4]);
 1559              		.loc 1 532 0
 1560 003c 88B2     		uxth	r0, r1
 1561 003e 2179     		ldrb	r1, [r4, #4]
 1562 0040 FFF7FEFF 		bl	IINCHIP_WRITE
 1563              	.LVL170:
 1564              		.loc 1 533 0
 1565 0044 A8B2     		uxth	r0, r5
 1566 0046 6179     		ldrb	r1, [r4, #5]
 1567 0048 FFF7FEFF 		bl	IINCHIP_WRITE
 1568              	.LVL171:
 534:.\w5100.c     **** }
 1569              		.loc 1 534 0
 1570              		@ sp needed for prologue
 1571              	.LVL172:
 1572 004c 38BD     		pop	{r3, r4, r5, pc}
 1573              		.cfi_endproc
 1574              	.LFE63:
 1575              		.size	setSn_DHAR, .-setSn_DHAR
 1576              		.section	.text.getSn_DIPR,"ax",%progbits
 1577              		.align	1
 1578              		.global	getSn_DIPR
 1579              		.code	16
ARM GAS  C:\Users\atsu\AppData\Local\Temp\cc7os1vl.s 			page 39


 1580              		.thumb_func
 1581              		.type	getSn_DIPR, %function
 1582              	getSn_DIPR:
 1583              	.LFB64:
 535:.\w5100.c     **** void getSn_DIPR(SOCKET s, uint8 * addr)
 536:.\w5100.c     **** {
 1584              		.loc 1 536 0
 1585              		.cfi_startproc
 1586              	.LVL173:
 1587 0000 38B5     		push	{r3, r4, r5, lr}
 1588              	.LCFI24:
 1589              		.cfi_def_cfa_offset 16
 1590              		.cfi_offset 3, -16
 1591              		.cfi_offset 4, -12
 1592              		.cfi_offset 5, -8
 1593              		.cfi_offset 14, -4
 537:.\w5100.c     **** 	addr[0] = IINCHIP_READ(Sn_DIPR0(s));
 1594              		.loc 1 537 0
 1595 0002 051D     		add	r5, r0, #4
 1596 0004 2802     		lsl	r0, r5, #8
 1597              	.LVL174:
 1598 0006 85B2     		uxth	r5, r0
 536:.\w5100.c     **** {
 1599              		.loc 1 536 0
 1600 0008 0C1C     		mov	r4, r1
 1601              		.loc 1 537 0
 1602 000a 291C     		mov	r1, r5
 1603              	.LVL175:
 1604 000c 0C31     		add	r1, r1, #12
 1605 000e 88B2     		uxth	r0, r1
 1606 0010 FFF7FEFF 		bl	IINCHIP_READ
 1607              	.LVL176:
 538:.\w5100.c     **** 	addr[1] = IINCHIP_READ(Sn_DIPR0(s)+1);
 1608              		.loc 1 538 0
 1609 0014 2A1C     		mov	r2, r5
 1610 0016 0D32     		add	r2, r2, #13
 537:.\w5100.c     **** 	addr[0] = IINCHIP_READ(Sn_DIPR0(s));
 1611              		.loc 1 537 0
 1612 0018 2070     		strb	r0, [r4]
 1613              		.loc 1 538 0
 1614 001a 90B2     		uxth	r0, r2
 1615 001c FFF7FEFF 		bl	IINCHIP_READ
 1616              	.LVL177:
 539:.\w5100.c     **** 	addr[2] = IINCHIP_READ(Sn_DIPR0(s)+2);
 1617              		.loc 1 539 0
 1618 0020 2B1C     		mov	r3, r5
 1619 0022 0E33     		add	r3, r3, #14
 538:.\w5100.c     **** 	addr[1] = IINCHIP_READ(Sn_DIPR0(s)+1);
 1620              		.loc 1 538 0
 1621 0024 6070     		strb	r0, [r4, #1]
 1622              		.loc 1 539 0
 1623 0026 98B2     		uxth	r0, r3
 1624 0028 FFF7FEFF 		bl	IINCHIP_READ
 1625              	.LVL178:
 540:.\w5100.c     **** 	addr[3] = IINCHIP_READ(Sn_DIPR0(s)+3);
 1626              		.loc 1 540 0
 1627 002c 0F35     		add	r5, r5, #15
ARM GAS  C:\Users\atsu\AppData\Local\Temp\cc7os1vl.s 			page 40


 539:.\w5100.c     **** 	addr[2] = IINCHIP_READ(Sn_DIPR0(s)+2);
 1628              		.loc 1 539 0
 1629 002e A070     		strb	r0, [r4, #2]
 1630              		.loc 1 540 0
 1631 0030 A8B2     		uxth	r0, r5
 1632 0032 FFF7FEFF 		bl	IINCHIP_READ
 1633              	.LVL179:
 541:.\w5100.c     **** }
 1634              		.loc 1 541 0
 1635              		@ sp needed for prologue
 540:.\w5100.c     **** 	addr[3] = IINCHIP_READ(Sn_DIPR0(s)+3);
 1636              		.loc 1 540 0
 1637 0036 E070     		strb	r0, [r4, #3]
 1638              	.LVL180:
 1639              		.loc 1 541 0
 1640 0038 38BD     		pop	{r3, r4, r5, pc}
 1641              		.cfi_endproc
 1642              	.LFE64:
 1643              		.size	getSn_DIPR, .-getSn_DIPR
 1644              		.section	.text.setSn_DIPR,"ax",%progbits
 1645              		.align	1
 1646              		.global	setSn_DIPR
 1647              		.code	16
 1648              		.thumb_func
 1649              		.type	setSn_DIPR, %function
 1650              	setSn_DIPR:
 1651              	.LFB65:
 542:.\w5100.c     **** void setSn_DIPR(SOCKET s, uint8 * addr)
 543:.\w5100.c     **** {
 1652              		.loc 1 543 0
 1653              		.cfi_startproc
 1654              	.LVL181:
 1655 0000 38B5     		push	{r3, r4, r5, lr}
 1656              	.LCFI25:
 1657              		.cfi_def_cfa_offset 16
 1658              		.cfi_offset 3, -16
 1659              		.cfi_offset 4, -12
 1660              		.cfi_offset 5, -8
 1661              		.cfi_offset 14, -4
 544:.\w5100.c     **** 	IINCHIP_WRITE((Sn_DIPR0(s) + 0),addr[0]);
 1662              		.loc 1 544 0
 1663 0002 051D     		add	r5, r0, #4
 1664 0004 2802     		lsl	r0, r5, #8
 1665              	.LVL182:
 1666 0006 85B2     		uxth	r5, r0
 543:.\w5100.c     **** {
 1667              		.loc 1 543 0
 1668 0008 0C1C     		mov	r4, r1
 1669              		.loc 1 544 0
 1670 000a 291C     		mov	r1, r5
 1671              	.LVL183:
 1672 000c 0C31     		add	r1, r1, #12
 1673 000e 88B2     		uxth	r0, r1
 1674 0010 2178     		ldrb	r1, [r4]
 1675 0012 FFF7FEFF 		bl	IINCHIP_WRITE
 1676              	.LVL184:
 545:.\w5100.c     **** 	IINCHIP_WRITE((Sn_DIPR0(s) + 1),addr[1]);
ARM GAS  C:\Users\atsu\AppData\Local\Temp\cc7os1vl.s 			page 41


 1677              		.loc 1 545 0
 1678 0016 2A1C     		mov	r2, r5
 1679 0018 0D32     		add	r2, r2, #13
 1680 001a 90B2     		uxth	r0, r2
 1681 001c 6178     		ldrb	r1, [r4, #1]
 1682 001e FFF7FEFF 		bl	IINCHIP_WRITE
 1683              	.LVL185:
 546:.\w5100.c     **** 	IINCHIP_WRITE((Sn_DIPR0(s) + 2),addr[2]);
 1684              		.loc 1 546 0
 1685 0022 2B1C     		mov	r3, r5
 1686 0024 0E33     		add	r3, r3, #14
 1687 0026 98B2     		uxth	r0, r3
 1688 0028 A178     		ldrb	r1, [r4, #2]
 547:.\w5100.c     **** 	IINCHIP_WRITE((Sn_DIPR0(s) + 3),addr[3]);
 1689              		.loc 1 547 0
 1690 002a 0F35     		add	r5, r5, #15
 546:.\w5100.c     **** 	IINCHIP_WRITE((Sn_DIPR0(s) + 2),addr[2]);
 1691              		.loc 1 546 0
 1692 002c FFF7FEFF 		bl	IINCHIP_WRITE
 1693              	.LVL186:
 1694              		.loc 1 547 0
 1695 0030 A8B2     		uxth	r0, r5
 1696 0032 E178     		ldrb	r1, [r4, #3]
 1697 0034 FFF7FEFF 		bl	IINCHIP_WRITE
 1698              	.LVL187:
 548:.\w5100.c     **** }
 1699              		.loc 1 548 0
 1700              		@ sp needed for prologue
 1701              	.LVL188:
 1702 0038 38BD     		pop	{r3, r4, r5, pc}
 1703              		.cfi_endproc
 1704              	.LFE65:
 1705              		.size	setSn_DIPR, .-setSn_DIPR
 1706              		.section	.text.getSn_DPORT,"ax",%progbits
 1707              		.align	1
 1708              		.global	getSn_DPORT
 1709              		.code	16
 1710              		.thumb_func
 1711              		.type	getSn_DPORT, %function
 1712              	getSn_DPORT:
 1713              	.LFB66:
 549:.\w5100.c     **** void getSn_DPORT(SOCKET s, uint8 * addr)
 550:.\w5100.c     **** {
 1714              		.loc 1 550 0
 1715              		.cfi_startproc
 1716              	.LVL189:
 1717 0000 38B5     		push	{r3, r4, r5, lr}
 1718              	.LCFI26:
 1719              		.cfi_def_cfa_offset 16
 1720              		.cfi_offset 3, -16
 1721              		.cfi_offset 4, -12
 1722              		.cfi_offset 5, -8
 1723              		.cfi_offset 14, -4
 551:.\w5100.c     **** 	addr[0] = IINCHIP_READ(Sn_DPORT0(s));
 1724              		.loc 1 551 0
 1725 0002 051D     		add	r5, r0, #4
 1726 0004 2802     		lsl	r0, r5, #8
ARM GAS  C:\Users\atsu\AppData\Local\Temp\cc7os1vl.s 			page 42


 1727              	.LVL190:
 1728 0006 85B2     		uxth	r5, r0
 550:.\w5100.c     **** {
 1729              		.loc 1 550 0
 1730 0008 0C1C     		mov	r4, r1
 1731              		.loc 1 551 0
 1732 000a 291C     		mov	r1, r5
 1733              	.LVL191:
 1734 000c 1031     		add	r1, r1, #16
 1735 000e 88B2     		uxth	r0, r1
 1736 0010 FFF7FEFF 		bl	IINCHIP_READ
 1737              	.LVL192:
 552:.\w5100.c     **** 	addr[1] = IINCHIP_READ(Sn_DPORT0(s)+1);
 1738              		.loc 1 552 0
 1739 0014 1135     		add	r5, r5, #17
 551:.\w5100.c     **** 	addr[0] = IINCHIP_READ(Sn_DPORT0(s));
 1740              		.loc 1 551 0
 1741 0016 2070     		strb	r0, [r4]
 1742              		.loc 1 552 0
 1743 0018 A8B2     		uxth	r0, r5
 1744 001a FFF7FEFF 		bl	IINCHIP_READ
 1745              	.LVL193:
 553:.\w5100.c     **** }
 1746              		.loc 1 553 0
 1747              		@ sp needed for prologue
 552:.\w5100.c     **** 	addr[1] = IINCHIP_READ(Sn_DPORT0(s)+1);
 1748              		.loc 1 552 0
 1749 001e 6070     		strb	r0, [r4, #1]
 1750              	.LVL194:
 1751              		.loc 1 553 0
 1752 0020 38BD     		pop	{r3, r4, r5, pc}
 1753              		.cfi_endproc
 1754              	.LFE66:
 1755              		.size	getSn_DPORT, .-getSn_DPORT
 1756              		.section	.text.setSn_DPORT,"ax",%progbits
 1757              		.align	1
 1758              		.global	setSn_DPORT
 1759              		.code	16
 1760              		.thumb_func
 1761              		.type	setSn_DPORT, %function
 1762              	setSn_DPORT:
 1763              	.LFB67:
 554:.\w5100.c     **** void setSn_DPORT(SOCKET s, uint8 * addr)
 555:.\w5100.c     **** {
 1764              		.loc 1 555 0
 1765              		.cfi_startproc
 1766              	.LVL195:
 1767 0000 38B5     		push	{r3, r4, r5, lr}
 1768              	.LCFI27:
 1769              		.cfi_def_cfa_offset 16
 1770              		.cfi_offset 3, -16
 1771              		.cfi_offset 4, -12
 1772              		.cfi_offset 5, -8
 1773              		.cfi_offset 14, -4
 556:.\w5100.c     **** 	IINCHIP_WRITE((Sn_DPORT0(s) + 0),addr[0]);
 1774              		.loc 1 556 0
 1775 0002 051D     		add	r5, r0, #4
ARM GAS  C:\Users\atsu\AppData\Local\Temp\cc7os1vl.s 			page 43


 1776 0004 2802     		lsl	r0, r5, #8
 1777              	.LVL196:
 1778 0006 85B2     		uxth	r5, r0
 555:.\w5100.c     **** {
 1779              		.loc 1 555 0
 1780 0008 0C1C     		mov	r4, r1
 1781              		.loc 1 556 0
 1782 000a 291C     		mov	r1, r5
 1783              	.LVL197:
 1784 000c 1031     		add	r1, r1, #16
 557:.\w5100.c     **** 	IINCHIP_WRITE((Sn_DPORT0(s) + 1),addr[1]);
 1785              		.loc 1 557 0
 1786 000e 1135     		add	r5, r5, #17
 556:.\w5100.c     **** 	IINCHIP_WRITE((Sn_DPORT0(s) + 0),addr[0]);
 1787              		.loc 1 556 0
 1788 0010 88B2     		uxth	r0, r1
 1789 0012 2178     		ldrb	r1, [r4]
 1790 0014 FFF7FEFF 		bl	IINCHIP_WRITE
 1791              	.LVL198:
 1792              		.loc 1 557 0
 1793 0018 A8B2     		uxth	r0, r5
 1794 001a 6178     		ldrb	r1, [r4, #1]
 1795 001c FFF7FEFF 		bl	IINCHIP_WRITE
 1796              	.LVL199:
 558:.\w5100.c     **** }
 1797              		.loc 1 558 0
 1798              		@ sp needed for prologue
 1799              	.LVL200:
 1800 0020 38BD     		pop	{r3, r4, r5, pc}
 1801              		.cfi_endproc
 1802              	.LFE67:
 1803              		.size	setSn_DPORT, .-setSn_DPORT
 1804              		.section	.text.setSn_MSS,"ax",%progbits
 1805              		.align	1
 1806              		.global	setSn_MSS
 1807              		.code	16
 1808              		.thumb_func
 1809              		.type	setSn_MSS, %function
 1810              	setSn_MSS:
 1811              	.LFB68:
 559:.\w5100.c     **** 
 560:.\w5100.c     **** 
 561:.\w5100.c     **** /**
 562:.\w5100.c     **** @brief	This sets the maximum segment size of TCP in Active Mode), while in Passive Mode this is set
 563:.\w5100.c     **** */
 564:.\w5100.c     **** void setSn_MSS(SOCKET s, uint16 Sn_MSSR0)
 565:.\w5100.c     **** {
 1812              		.loc 1 565 0
 1813              		.cfi_startproc
 1814              	.LVL201:
 1815 0000 38B5     		push	{r3, r4, r5, lr}
 1816              	.LCFI28:
 1817              		.cfi_def_cfa_offset 16
 1818              		.cfi_offset 3, -16
 1819              		.cfi_offset 4, -12
 1820              		.cfi_offset 5, -8
 1821              		.cfi_offset 14, -4
ARM GAS  C:\Users\atsu\AppData\Local\Temp\cc7os1vl.s 			page 44


 566:.\w5100.c     **** 	IINCHIP_WRITE(Sn_MSSR0(s),(uint8)((Sn_MSSR0 & 0xff00) >> 8));
 1822              		.loc 1 566 0
 1823 0002 051D     		add	r5, r0, #4
 1824 0004 2802     		lsl	r0, r5, #8
 1825              	.LVL202:
 1826 0006 85B2     		uxth	r5, r0
 565:.\w5100.c     **** {
 1827              		.loc 1 565 0
 1828 0008 0C1C     		mov	r4, r1
 1829              		.loc 1 566 0
 1830 000a 291C     		mov	r1, r5
 1831              	.LVL203:
 1832 000c 1231     		add	r1, r1, #18
 567:.\w5100.c     **** 	IINCHIP_WRITE((Sn_MSSR0(s) + 1),(uint8)(Sn_MSSR0 & 0x00ff));
 1833              		.loc 1 567 0
 1834 000e 1335     		add	r5, r5, #19
 566:.\w5100.c     **** 	IINCHIP_WRITE(Sn_MSSR0(s),(uint8)((Sn_MSSR0 & 0xff00) >> 8));
 1835              		.loc 1 566 0
 1836 0010 88B2     		uxth	r0, r1
 1837 0012 210A     		lsr	r1, r4, #8
 1838 0014 FFF7FEFF 		bl	IINCHIP_WRITE
 1839              	.LVL204:
 1840              		.loc 1 567 0
 1841 0018 A8B2     		uxth	r0, r5
 1842 001a E1B2     		uxtb	r1, r4
 1843 001c FFF7FEFF 		bl	IINCHIP_WRITE
 1844              	.LVL205:
 568:.\w5100.c     **** }
 1845              		.loc 1 568 0
 1846              		@ sp needed for prologue
 1847 0020 38BD     		pop	{r3, r4, r5, pc}
 1848              		.cfi_endproc
 1849              	.LFE68:
 1850              		.size	setSn_MSS, .-setSn_MSS
 1851              		.section	.text.setSn_TTL,"ax",%progbits
 1852              		.align	1
 1853              		.global	setSn_TTL
 1854              		.code	16
 1855              		.thumb_func
 1856              		.type	setSn_TTL, %function
 1857              	setSn_TTL:
 1858              	.LFB69:
 569:.\w5100.c     **** 
 570:.\w5100.c     **** void setSn_TTL(SOCKET s, uint8 ttl)
 571:.\w5100.c     **** {
 1859              		.loc 1 571 0
 1860              		.cfi_startproc
 1861              	.LVL206:
 1862 0000 08B5     		push	{r3, lr}
 1863              	.LCFI29:
 1864              		.cfi_def_cfa_offset 8
 1865              		.cfi_offset 3, -8
 1866              		.cfi_offset 14, -4
 572:.\w5100.c     ****    IINCHIP_WRITE(Sn_TTL(s), ttl);
 1867              		.loc 1 572 0
 1868 0002 034B     		ldr	r3, .L81
 1869 0004 0002     		lsl	r0, r0, #8
ARM GAS  C:\Users\atsu\AppData\Local\Temp\cc7os1vl.s 			page 45


 1870              	.LVL207:
 1871 0006 C218     		add	r2, r0, r3
 1872 0008 90B2     		uxth	r0, r2
 1873 000a FFF7FEFF 		bl	IINCHIP_WRITE
 1874              	.LVL208:
 573:.\w5100.c     **** }
 1875              		.loc 1 573 0
 1876              		@ sp needed for prologue
 1877 000e 08BD     		pop	{r3, pc}
 1878              	.L82:
 1879              		.align	2
 1880              	.L81:
 1881 0010 16040000 		.word	1046
 1882              		.cfi_endproc
 1883              	.LFE69:
 1884              		.size	setSn_TTL, .-setSn_TTL
 1885              		.section	.text.setSn_PROTO,"ax",%progbits
 1886              		.align	1
 1887              		.global	setSn_PROTO
 1888              		.code	16
 1889              		.thumb_func
 1890              		.type	setSn_PROTO, %function
 1891              	setSn_PROTO:
 1892              	.LFB70:
 574:.\w5100.c     **** 
 575:.\w5100.c     **** 
 576:.\w5100.c     **** /**
 577:.\w5100.c     **** @brief	These below function is used to setup the Protocol Field of IP Header when
 578:.\w5100.c     **** 		executing the IP Layer RAW mode.
 579:.\w5100.c     **** */
 580:.\w5100.c     **** void setSn_PROTO(SOCKET s, uint8 proto)
 581:.\w5100.c     **** {
 1893              		.loc 1 581 0
 1894              		.cfi_startproc
 1895              	.LVL209:
 1896 0000 08B5     		push	{r3, lr}
 1897              	.LCFI30:
 1898              		.cfi_def_cfa_offset 8
 1899              		.cfi_offset 3, -8
 1900              		.cfi_offset 14, -4
 582:.\w5100.c     **** 	IINCHIP_WRITE(Sn_PROTO(s),proto);
 1901              		.loc 1 582 0
 1902 0002 034B     		ldr	r3, .L84
 1903 0004 0002     		lsl	r0, r0, #8
 1904              	.LVL210:
 1905 0006 C218     		add	r2, r0, r3
 1906 0008 90B2     		uxth	r0, r2
 1907 000a FFF7FEFF 		bl	IINCHIP_WRITE
 1908              	.LVL211:
 583:.\w5100.c     **** }
 1909              		.loc 1 583 0
 1910              		@ sp needed for prologue
 1911 000e 08BD     		pop	{r3, pc}
 1912              	.L85:
 1913              		.align	2
 1914              	.L84:
 1915 0010 14040000 		.word	1044
ARM GAS  C:\Users\atsu\AppData\Local\Temp\cc7os1vl.s 			page 46


 1916              		.cfi_endproc
 1917              	.LFE70:
 1918              		.size	setSn_PROTO, .-setSn_PROTO
 1919              		.section	.text.getSn_IR,"ax",%progbits
 1920              		.align	1
 1921              		.global	getSn_IR
 1922              		.code	16
 1923              		.thumb_func
 1924              		.type	getSn_IR, %function
 1925              	getSn_IR:
 1926              	.LFB71:
 584:.\w5100.c     **** 
 585:.\w5100.c     **** 
 586:.\w5100.c     **** /**
 587:.\w5100.c     **** @brief	get socket interrupt status
 588:.\w5100.c     **** 
 589:.\w5100.c     **** These below functions are used to read the Interrupt & Soket Status register
 590:.\w5100.c     **** */
 591:.\w5100.c     **** uint8 getSn_IR(SOCKET s)
 592:.\w5100.c     **** {
 1927              		.loc 1 592 0
 1928              		.cfi_startproc
 1929              	.LVL212:
 1930 0000 08B5     		push	{r3, lr}
 1931              	.LCFI31:
 1932              		.cfi_def_cfa_offset 8
 1933              		.cfi_offset 3, -8
 1934              		.cfi_offset 14, -4
 593:.\w5100.c     ****    return IINCHIP_READ(Sn_IR(s));
 1935              		.loc 1 593 0
 1936 0002 034B     		ldr	r3, .L87
 1937 0004 0002     		lsl	r0, r0, #8
 1938              	.LVL213:
 1939 0006 C118     		add	r1, r0, r3
 1940 0008 88B2     		uxth	r0, r1
 1941 000a FFF7FEFF 		bl	IINCHIP_READ
 1942              	.LVL214:
 594:.\w5100.c     **** }
 1943              		.loc 1 594 0
 1944              		@ sp needed for prologue
 1945 000e 08BD     		pop	{r3, pc}
 1946              	.L88:
 1947              		.align	2
 1948              	.L87:
 1949 0010 02040000 		.word	1026
 1950              		.cfi_endproc
 1951              	.LFE71:
 1952              		.size	getSn_IR, .-getSn_IR
 1953              		.section	.text.getSn_SR,"ax",%progbits
 1954              		.align	1
 1955              		.global	getSn_SR
 1956              		.code	16
 1957              		.thumb_func
 1958              		.type	getSn_SR, %function
 1959              	getSn_SR:
 1960              	.LFB72:
 595:.\w5100.c     **** 
ARM GAS  C:\Users\atsu\AppData\Local\Temp\cc7os1vl.s 			page 47


 596:.\w5100.c     **** 
 597:.\w5100.c     **** /**
 598:.\w5100.c     **** @brief	 get socket status
 599:.\w5100.c     **** */
 600:.\w5100.c     **** uint8 getSn_SR(SOCKET s)
 601:.\w5100.c     **** {
 1961              		.loc 1 601 0
 1962              		.cfi_startproc
 1963              	.LVL215:
 1964 0000 08B5     		push	{r3, lr}
 1965              	.LCFI32:
 1966              		.cfi_def_cfa_offset 8
 1967              		.cfi_offset 3, -8
 1968              		.cfi_offset 14, -4
 602:.\w5100.c     ****    return IINCHIP_READ(Sn_SR(s));
 1969              		.loc 1 602 0
 1970 0002 034B     		ldr	r3, .L90
 1971 0004 0002     		lsl	r0, r0, #8
 1972              	.LVL216:
 1973 0006 C118     		add	r1, r0, r3
 1974 0008 88B2     		uxth	r0, r1
 1975 000a FFF7FEFF 		bl	IINCHIP_READ
 1976              	.LVL217:
 603:.\w5100.c     **** }
 1977              		.loc 1 603 0
 1978              		@ sp needed for prologue
 1979 000e 08BD     		pop	{r3, pc}
 1980              	.L91:
 1981              		.align	2
 1982              	.L90:
 1983 0010 03040000 		.word	1027
 1984              		.cfi_endproc
 1985              	.LFE72:
 1986              		.size	getSn_SR, .-getSn_SR
 1987              		.section	.text.getSn_TX_FSR,"ax",%progbits
 1988              		.align	1
 1989              		.global	getSn_TX_FSR
 1990              		.code	16
 1991              		.thumb_func
 1992              		.type	getSn_TX_FSR, %function
 1993              	getSn_TX_FSR:
 1994              	.LFB73:
 604:.\w5100.c     **** 
 605:.\w5100.c     **** 
 606:.\w5100.c     **** /**
 607:.\w5100.c     **** @brief	get socket TX free buf size
 608:.\w5100.c     **** 
 609:.\w5100.c     **** This gives free buffer size of transmit buffer. This is the data size that user can transmit.
 610:.\w5100.c     **** User shuold check this value first and control the size of transmitting data
 611:.\w5100.c     **** */
 612:.\w5100.c     **** uint16 getSn_TX_FSR(SOCKET s)
 613:.\w5100.c     **** {
 1995              		.loc 1 613 0
 1996              		.cfi_startproc
 1997              	.LVL218:
 1998 0000 F8B5     		push	{r3, r4, r5, r6, r7, lr}
 1999              	.LCFI33:
ARM GAS  C:\Users\atsu\AppData\Local\Temp\cc7os1vl.s 			page 48


 2000              		.cfi_def_cfa_offset 24
 2001              		.cfi_offset 3, -24
 2002              		.cfi_offset 4, -20
 2003              		.cfi_offset 5, -16
 2004              		.cfi_offset 6, -12
 2005              		.cfi_offset 7, -8
 2006              		.cfi_offset 14, -4
 614:.\w5100.c     **** 	uint16 val=0,val1=0;
 615:.\w5100.c     **** 	do
 616:.\w5100.c     **** 	{
 617:.\w5100.c     **** 		val1 = IINCHIP_READ(Sn_TX_FSR0(s));
 2007              		.loc 1 617 0
 2008 0002 071D     		add	r7, r0, #4
 2009 0004 3802     		lsl	r0, r7, #8
 2010              	.LVL219:
 2011 0006 81B2     		uxth	r1, r0
 2012 0008 0E1C     		mov	r6, r1
 2013 000a 2036     		add	r6, r6, #32
 618:.\w5100.c     **** 		val1 = (val1 << 8) + IINCHIP_READ(Sn_TX_FSR0(s) + 1);
 2014              		.loc 1 618 0
 2015 000c 2131     		add	r1, r1, #33
 617:.\w5100.c     **** 		val1 = IINCHIP_READ(Sn_TX_FSR0(s));
 2016              		.loc 1 617 0
 2017 000e B6B2     		uxth	r6, r6
 2018              		.loc 1 618 0
 2019 0010 8FB2     		uxth	r7, r1
 614:.\w5100.c     **** 	uint16 val=0,val1=0;
 2020              		.loc 1 614 0
 2021 0012 0024     		mov	r4, #0
 2022              	.LVL220:
 2023              	.L94:
 617:.\w5100.c     **** 		val1 = IINCHIP_READ(Sn_TX_FSR0(s));
 2024              		.loc 1 617 0
 2025 0014 301C     		mov	r0, r6
 2026 0016 FFF7FEFF 		bl	IINCHIP_READ
 2027              	.LVL221:
 2028              		.loc 1 618 0
 2029 001a 0502     		lsl	r5, r0, #8
 2030 001c 381C     		mov	r0, r7
 2031              	.LVL222:
 2032 001e FFF7FEFF 		bl	IINCHIP_READ
 2033              	.LVL223:
 2034 0022 ADB2     		uxth	r5, r5
 2035 0024 2A18     		add	r2, r5, r0
 2036 0026 95B2     		uxth	r5, r2
 2037              	.LVL224:
 619:.\w5100.c     ****       if (val1 != 0)
 2038              		.loc 1 619 0
 2039 0028 002D     		cmp	r5, #0
 2040 002a 09D0     		beq	.L93
 620:.\w5100.c     **** 		{
 621:.\w5100.c     ****    			val = IINCHIP_READ(Sn_TX_FSR0(s));
 2041              		.loc 1 621 0
 2042 002c 301C     		mov	r0, r6
 2043 002e FFF7FEFF 		bl	IINCHIP_READ
 2044              	.LVL225:
 622:.\w5100.c     ****    			val = (val << 8) + IINCHIP_READ(Sn_TX_FSR0(s) + 1);
ARM GAS  C:\Users\atsu\AppData\Local\Temp\cc7os1vl.s 			page 49


 2045              		.loc 1 622 0
 2046 0032 0402     		lsl	r4, r0, #8
 2047 0034 381C     		mov	r0, r7
 2048              	.LVL226:
 2049 0036 FFF7FEFF 		bl	IINCHIP_READ
 2050              	.LVL227:
 2051 003a A4B2     		uxth	r4, r4
 2052 003c 2318     		add	r3, r4, r0
 2053 003e 9CB2     		uxth	r4, r3
 2054              	.LVL228:
 2055              	.L93:
 623:.\w5100.c     **** 		}
 624:.\w5100.c     **** 	} while (val != val1);
 2056              		.loc 1 624 0
 2057 0040 AC42     		cmp	r4, r5
 2058 0042 E7D1     		bne	.L94
 625:.\w5100.c     ****    return val;
 626:.\w5100.c     **** }
 2059              		.loc 1 626 0
 2060 0044 201C     		mov	r0, r4
 2061              		@ sp needed for prologue
 2062              	.LVL229:
 2063              	.LVL230:
 2064 0046 F8BD     		pop	{r3, r4, r5, r6, r7, pc}
 2065              		.cfi_endproc
 2066              	.LFE73:
 2067              		.size	getSn_TX_FSR, .-getSn_TX_FSR
 2068              		.section	.text.getSn_RX_RSR,"ax",%progbits
 2069              		.align	1
 2070              		.global	getSn_RX_RSR
 2071              		.code	16
 2072              		.thumb_func
 2073              		.type	getSn_RX_RSR, %function
 2074              	getSn_RX_RSR:
 2075              	.LFB74:
 627:.\w5100.c     **** 
 628:.\w5100.c     **** 
 629:.\w5100.c     **** /**
 630:.\w5100.c     **** @brief	 get socket RX recv buf size
 631:.\w5100.c     **** 
 632:.\w5100.c     **** This gives size of received data in receive buffer. 
 633:.\w5100.c     **** */
 634:.\w5100.c     **** uint16 getSn_RX_RSR(SOCKET s)
 635:.\w5100.c     **** {
 2076              		.loc 1 635 0
 2077              		.cfi_startproc
 2078              	.LVL231:
 2079 0000 F8B5     		push	{r3, r4, r5, r6, r7, lr}
 2080              	.LCFI34:
 2081              		.cfi_def_cfa_offset 24
 2082              		.cfi_offset 3, -24
 2083              		.cfi_offset 4, -20
 2084              		.cfi_offset 5, -16
 2085              		.cfi_offset 6, -12
 2086              		.cfi_offset 7, -8
 2087              		.cfi_offset 14, -4
 636:.\w5100.c     **** 	uint16 val=0,val1=0;
ARM GAS  C:\Users\atsu\AppData\Local\Temp\cc7os1vl.s 			page 50


 637:.\w5100.c     **** 	do
 638:.\w5100.c     **** 	{
 639:.\w5100.c     **** 		val1 = IINCHIP_READ(Sn_RX_RSR0(s));
 2088              		.loc 1 639 0
 2089 0002 071D     		add	r7, r0, #4
 2090 0004 3802     		lsl	r0, r7, #8
 2091              	.LVL232:
 2092 0006 81B2     		uxth	r1, r0
 2093 0008 0E1C     		mov	r6, r1
 2094 000a 2636     		add	r6, r6, #38
 640:.\w5100.c     **** 		val1 = (val1 << 8) + IINCHIP_READ(Sn_RX_RSR0(s) + 1);
 2095              		.loc 1 640 0
 2096 000c 2731     		add	r1, r1, #39
 639:.\w5100.c     **** 		val1 = IINCHIP_READ(Sn_RX_RSR0(s));
 2097              		.loc 1 639 0
 2098 000e B6B2     		uxth	r6, r6
 2099              		.loc 1 640 0
 2100 0010 8FB2     		uxth	r7, r1
 636:.\w5100.c     **** 	uint16 val=0,val1=0;
 2101              		.loc 1 636 0
 2102 0012 0024     		mov	r4, #0
 2103              	.LVL233:
 2104              	.L101:
 639:.\w5100.c     **** 		val1 = IINCHIP_READ(Sn_RX_RSR0(s));
 2105              		.loc 1 639 0
 2106 0014 301C     		mov	r0, r6
 2107 0016 FFF7FEFF 		bl	IINCHIP_READ
 2108              	.LVL234:
 2109              		.loc 1 640 0
 2110 001a 0502     		lsl	r5, r0, #8
 2111 001c 381C     		mov	r0, r7
 2112              	.LVL235:
 2113 001e FFF7FEFF 		bl	IINCHIP_READ
 2114              	.LVL236:
 2115 0022 ADB2     		uxth	r5, r5
 2116 0024 2A18     		add	r2, r5, r0
 2117 0026 95B2     		uxth	r5, r2
 2118              	.LVL237:
 641:.\w5100.c     ****       if(val1 != 0)
 2119              		.loc 1 641 0
 2120 0028 002D     		cmp	r5, #0
 2121 002a 09D0     		beq	.L100
 642:.\w5100.c     **** 		{
 643:.\w5100.c     ****    			val = IINCHIP_READ(Sn_RX_RSR0(s));
 2122              		.loc 1 643 0
 2123 002c 301C     		mov	r0, r6
 2124 002e FFF7FEFF 		bl	IINCHIP_READ
 2125              	.LVL238:
 644:.\w5100.c     ****    			val = (val << 8) + IINCHIP_READ(Sn_RX_RSR0(s) + 1);
 2126              		.loc 1 644 0
 2127 0032 0402     		lsl	r4, r0, #8
 2128 0034 381C     		mov	r0, r7
 2129              	.LVL239:
 2130 0036 FFF7FEFF 		bl	IINCHIP_READ
 2131              	.LVL240:
 2132 003a A4B2     		uxth	r4, r4
 2133 003c 2318     		add	r3, r4, r0
ARM GAS  C:\Users\atsu\AppData\Local\Temp\cc7os1vl.s 			page 51


 2134 003e 9CB2     		uxth	r4, r3
 2135              	.LVL241:
 2136              	.L100:
 645:.\w5100.c     **** 		}
 646:.\w5100.c     **** 	} while (val != val1);
 2137              		.loc 1 646 0
 2138 0040 AC42     		cmp	r4, r5
 2139 0042 E7D1     		bne	.L101
 647:.\w5100.c     ****    return val;
 648:.\w5100.c     **** }
 2140              		.loc 1 648 0
 2141 0044 201C     		mov	r0, r4
 2142              		@ sp needed for prologue
 2143              	.LVL242:
 2144              	.LVL243:
 2145 0046 F8BD     		pop	{r3, r4, r5, r6, r7, pc}
 2146              		.cfi_endproc
 2147              	.LFE74:
 2148              		.size	getSn_RX_RSR, .-getSn_RX_RSR
 2149              		.section	.text.write_data,"ax",%progbits
 2150              		.align	1
 2151              		.global	write_data
 2152              		.code	16
 2153              		.thumb_func
 2154              		.type	write_data, %function
 2155              	write_data:
 2156              	.LFB77:
 649:.\w5100.c     **** 
 650:.\w5100.c     **** 
 651:.\w5100.c     **** /**
 652:.\w5100.c     **** @brief	 This function is being called by send() and sendto() function also. 
 653:.\w5100.c     **** 
 654:.\w5100.c     **** This function read the Tx write pointer register and after copy the data in buffer update the Tx wr
 655:.\w5100.c     **** register. User should read upper uint8 first and lower uint8 later to get proper value.
 656:.\w5100.c     **** */
 657:.\w5100.c     **** void send_data_processing(SOCKET s, uint8 *data, uint16 len)
 658:.\w5100.c     **** {
 659:.\w5100.c     **** 	uint16 ptr;
 660:.\w5100.c     **** 	ptr = IINCHIP_READ(Sn_TX_WR0(s));
 661:.\w5100.c     **** 	ptr = ((ptr & 0x00ff) << 8) + IINCHIP_READ(Sn_TX_WR0(s) + 1);
 662:.\w5100.c     **** 	write_data(s, data, (uint8 *)(ptr), len);
 663:.\w5100.c     **** 	ptr += len;
 664:.\w5100.c     **** 	IINCHIP_WRITE(Sn_TX_WR0(s),(uint8)((ptr & 0xff00) >> 8));
 665:.\w5100.c     **** 	IINCHIP_WRITE((Sn_TX_WR0(s) + 1),(uint8)(ptr & 0x00ff));
 666:.\w5100.c     **** }
 667:.\w5100.c     **** 
 668:.\w5100.c     **** 
 669:.\w5100.c     **** /**
 670:.\w5100.c     **** @brief	This function is being called by recv() also.
 671:.\w5100.c     **** 
 672:.\w5100.c     **** This function read the Rx read pointer register
 673:.\w5100.c     **** and after copy the data from receive buffer update the Rx write pointer register.
 674:.\w5100.c     **** User should read upper uint8 first and lower uint8 later to get proper value.
 675:.\w5100.c     **** */
 676:.\w5100.c     **** void recv_data_processing(SOCKET s, uint8 *data, uint16 len)
 677:.\w5100.c     **** {
 678:.\w5100.c     **** 	uint16 ptr;
ARM GAS  C:\Users\atsu\AppData\Local\Temp\cc7os1vl.s 			page 52


 679:.\w5100.c     **** 	ptr = IINCHIP_READ(Sn_RX_RD0(s));
 680:.\w5100.c     **** 	ptr = ((ptr & 0x00ff) << 8) + IINCHIP_READ(Sn_RX_RD0(s) + 1);
 681:.\w5100.c     **** #ifdef __DEF_IINCHIP_DBG__
 682:.\w5100.c     **** 	printf("ISR_RX: rd_ptr : %.4x\r\n", ptr);
 683:.\w5100.c     **** #endif
 684:.\w5100.c     **** 	read_data(s, (uint8 *)ptr, data, len); // read data
 685:.\w5100.c     **** 	ptr += len;
 686:.\w5100.c     **** 	IINCHIP_WRITE(Sn_RX_RD0(s),(uint8)((ptr & 0xff00) >> 8));
 687:.\w5100.c     **** 	IINCHIP_WRITE((Sn_RX_RD0(s) + 1),(uint8)(ptr & 0x00ff));
 688:.\w5100.c     **** }
 689:.\w5100.c     **** 
 690:.\w5100.c     **** 
 691:.\w5100.c     **** /**
 692:.\w5100.c     **** @brief	for copy the data form application buffer to Transmite buffer of the chip.
 693:.\w5100.c     **** 
 694:.\w5100.c     **** This function is being used for copy the data form application buffer to Transmite
 695:.\w5100.c     **** buffer of the chip. It calculate the actual physical address where one has to write
 696:.\w5100.c     **** the data in transmite buffer. Here also take care of the condition while it exceed
 697:.\w5100.c     **** the Tx memory uper-bound of socket.
 698:.\w5100.c     **** */
 699:.\w5100.c     **** void write_data(SOCKET s, vuint8 * src, vuint8 * dst, uint16 len)
 700:.\w5100.c     **** {
 2157              		.loc 1 700 0
 2158              		.cfi_startproc
 2159              	.LVL244:
 2160 0000 F8B5     		push	{r3, r4, r5, r6, r7, lr}
 2161              	.LCFI35:
 2162              		.cfi_def_cfa_offset 24
 2163              		.cfi_offset 3, -24
 2164              		.cfi_offset 4, -20
 2165              		.cfi_offset 5, -16
 2166              		.cfi_offset 6, -12
 2167              		.cfi_offset 7, -8
 2168              		.cfi_offset 14, -4
 2169              	.LBB30:
 2170              	.LBB31:
  88:.\w5100.c     ****    return SMASK[s];
 2171              		.loc 1 88 0
 2172 0002 0F4C     		ldr	r4, .L110
 2173 0004 4000     		lsl	r0, r0, #1
 2174              	.LVL245:
 2175 0006 2418     		add	r4, r4, r0
 2176              	.LBE31:
 2177              	.LBE30:
 701:.\w5100.c     **** 	uint16 size;
 702:.\w5100.c     **** 	uint16 dst_mask;
 703:.\w5100.c     **** 	uint8 * dst_ptr;
 704:.\w5100.c     **** 
 705:.\w5100.c     **** 	dst_mask = (uint16)dst & getIINCHIP_TxMASK(s);
 2178              		.loc 1 705 0
 2179 0008 A78B     		ldrh	r7, [r4, #28]
 700:.\w5100.c     **** {
 2180              		.loc 1 700 0
 2181 000a 0E1C     		mov	r6, r1
 706:.\w5100.c     **** 	dst_ptr = (uint8 *)(getIINCHIP_TxBASE(s) + dst_mask);
 2182              		.loc 1 706 0
 2183 000c A18D     		ldrh	r1, [r4, #44]
ARM GAS  C:\Users\atsu\AppData\Local\Temp\cc7os1vl.s 			page 53


 2184              	.LVL246:
 705:.\w5100.c     **** 	dst_mask = (uint16)dst & getIINCHIP_TxMASK(s);
 2185              		.loc 1 705 0
 2186 000e 3A40     		and	r2, r7
 2187              	.LVL247:
 2188              	.LBB32:
 2189              	.LBB33:
  80:.\w5100.c     ****    return SSIZE[s];
 2190              		.loc 1 80 0
 2191 0010 A789     		ldrh	r7, [r4, #12]
 2192              	.LBE33:
 2193              	.LBE32:
 700:.\w5100.c     **** {
 2194              		.loc 1 700 0
 2195 0012 1D1C     		mov	r5, r3
 2196              		.loc 1 706 0
 2197 0014 8818     		add	r0, r1, r2
 2198              	.LVL248:
 707:.\w5100.c     **** 	
 708:.\w5100.c     **** 	if (dst_mask + len > getIINCHIP_TxMAX(s)) 
 2199              		.loc 1 708 0
 2200 0016 D318     		add	r3, r2, r3
 2201              	.LVL249:
 2202 0018 80B2     		uxth	r0, r0
 2203              	.LVL250:
 2204 001a BB42     		cmp	r3, r7
 2205 001c 0ADD     		ble	.L107
 709:.\w5100.c     **** 	{
 710:.\w5100.c     **** 		size = getIINCHIP_TxMAX(s) - dst_mask;
 2206              		.loc 1 710 0
 2207 001e BA1A     		sub	r2, r7, r2
 2208              	.LVL251:
 2209 0020 97B2     		uxth	r7, r2
 2210              	.LVL252:
 711:.\w5100.c     **** 		wiz_write_buf((uint16)dst_ptr, (uint8*)src, size);
 2211              		.loc 1 711 0
 2212 0022 311C     		mov	r1, r6
 2213              	.LVL253:
 2214 0024 3A1C     		mov	r2, r7
 2215 0026 FFF7FEFF 		bl	wiz_write_buf
 2216              	.LVL254:
 712:.\w5100.c     **** 		src += size;
 2217              		.loc 1 712 0
 2218 002a F119     		add	r1, r6, r7
 713:.\w5100.c     **** 		size = len - size;
 2219              		.loc 1 713 0
 2220 002c EE1B     		sub	r6, r5, r7
 2221              	.LVL255:
 714:.\w5100.c     **** 		dst_ptr = (uint8 *)(getIINCHIP_TxBASE(s));
 715:.\w5100.c     **** 		wiz_write_buf((uint16)dst_ptr, (uint8*)src, size);
 2222              		.loc 1 715 0
 2223 002e A08D     		ldrh	r0, [r4, #44]
 2224 0030 B2B2     		uxth	r2, r6
 2225 0032 01E0     		b	.L109
 2226              	.LVL256:
 2227              	.L107:
 716:.\w5100.c     **** 	} 
ARM GAS  C:\Users\atsu\AppData\Local\Temp\cc7os1vl.s 			page 54


 717:.\w5100.c     **** 	else
 718:.\w5100.c     **** 	{
 719:.\w5100.c     **** 		wiz_write_buf((uint16)dst_ptr, (uint8*)src, len);
 2228              		.loc 1 719 0
 2229 0034 311C     		mov	r1, r6
 2230              	.LVL257:
 2231 0036 2A1C     		mov	r2, r5
 2232              	.LVL258:
 2233              	.L109:
 2234 0038 FFF7FEFF 		bl	wiz_write_buf
 2235              	.LVL259:
 720:.\w5100.c     **** 	}
 721:.\w5100.c     **** }
 2236              		.loc 1 721 0
 2237              		@ sp needed for prologue
 2238 003c F8BD     		pop	{r3, r4, r5, r6, r7, pc}
 2239              	.L111:
 2240 003e C046     		.align	2
 2241              	.L110:
 2242 0040 00000000 		.word	.LANCHOR0
 2243              		.cfi_endproc
 2244              	.LFE77:
 2245              		.size	write_data, .-write_data
 2246              		.section	.text.send_data_processing,"ax",%progbits
 2247              		.align	1
 2248              		.global	send_data_processing
 2249              		.code	16
 2250              		.thumb_func
 2251              		.type	send_data_processing, %function
 2252              	send_data_processing:
 2253              	.LFB75:
 658:.\w5100.c     **** {
 2254              		.loc 1 658 0
 2255              		.cfi_startproc
 2256              	.LVL260:
 2257 0000 F7B5     		push	{r0, r1, r2, r4, r5, r6, r7, lr}
 2258              	.LCFI36:
 2259              		.cfi_def_cfa_offset 32
 2260              		.cfi_offset 0, -32
 2261              		.cfi_offset 1, -28
 2262              		.cfi_offset 2, -24
 2263              		.cfi_offset 4, -20
 2264              		.cfi_offset 5, -16
 2265              		.cfi_offset 6, -12
 2266              		.cfi_offset 7, -8
 2267              		.cfi_offset 14, -4
 660:.\w5100.c     **** 	ptr = IINCHIP_READ(Sn_TX_WR0(s));
 2268              		.loc 1 660 0
 2269 0002 041D     		add	r4, r0, #4
 658:.\w5100.c     **** {
 2270              		.loc 1 658 0
 2271 0004 071C     		mov	r7, r0
 660:.\w5100.c     **** 	ptr = IINCHIP_READ(Sn_TX_WR0(s));
 2272              		.loc 1 660 0
 2273 0006 2002     		lsl	r0, r4, #8
 2274              	.LVL261:
 2275 0008 84B2     		uxth	r4, r0
ARM GAS  C:\Users\atsu\AppData\Local\Temp\cc7os1vl.s 			page 55


 2276 000a 251C     		mov	r5, r4
 2277 000c 2435     		add	r5, r5, #36
 2278 000e ADB2     		uxth	r5, r5
 2279 0010 281C     		mov	r0, r5
 658:.\w5100.c     **** {
 2280              		.loc 1 658 0
 2281 0012 0191     		str	r1, [sp, #4]
 2282 0014 0092     		str	r2, [sp]
 660:.\w5100.c     **** 	ptr = IINCHIP_READ(Sn_TX_WR0(s));
 2283              		.loc 1 660 0
 2284 0016 FFF7FEFF 		bl	IINCHIP_READ
 2285              	.LVL262:
 661:.\w5100.c     **** 	ptr = ((ptr & 0x00ff) << 8) + IINCHIP_READ(Sn_TX_WR0(s) + 1);
 2286              		.loc 1 661 0
 2287 001a 2534     		add	r4, r4, #37
 2288 001c A4B2     		uxth	r4, r4
 660:.\w5100.c     **** 	ptr = IINCHIP_READ(Sn_TX_WR0(s));
 2289              		.loc 1 660 0
 2290 001e 061C     		mov	r6, r0
 2291              	.LVL263:
 661:.\w5100.c     **** 	ptr = ((ptr & 0x00ff) << 8) + IINCHIP_READ(Sn_TX_WR0(s) + 1);
 2292              		.loc 1 661 0
 2293 0020 201C     		mov	r0, r4
 2294              	.LVL264:
 2295 0022 FFF7FEFF 		bl	IINCHIP_READ
 2296              	.LVL265:
 2297 0026 3102     		lsl	r1, r6, #8
 2298 0028 4218     		add	r2, r0, r1
 2299 002a 96B2     		uxth	r6, r2
 2300              	.LVL266:
 662:.\w5100.c     **** 	write_data(s, data, (uint8 *)(ptr), len);
 2301              		.loc 1 662 0
 2302 002c 321C     		mov	r2, r6
 2303 002e 381C     		mov	r0, r7
 2304 0030 0199     		ldr	r1, [sp, #4]
 2305 0032 009B     		ldr	r3, [sp]
 2306 0034 FFF7FEFF 		bl	write_data
 2307              	.LVL267:
 663:.\w5100.c     **** 	ptr += len;
 2308              		.loc 1 663 0
 2309 0038 009B     		ldr	r3, [sp]
 664:.\w5100.c     **** 	IINCHIP_WRITE(Sn_TX_WR0(s),(uint8)((ptr & 0xff00) >> 8));
 2310              		.loc 1 664 0
 2311 003a 281C     		mov	r0, r5
 663:.\w5100.c     **** 	ptr += len;
 2312              		.loc 1 663 0
 2313 003c F718     		add	r7, r6, r3
 2314 003e BEB2     		uxth	r6, r7
 2315              	.LVL268:
 664:.\w5100.c     **** 	IINCHIP_WRITE(Sn_TX_WR0(s),(uint8)((ptr & 0xff00) >> 8));
 2316              		.loc 1 664 0
 2317 0040 310A     		lsr	r1, r6, #8
 2318 0042 FFF7FEFF 		bl	IINCHIP_WRITE
 2319              	.LVL269:
 665:.\w5100.c     **** 	IINCHIP_WRITE((Sn_TX_WR0(s) + 1),(uint8)(ptr & 0x00ff));
 2320              		.loc 1 665 0
 2321 0046 F1B2     		uxtb	r1, r6
ARM GAS  C:\Users\atsu\AppData\Local\Temp\cc7os1vl.s 			page 56


 2322 0048 201C     		mov	r0, r4
 2323 004a FFF7FEFF 		bl	IINCHIP_WRITE
 2324              	.LVL270:
 666:.\w5100.c     **** }
 2325              		.loc 1 666 0
 2326              		@ sp needed for prologue
 2327              	.LVL271:
 2328 004e F7BD     		pop	{r0, r1, r2, r4, r5, r6, r7, pc}
 2329              		.cfi_endproc
 2330              	.LFE75:
 2331              		.size	send_data_processing, .-send_data_processing
 2332              		.section	.text.read_data,"ax",%progbits
 2333              		.align	1
 2334              		.global	read_data
 2335              		.code	16
 2336              		.thumb_func
 2337              		.type	read_data, %function
 2338              	read_data:
 2339              	.LFB78:
 722:.\w5100.c     **** 
 723:.\w5100.c     **** 
 724:.\w5100.c     **** /**
 725:.\w5100.c     **** @brief	This function is being used for copy the data form Receive buffer of the chip to application
 726:.\w5100.c     **** 
 727:.\w5100.c     **** It calculate the actual physical address where one has to read
 728:.\w5100.c     **** the data from Receive buffer. Here also take care of the condition while it exceed
 729:.\w5100.c     **** the Rx memory uper-bound of socket.
 730:.\w5100.c     **** */
 731:.\w5100.c     **** void read_data(SOCKET s, vuint8 * src, vuint8 * dst, uint16 len)
 732:.\w5100.c     **** {
 2340              		.loc 1 732 0
 2341              		.cfi_startproc
 2342              	.LVL272:
 2343 0000 F8B5     		push	{r3, r4, r5, r6, r7, lr}
 2344              	.LCFI37:
 2345              		.cfi_def_cfa_offset 24
 2346              		.cfi_offset 3, -24
 2347              		.cfi_offset 4, -20
 2348              		.cfi_offset 5, -16
 2349              		.cfi_offset 6, -12
 2350              		.cfi_offset 7, -8
 2351              		.cfi_offset 14, -4
 2352              	.LBB34:
 2353              	.LBB35:
  84:.\w5100.c     ****    return RMASK[s];
 2354              		.loc 1 84 0
 2355 0002 0F4C     		ldr	r4, .L117
 2356 0004 4000     		lsl	r0, r0, #1
 2357              	.LVL273:
 2358 0006 2418     		add	r4, r4, r0
 2359              	.LBE35:
 2360              	.LBE34:
 733:.\w5100.c     **** 	uint16 size;
 734:.\w5100.c     **** 	uint16 src_mask;
 735:.\w5100.c     **** 	uint8 * src_ptr;
 736:.\w5100.c     **** 
 737:.\w5100.c     **** 	src_mask = (uint16)src & getIINCHIP_RxMASK(s);
ARM GAS  C:\Users\atsu\AppData\Local\Temp\cc7os1vl.s 			page 57


 2361              		.loc 1 737 0
 2362 0008 A78A     		ldrh	r7, [r4, #20]
 732:.\w5100.c     **** {
 2363              		.loc 1 732 0
 2364 000a 161C     		mov	r6, r2
 738:.\w5100.c     **** 	src_ptr = (uint8 *)(getIINCHIP_RxBASE(s) + src_mask);
 2365              		.loc 1 738 0
 2366 000c A28C     		ldrh	r2, [r4, #36]
 2367              	.LVL274:
 737:.\w5100.c     **** 	src_mask = (uint16)src & getIINCHIP_RxMASK(s);
 2368              		.loc 1 737 0
 2369 000e 3940     		and	r1, r7
 2370              	.LVL275:
 2371              	.LBB36:
 2372              	.LBB37:
  76:.\w5100.c     ****    return RSIZE[s];
 2373              		.loc 1 76 0
 2374 0010 A788     		ldrh	r7, [r4, #4]
 2375              	.LBE37:
 2376              	.LBE36:
 732:.\w5100.c     **** {
 2377              		.loc 1 732 0
 2378 0012 1D1C     		mov	r5, r3
 2379              		.loc 1 738 0
 2380 0014 5018     		add	r0, r2, r1
 2381              	.LVL276:
 739:.\w5100.c     **** 	
 740:.\w5100.c     **** 	if( (src_mask + len) > getIINCHIP_RxMAX(s) ) 
 2382              		.loc 1 740 0
 2383 0016 CB18     		add	r3, r1, r3
 2384              	.LVL277:
 2385 0018 80B2     		uxth	r0, r0
 2386              	.LVL278:
 2387 001a BB42     		cmp	r3, r7
 2388 001c 0ADD     		ble	.L114
 741:.\w5100.c     **** 	{
 742:.\w5100.c     **** 		size = getIINCHIP_RxMAX(s) - src_mask;
 2389              		.loc 1 742 0
 2390 001e 791A     		sub	r1, r7, r1
 2391              	.LVL279:
 2392 0020 8FB2     		uxth	r7, r1
 2393              	.LVL280:
 743:.\w5100.c     **** 		wiz_read_buf((uint16)src_ptr, (uint8*)dst,size);
 2394              		.loc 1 743 0
 2395 0022 3A1C     		mov	r2, r7
 2396              	.LVL281:
 2397 0024 311C     		mov	r1, r6
 2398              	.LVL282:
 2399 0026 FFF7FEFF 		bl	wiz_read_buf
 2400              	.LVL283:
 744:.\w5100.c     **** 		dst += size;
 2401              		.loc 1 744 0
 2402 002a F119     		add	r1, r6, r7
 745:.\w5100.c     **** 		size = len - size;
 2403              		.loc 1 745 0
 2404 002c EE1B     		sub	r6, r5, r7
 2405              	.LVL284:
ARM GAS  C:\Users\atsu\AppData\Local\Temp\cc7os1vl.s 			page 58


 746:.\w5100.c     **** 		src_ptr = (uint8 *)(getIINCHIP_RxBASE(s));
 747:.\w5100.c     **** 		wiz_read_buf((uint16)src_ptr, (uint8*) dst,size);
 2406              		.loc 1 747 0
 2407 002e A08C     		ldrh	r0, [r4, #36]
 2408 0030 B2B2     		uxth	r2, r6
 2409 0032 01E0     		b	.L116
 2410              	.LVL285:
 2411              	.L114:
 748:.\w5100.c     **** 	} 
 749:.\w5100.c     **** 	else
 750:.\w5100.c     **** 	{
 751:.\w5100.c     **** 		wiz_read_buf((uint16)src_ptr, (uint8*) dst,len);
 2412              		.loc 1 751 0
 2413 0034 311C     		mov	r1, r6
 2414              	.LVL286:
 2415 0036 2A1C     		mov	r2, r5
 2416              	.LVL287:
 2417              	.L116:
 2418 0038 FFF7FEFF 		bl	wiz_read_buf
 2419              	.LVL288:
 752:.\w5100.c     **** 	}
 753:.\w5100.c     **** }
 2420              		.loc 1 753 0
 2421              		@ sp needed for prologue
 2422 003c F8BD     		pop	{r3, r4, r5, r6, r7, pc}
 2423              	.L118:
 2424 003e C046     		.align	2
 2425              	.L117:
 2426 0040 00000000 		.word	.LANCHOR0
 2427              		.cfi_endproc
 2428              	.LFE78:
 2429              		.size	read_data, .-read_data
 2430              		.section	.text.recv_data_processing,"ax",%progbits
 2431              		.align	1
 2432              		.global	recv_data_processing
 2433              		.code	16
 2434              		.thumb_func
 2435              		.type	recv_data_processing, %function
 2436              	recv_data_processing:
 2437              	.LFB76:
 677:.\w5100.c     **** {
 2438              		.loc 1 677 0
 2439              		.cfi_startproc
 2440              	.LVL289:
 2441 0000 F7B5     		push	{r0, r1, r2, r4, r5, r6, r7, lr}
 2442              	.LCFI38:
 2443              		.cfi_def_cfa_offset 32
 2444              		.cfi_offset 0, -32
 2445              		.cfi_offset 1, -28
 2446              		.cfi_offset 2, -24
 2447              		.cfi_offset 4, -20
 2448              		.cfi_offset 5, -16
 2449              		.cfi_offset 6, -12
 2450              		.cfi_offset 7, -8
 2451              		.cfi_offset 14, -4
 679:.\w5100.c     **** 	ptr = IINCHIP_READ(Sn_RX_RD0(s));
 2452              		.loc 1 679 0
ARM GAS  C:\Users\atsu\AppData\Local\Temp\cc7os1vl.s 			page 59


 2453 0002 041D     		add	r4, r0, #4
 677:.\w5100.c     **** {
 2454              		.loc 1 677 0
 2455 0004 071C     		mov	r7, r0
 679:.\w5100.c     **** 	ptr = IINCHIP_READ(Sn_RX_RD0(s));
 2456              		.loc 1 679 0
 2457 0006 2002     		lsl	r0, r4, #8
 2458              	.LVL290:
 2459 0008 84B2     		uxth	r4, r0
 2460 000a 251C     		mov	r5, r4
 2461 000c 2835     		add	r5, r5, #40
 2462 000e ADB2     		uxth	r5, r5
 2463 0010 281C     		mov	r0, r5
 677:.\w5100.c     **** {
 2464              		.loc 1 677 0
 2465 0012 0191     		str	r1, [sp, #4]
 2466 0014 0092     		str	r2, [sp]
 679:.\w5100.c     **** 	ptr = IINCHIP_READ(Sn_RX_RD0(s));
 2467              		.loc 1 679 0
 2468 0016 FFF7FEFF 		bl	IINCHIP_READ
 2469              	.LVL291:
 680:.\w5100.c     **** 	ptr = ((ptr & 0x00ff) << 8) + IINCHIP_READ(Sn_RX_RD0(s) + 1);
 2470              		.loc 1 680 0
 2471 001a 2934     		add	r4, r4, #41
 2472 001c A4B2     		uxth	r4, r4
 679:.\w5100.c     **** 	ptr = IINCHIP_READ(Sn_RX_RD0(s));
 2473              		.loc 1 679 0
 2474 001e 061C     		mov	r6, r0
 2475              	.LVL292:
 680:.\w5100.c     **** 	ptr = ((ptr & 0x00ff) << 8) + IINCHIP_READ(Sn_RX_RD0(s) + 1);
 2476              		.loc 1 680 0
 2477 0020 201C     		mov	r0, r4
 2478              	.LVL293:
 2479 0022 FFF7FEFF 		bl	IINCHIP_READ
 2480              	.LVL294:
 2481 0026 3102     		lsl	r1, r6, #8
 2482 0028 4218     		add	r2, r0, r1
 2483 002a 96B2     		uxth	r6, r2
 2484              	.LVL295:
 684:.\w5100.c     **** 	read_data(s, (uint8 *)ptr, data, len); // read data
 2485              		.loc 1 684 0
 2486 002c 381C     		mov	r0, r7
 2487 002e 019A     		ldr	r2, [sp, #4]
 2488              	.LVL296:
 2489 0030 311C     		mov	r1, r6
 2490 0032 009B     		ldr	r3, [sp]
 2491 0034 FFF7FEFF 		bl	read_data
 2492              	.LVL297:
 685:.\w5100.c     **** 	ptr += len;
 2493              		.loc 1 685 0
 2494 0038 009B     		ldr	r3, [sp]
 686:.\w5100.c     **** 	IINCHIP_WRITE(Sn_RX_RD0(s),(uint8)((ptr & 0xff00) >> 8));
 2495              		.loc 1 686 0
 2496 003a 281C     		mov	r0, r5
 685:.\w5100.c     **** 	ptr += len;
 2497              		.loc 1 685 0
 2498 003c F718     		add	r7, r6, r3
ARM GAS  C:\Users\atsu\AppData\Local\Temp\cc7os1vl.s 			page 60


 2499 003e BEB2     		uxth	r6, r7
 2500              	.LVL298:
 686:.\w5100.c     **** 	IINCHIP_WRITE(Sn_RX_RD0(s),(uint8)((ptr & 0xff00) >> 8));
 2501              		.loc 1 686 0
 2502 0040 310A     		lsr	r1, r6, #8
 2503 0042 FFF7FEFF 		bl	IINCHIP_WRITE
 2504              	.LVL299:
 687:.\w5100.c     **** 	IINCHIP_WRITE((Sn_RX_RD0(s) + 1),(uint8)(ptr & 0x00ff));
 2505              		.loc 1 687 0
 2506 0046 F1B2     		uxtb	r1, r6
 2507 0048 201C     		mov	r0, r4
 2508 004a FFF7FEFF 		bl	IINCHIP_WRITE
 2509              	.LVL300:
 688:.\w5100.c     **** }
 2510              		.loc 1 688 0
 2511              		@ sp needed for prologue
 2512              	.LVL301:
 2513 004e F7BD     		pop	{r0, r1, r2, r4, r5, r6, r7, pc}
 2514              		.cfi_endproc
 2515              	.LFE76:
 2516              		.size	recv_data_processing, .-recv_data_processing
 2517              		.bss
 2518              		.align	1
 2519              		.set	.LANCHOR0,. + 0
 2520              		.type	I_STATUS, %object
 2521              		.size	I_STATUS, 4
 2522              	I_STATUS:
 2523 0000 00000000 		.space	4
 2524              		.type	RSIZE, %object
 2525              		.size	RSIZE, 8
 2526              	RSIZE:
 2527 0004 00000000 		.space	8
 2527      00000000 
 2528              		.type	SSIZE, %object
 2529              		.size	SSIZE, 8
 2530              	SSIZE:
 2531 000c 00000000 		.space	8
 2531      00000000 
 2532              		.type	RMASK, %object
 2533              		.size	RMASK, 8
 2534              	RMASK:
 2535 0014 00000000 		.space	8
 2535      00000000 
 2536              		.type	SMASK, %object
 2537              		.size	SMASK, 8
 2538              	SMASK:
 2539 001c 00000000 		.space	8
 2539      00000000 
 2540              		.type	RBUFBASEADDRESS, %object
 2541              		.size	RBUFBASEADDRESS, 8
 2542              	RBUFBASEADDRESS:
 2543 0024 00000000 		.space	8
 2543      00000000 
 2544              		.type	SBUFBASEADDRESS, %object
 2545              		.size	SBUFBASEADDRESS, 8
 2546              	SBUFBASEADDRESS:
 2547 002c 00000000 		.space	8
ARM GAS  C:\Users\atsu\AppData\Local\Temp\cc7os1vl.s 			page 61


 2547      00000000 
 2548              		.text
 2549              	.Letext0:
 2550              		.file 2 "./Generated_Source/PSoC4/cytypes.h"
 2551              		.file 3 ".\\types.h"
 2552              		.file 4 ".\\w5100.h"
 2553              		.file 5 ".\\device_depend.h"