ARM GAS  C:\Users\atsu\AppData\Local\Temp\ccNplIXy.s 			page 1


   1              		.cpu cortex-m0
   2              		.fpu softvfp
   3              		.eabi_attribute 20, 1
   4              		.eabi_attribute 21, 1
   5              		.eabi_attribute 23, 3
   6              		.eabi_attribute 24, 1
   7              		.eabi_attribute 25, 1
   8              		.eabi_attribute 26, 1
   9              		.eabi_attribute 30, 4
  10              		.eabi_attribute 34, 0
  11              		.eabi_attribute 18, 4
  12              		.code	16
  13              		.file	"w5100.c"
  14              		.text
  15              	.Ltext0:
  16              		.cfi_sections	.debug_frame
  17              		.section	.text.SPI_transfer,"ax",%progbits
  18              		.align	1
  19              		.global	SPI_transfer
  20              		.code	16
  21              		.thumb_func
  22              		.type	SPI_transfer, %function
  23              	SPI_transfer:
  24              	.LFB33:
  25              		.file 1 ".\\w5100.c"
   1:.\w5100.c     **** /*
   2:.\w5100.c     ****  * (c)COPYRIGHT
   3:.\w5100.c     ****  * ALL RIGHT RESERVED
   4:.\w5100.c     ****  *
   5:.\w5100.c     ****  * FileName : w5100.c
   6:.\w5100.c     ****  * Revision History :
   7:.\w5100.c     ****  * ----------	-------		------------------------------------------------
   8:.\w5100.c     ****  * 	Date			version	  	Description
   9:.\w5100.c     ****  * ----------	-------  	------------------------------------------------
  10:.\w5100.c     ****  * 01/25/2007	1.1			Bug is Fixed in the Indirect Mode 
  11:.\w5100.c     ****  *							: Memory mapping error	
  12:.\w5100.c     ****  * ----------	-------		------------------------------------------------
  13:.\w5100.c     ****  * 01/08/2008	1.2			Modification of Socket Command Part
  14:.\w5100.c     ****  *							: Check if the appropriately performed after writing Sn_CR
  15:.\w5100.c     ****  *
  16:.\w5100.c     ****  *							Modification of SPI Part
  17:.\w5100.c     ****  *							: SPI code changed by adding 'spi.h'.
  18:.\w5100.c     ****  *							: Change control type for SPI port from uint8 to bit.
  19:.\w5100.c     ****  * ----------	-------		------------------------------------------------
  20:.\w5100.c     ****  * 01/15/2008	1.3			Bug is Fixed in the pppinit() fuction.
  21:.\w5100.c     ****  *							: do not clear interrupt value, so fixed.
  22:.\w5100.c     ****  *
  23:.\w5100.c     ****  *		                   			Modification of ISR
  24:.\w5100.c     ****  *                   				: Do not exit ISR, if there is interrupt.
  25:.\w5100.c     ****  * ----------	-------		------------------------------------------------
  26:.\w5100.c     ****  * 03/21/2008	1.4			Modification of SetMR() function
  27:.\w5100.c     ****  *                   				: Use IINCHIP_WRITE() function in Direct or SPI mode.
  28:.\w5100.c     ****  * ----------	-------		------------------------------------------------
  29:.\w5100.c     ****  */
  30:.\w5100.c     **** #include <stdio.h>
  31:.\w5100.c     **** #include <string.h>
  32:.\w5100.c     **** 
ARM GAS  C:\Users\atsu\AppData\Local\Temp\ccNplIXy.s 			page 2


  33:.\w5100.c     **** //#include <avr/interrupt.h>
  34:.\w5100.c     **** // #include <avr/io.h> 
  35:.\w5100.c     ****    
  36:.\w5100.c     **** #include "types.h"
  37:.\w5100.c     **** #include "socket.h"
  38:.\w5100.c     **** #include "w5100.h"
  39:.\w5100.c     **** 
  40:.\w5100.c     **** 
  41:.\w5100.c     **** 
  42:.\w5100.c     **** 
  43:.\w5100.c     **** #ifdef __DEF_IINCHIP_PPP__
  44:.\w5100.c     ****    #include "md5.h"
  45:.\w5100.c     **** #endif
  46:.\w5100.c     **** 
  47:.\w5100.c     **** 
  48:.\w5100.c     **** #if (__DEF_IINCHIP_BUS__ == __DEF_IINCHIP_SPI_MODE__)
  49:.\w5100.c     **** //#include "spi.h"		//+2007113[jhpark]
  50:.\w5100.c     **** #include <project.h>
  51:.\w5100.c     **** #endif
  52:.\w5100.c     **** 
  53:.\w5100.c     **** static uint8 I_STATUS[MAX_SOCK_NUM];
  54:.\w5100.c     **** static uint16 SMASK[MAX_SOCK_NUM]; /**< Variable for Tx buffer MASK in each channel */
  55:.\w5100.c     **** static uint16 RMASK[MAX_SOCK_NUM]; /**< Variable for Rx buffer MASK in each channel */
  56:.\w5100.c     **** static uint16 SSIZE[MAX_SOCK_NUM]; /**< Max Tx buffer size by each channel */
  57:.\w5100.c     **** static uint16 RSIZE[MAX_SOCK_NUM]; /**< Max Rx buffer size by each channel */
  58:.\w5100.c     **** static uint16 SBUFBASEADDRESS[MAX_SOCK_NUM]; /**< Tx buffer base address by each channel */
  59:.\w5100.c     **** static uint16 RBUFBASEADDRESS[MAX_SOCK_NUM]; /**< Rx buffer base address by each channel */
  60:.\w5100.c     **** 
  61:.\w5100.c     **** int8 SPI_transfer(int8 send_data){
  26              		.loc 1 61 0
  27              		.cfi_startproc
  28              	.LVL0:
  29 0000 08B5     		push	{r3, lr}
  30              	.LCFI0:
  31              		.cfi_def_cfa_offset 8
  32              		.cfi_offset 3, -8
  33              		.cfi_offset 14, -4
  62:.\w5100.c     **** 	SPI_SpiUartWriteTxData(send_data);
  34              		.loc 1 62 0
  35 0002 FFF7FEFF 		bl	SPI_SpiUartWriteTxData
  36              	.LVL1:
  37              	.L2:
  63:.\w5100.c     **** 	while( !SPI_SpiUartGetRxBufferSize() );
  38              		.loc 1 63 0 discriminator 1
  39 0006 FFF7FEFF 		bl	SPI_SpiUartGetRxBufferSize
  40              	.LVL2:
  41 000a 0028     		cmp	r0, #0
  42 000c FBD0     		beq	.L2
  64:.\w5100.c     **** 	return ((int8)SPI_SpiUartReadRxData());
  43              		.loc 1 64 0
  44 000e FFF7FEFF 		bl	SPI_SpiUartReadRxData
  45              	.LVL3:
  65:.\w5100.c     **** }
  46              		.loc 1 65 0
  47              		@ sp needed for prologue
  64:.\w5100.c     **** 	return ((int8)SPI_SpiUartReadRxData());
  48              		.loc 1 64 0
ARM GAS  C:\Users\atsu\AppData\Local\Temp\ccNplIXy.s 			page 3


  49 0012 40B2     		sxtb	r0, r0
  50              		.loc 1 65 0
  51 0014 08BD     		pop	{r3, pc}
  52              		.cfi_endproc
  53              	.LFE33:
  54              		.size	SPI_transfer, .-SPI_transfer
  55              		.section	.text.getISR,"ax",%progbits
  56              		.align	1
  57              		.global	getISR
  58              		.code	16
  59              		.thumb_func
  60              		.type	getISR, %function
  61              	getISR:
  62              	.LFB34:
  66:.\w5100.c     **** uint8 getISR(uint8 s)
  67:.\w5100.c     **** {
  63              		.loc 1 67 0
  64              		.cfi_startproc
  65              	.LVL4:
  68:.\w5100.c     **** 	return I_STATUS[s];
  66              		.loc 1 68 0
  67 0000 014B     		ldr	r3, .L9
  69:.\w5100.c     **** }
  68              		.loc 1 69 0
  69              		@ sp needed for prologue
  68:.\w5100.c     **** 	return I_STATUS[s];
  70              		.loc 1 68 0
  71 0002 185C     		ldrb	r0, [r3, r0]
  72              	.LVL5:
  73              		.loc 1 69 0
  74 0004 7047     		bx	lr
  75              	.L10:
  76 0006 C046     		.align	2
  77              	.L9:
  78 0008 00000000 		.word	.LANCHOR0
  79              		.cfi_endproc
  80              	.LFE34:
  81              		.size	getISR, .-getISR
  82              		.section	.text.putISR,"ax",%progbits
  83              		.align	1
  84              		.global	putISR
  85              		.code	16
  86              		.thumb_func
  87              		.type	putISR, %function
  88              	putISR:
  89              	.LFB35:
  70:.\w5100.c     **** 
  71:.\w5100.c     **** void putISR(uint8 s, uint8 val)
  72:.\w5100.c     **** {
  90              		.loc 1 72 0
  91              		.cfi_startproc
  92              	.LVL6:
  73:.\w5100.c     ****    I_STATUS[s] = val;
  93              		.loc 1 73 0
  94 0000 014B     		ldr	r3, .L12
  74:.\w5100.c     **** }
  95              		.loc 1 74 0
ARM GAS  C:\Users\atsu\AppData\Local\Temp\ccNplIXy.s 			page 4


  96              		@ sp needed for prologue
  73:.\w5100.c     ****    I_STATUS[s] = val;
  97              		.loc 1 73 0
  98 0002 1954     		strb	r1, [r3, r0]
  99              		.loc 1 74 0
 100 0004 7047     		bx	lr
 101              	.L13:
 102 0006 C046     		.align	2
 103              	.L12:
 104 0008 00000000 		.word	.LANCHOR0
 105              		.cfi_endproc
 106              	.LFE35:
 107              		.size	putISR, .-putISR
 108              		.section	.text.getIINCHIP_RxMAX,"ax",%progbits
 109              		.align	1
 110              		.global	getIINCHIP_RxMAX
 111              		.code	16
 112              		.thumb_func
 113              		.type	getIINCHIP_RxMAX, %function
 114              	getIINCHIP_RxMAX:
 115              	.LFB36:
  75:.\w5100.c     **** 
  76:.\w5100.c     **** uint16 getIINCHIP_RxMAX(uint8 s)
  77:.\w5100.c     **** {
 116              		.loc 1 77 0
 117              		.cfi_startproc
 118              	.LVL7:
  78:.\w5100.c     ****    return RSIZE[s];
 119              		.loc 1 78 0
 120 0000 024B     		ldr	r3, .L15
 121 0002 4000     		lsl	r0, r0, #1
 122              	.LVL8:
 123 0004 1918     		add	r1, r3, r0
 124 0006 8888     		ldrh	r0, [r1, #4]
  79:.\w5100.c     **** }
 125              		.loc 1 79 0
 126              		@ sp needed for prologue
 127 0008 7047     		bx	lr
 128              	.L16:
 129 000a C046     		.align	2
 130              	.L15:
 131 000c 00000000 		.word	.LANCHOR0
 132              		.cfi_endproc
 133              	.LFE36:
 134              		.size	getIINCHIP_RxMAX, .-getIINCHIP_RxMAX
 135              		.section	.text.getIINCHIP_TxMAX,"ax",%progbits
 136              		.align	1
 137              		.global	getIINCHIP_TxMAX
 138              		.code	16
 139              		.thumb_func
 140              		.type	getIINCHIP_TxMAX, %function
 141              	getIINCHIP_TxMAX:
 142              	.LFB37:
  80:.\w5100.c     **** uint16 getIINCHIP_TxMAX(uint8 s)
  81:.\w5100.c     **** {
 143              		.loc 1 81 0
 144              		.cfi_startproc
ARM GAS  C:\Users\atsu\AppData\Local\Temp\ccNplIXy.s 			page 5


 145              	.LVL9:
  82:.\w5100.c     ****    return SSIZE[s];
 146              		.loc 1 82 0
 147 0000 024B     		ldr	r3, .L18
 148 0002 4000     		lsl	r0, r0, #1
 149              	.LVL10:
 150 0004 1918     		add	r1, r3, r0
 151 0006 8889     		ldrh	r0, [r1, #12]
  83:.\w5100.c     **** }
 152              		.loc 1 83 0
 153              		@ sp needed for prologue
 154 0008 7047     		bx	lr
 155              	.L19:
 156 000a C046     		.align	2
 157              	.L18:
 158 000c 00000000 		.word	.LANCHOR0
 159              		.cfi_endproc
 160              	.LFE37:
 161              		.size	getIINCHIP_TxMAX, .-getIINCHIP_TxMAX
 162              		.section	.text.getIINCHIP_RxMASK,"ax",%progbits
 163              		.align	1
 164              		.global	getIINCHIP_RxMASK
 165              		.code	16
 166              		.thumb_func
 167              		.type	getIINCHIP_RxMASK, %function
 168              	getIINCHIP_RxMASK:
 169              	.LFB38:
  84:.\w5100.c     **** uint16 getIINCHIP_RxMASK(uint8 s)
  85:.\w5100.c     **** {
 170              		.loc 1 85 0
 171              		.cfi_startproc
 172              	.LVL11:
  86:.\w5100.c     ****    return RMASK[s];
 173              		.loc 1 86 0
 174 0000 024B     		ldr	r3, .L21
 175 0002 4000     		lsl	r0, r0, #1
 176              	.LVL12:
 177 0004 1918     		add	r1, r3, r0
 178 0006 888A     		ldrh	r0, [r1, #20]
  87:.\w5100.c     **** }
 179              		.loc 1 87 0
 180              		@ sp needed for prologue
 181 0008 7047     		bx	lr
 182              	.L22:
 183 000a C046     		.align	2
 184              	.L21:
 185 000c 00000000 		.word	.LANCHOR0
 186              		.cfi_endproc
 187              	.LFE38:
 188              		.size	getIINCHIP_RxMASK, .-getIINCHIP_RxMASK
 189              		.section	.text.getIINCHIP_TxMASK,"ax",%progbits
 190              		.align	1
 191              		.global	getIINCHIP_TxMASK
 192              		.code	16
 193              		.thumb_func
 194              		.type	getIINCHIP_TxMASK, %function
 195              	getIINCHIP_TxMASK:
ARM GAS  C:\Users\atsu\AppData\Local\Temp\ccNplIXy.s 			page 6


 196              	.LFB39:
  88:.\w5100.c     **** uint16 getIINCHIP_TxMASK(uint8 s)
  89:.\w5100.c     **** {
 197              		.loc 1 89 0
 198              		.cfi_startproc
 199              	.LVL13:
  90:.\w5100.c     ****    return SMASK[s];
 200              		.loc 1 90 0
 201 0000 024B     		ldr	r3, .L24
 202 0002 4000     		lsl	r0, r0, #1
 203              	.LVL14:
 204 0004 1918     		add	r1, r3, r0
 205 0006 888B     		ldrh	r0, [r1, #28]
  91:.\w5100.c     **** }
 206              		.loc 1 91 0
 207              		@ sp needed for prologue
 208 0008 7047     		bx	lr
 209              	.L25:
 210 000a C046     		.align	2
 211              	.L24:
 212 000c 00000000 		.word	.LANCHOR0
 213              		.cfi_endproc
 214              	.LFE39:
 215              		.size	getIINCHIP_TxMASK, .-getIINCHIP_TxMASK
 216              		.section	.text.getIINCHIP_RxBASE,"ax",%progbits
 217              		.align	1
 218              		.global	getIINCHIP_RxBASE
 219              		.code	16
 220              		.thumb_func
 221              		.type	getIINCHIP_RxBASE, %function
 222              	getIINCHIP_RxBASE:
 223              	.LFB40:
  92:.\w5100.c     **** uint16 getIINCHIP_RxBASE(uint8 s)
  93:.\w5100.c     **** {
 224              		.loc 1 93 0
 225              		.cfi_startproc
 226              	.LVL15:
  94:.\w5100.c     ****    return RBUFBASEADDRESS[s];
 227              		.loc 1 94 0
 228 0000 024B     		ldr	r3, .L27
 229 0002 4000     		lsl	r0, r0, #1
 230              	.LVL16:
 231 0004 1918     		add	r1, r3, r0
 232 0006 888C     		ldrh	r0, [r1, #36]
  95:.\w5100.c     **** }
 233              		.loc 1 95 0
 234              		@ sp needed for prologue
 235 0008 7047     		bx	lr
 236              	.L28:
 237 000a C046     		.align	2
 238              	.L27:
 239 000c 00000000 		.word	.LANCHOR0
 240              		.cfi_endproc
 241              	.LFE40:
 242              		.size	getIINCHIP_RxBASE, .-getIINCHIP_RxBASE
 243              		.section	.text.getIINCHIP_TxBASE,"ax",%progbits
 244              		.align	1
ARM GAS  C:\Users\atsu\AppData\Local\Temp\ccNplIXy.s 			page 7


 245              		.global	getIINCHIP_TxBASE
 246              		.code	16
 247              		.thumb_func
 248              		.type	getIINCHIP_TxBASE, %function
 249              	getIINCHIP_TxBASE:
 250              	.LFB41:
  96:.\w5100.c     **** uint16 getIINCHIP_TxBASE(uint8 s)
  97:.\w5100.c     **** {
 251              		.loc 1 97 0
 252              		.cfi_startproc
 253              	.LVL17:
  98:.\w5100.c     ****    return SBUFBASEADDRESS[s];
 254              		.loc 1 98 0
 255 0000 024B     		ldr	r3, .L30
 256 0002 4000     		lsl	r0, r0, #1
 257              	.LVL18:
 258 0004 1918     		add	r1, r3, r0
 259 0006 888D     		ldrh	r0, [r1, #44]
  99:.\w5100.c     **** }
 260              		.loc 1 99 0
 261              		@ sp needed for prologue
 262 0008 7047     		bx	lr
 263              	.L31:
 264 000a C046     		.align	2
 265              	.L30:
 266 000c 00000000 		.word	.LANCHOR0
 267              		.cfi_endproc
 268              	.LFE41:
 269              		.size	getIINCHIP_TxBASE, .-getIINCHIP_TxBASE
 270              		.section	.text.IINCHIP_WRITE,"ax",%progbits
 271              		.align	1
 272              		.global	IINCHIP_WRITE
 273              		.code	16
 274              		.thumb_func
 275              		.type	IINCHIP_WRITE, %function
 276              	IINCHIP_WRITE:
 277              	.LFB42:
 100:.\w5100.c     **** 
 101:.\w5100.c     ****  /**
 102:.\w5100.c     **** @brief	This function writes the data into W5100 registers.
 103:.\w5100.c     **** */
 104:.\w5100.c     **** uint8 IINCHIP_WRITE(uint16 addr,uint8 data)
 105:.\w5100.c     **** {
 278              		.loc 1 105 0
 279              		.cfi_startproc
 280              	.LVL19:
 281 0000 38B5     		push	{r3, r4, r5, lr}
 282              	.LCFI1:
 283              		.cfi_def_cfa_offset 16
 284              		.cfi_offset 3, -16
 285              		.cfi_offset 4, -12
 286              		.cfi_offset 5, -8
 287              		.cfi_offset 14, -4
 288              		.loc 1 105 0
 289 0002 041C     		mov	r4, r0
 106:.\w5100.c     **** 	SPI_CS_Write(0);                             // CS=0, SPI start
 290              		.loc 1 106 0
ARM GAS  C:\Users\atsu\AppData\Local\Temp\ccNplIXy.s 			page 8


 291 0004 0020     		mov	r0, #0
 292              	.LVL20:
 105:.\w5100.c     **** {
 293              		.loc 1 105 0
 294 0006 0D1C     		mov	r5, r1
 295              		.loc 1 106 0
 296 0008 FFF7FEFF 		bl	SPI_CS_Write
 297              	.LVL21:
 107:.\w5100.c     **** 
 108:.\w5100.c     **** 	SPI_transfer(0xF0);
 298              		.loc 1 108 0
 299 000c 1020     		mov	r0, #16
 300 000e 4042     		neg	r0, r0
 301 0010 FFF7FEFF 		bl	SPI_transfer
 302              	.LVL22:
 109:.\w5100.c     **** 	SPI_transfer(addr >> 8);
 303              		.loc 1 109 0
 304 0014 210A     		lsr	r1, r4, #8
 305 0016 48B2     		sxtb	r0, r1
 306 0018 FFF7FEFF 		bl	SPI_transfer
 307              	.LVL23:
 110:.\w5100.c     **** 	SPI_transfer(addr & 0xFF);
 308              		.loc 1 110 0
 309 001c 60B2     		sxtb	r0, r4
 310 001e FFF7FEFF 		bl	SPI_transfer
 311              	.LVL24:
 111:.\w5100.c     **** 	SPI_transfer(data);
 312              		.loc 1 111 0
 313 0022 68B2     		sxtb	r0, r5
 314 0024 FFF7FEFF 		bl	SPI_transfer
 315              	.LVL25:
 112:.\w5100.c     **** 
 113:.\w5100.c     **** 	SPI_CS_Write(1);    
 316              		.loc 1 113 0
 317 0028 0120     		mov	r0, #1
 318 002a FFF7FEFF 		bl	SPI_CS_Write
 319              	.LVL26:
 114:.\w5100.c     **** 	return 1;
 115:.\w5100.c     **** }
 320              		.loc 1 115 0
 321              		@ sp needed for prologue
 322 002e 0120     		mov	r0, #1
 323 0030 38BD     		pop	{r3, r4, r5, pc}
 324              		.cfi_endproc
 325              	.LFE42:
 326              		.size	IINCHIP_WRITE, .-IINCHIP_WRITE
 327              		.section	.text.IINCHIP_READ,"ax",%progbits
 328              		.align	1
 329              		.global	IINCHIP_READ
 330              		.code	16
 331              		.thumb_func
 332              		.type	IINCHIP_READ, %function
 333              	IINCHIP_READ:
 334              	.LFB43:
 116:.\w5100.c     **** 
 117:.\w5100.c     **** 
 118:.\w5100.c     **** /**
ARM GAS  C:\Users\atsu\AppData\Local\Temp\ccNplIXy.s 			page 9


 119:.\w5100.c     **** @brief	This function reads the value from W5100 registers.
 120:.\w5100.c     **** */
 121:.\w5100.c     **** uint8 IINCHIP_READ(uint16 addr)
 122:.\w5100.c     **** {
 335              		.loc 1 122 0
 336              		.cfi_startproc
 337              	.LVL27:
 338 0000 10B5     		push	{r4, lr}
 339              	.LCFI2:
 340              		.cfi_def_cfa_offset 8
 341              		.cfi_offset 4, -8
 342              		.cfi_offset 14, -4
 343              		.loc 1 122 0
 344 0002 041C     		mov	r4, r0
 123:.\w5100.c     **** 	uint8 data;
 124:.\w5100.c     **** 	SPI_CS_Write(0);				// CS=0, SPI start
 345              		.loc 1 124 0
 346 0004 0020     		mov	r0, #0
 347              	.LVL28:
 348 0006 FFF7FEFF 		bl	SPI_CS_Write
 349              	.LVL29:
 125:.\w5100.c     **** 	SPI_transfer(0x0F);
 350              		.loc 1 125 0
 351 000a 0F20     		mov	r0, #15
 352 000c FFF7FEFF 		bl	SPI_transfer
 353              	.LVL30:
 126:.\w5100.c     **** 	SPI_transfer(addr >> 8);
 354              		.loc 1 126 0
 355 0010 200A     		lsr	r0, r4, #8
 356 0012 40B2     		sxtb	r0, r0
 357 0014 FFF7FEFF 		bl	SPI_transfer
 358              	.LVL31:
 127:.\w5100.c     **** 	SPI_transfer(addr & 0xFF);
 359              		.loc 1 127 0
 360 0018 60B2     		sxtb	r0, r4
 361 001a FFF7FEFF 		bl	SPI_transfer
 362              	.LVL32:
 128:.\w5100.c     **** 	data = SPI_transfer(0);
 363              		.loc 1 128 0
 364 001e 0020     		mov	r0, #0
 365 0020 FFF7FEFF 		bl	SPI_transfer
 366              	.LVL33:
 367 0024 041C     		mov	r4, r0
 368              	.LVL34:
 129:.\w5100.c     **** 	SPI_CS_Write(1);				// SPI end
 369              		.loc 1 129 0
 370 0026 0120     		mov	r0, #1
 371              	.LVL35:
 372 0028 FFF7FEFF 		bl	SPI_CS_Write
 373              	.LVL36:
 130:.\w5100.c     **** 	return data;
 131:.\w5100.c     **** }
 374              		.loc 1 131 0
 375              		@ sp needed for prologue
 130:.\w5100.c     **** 	return data;
 376              		.loc 1 130 0
 377 002c E0B2     		uxtb	r0, r4
ARM GAS  C:\Users\atsu\AppData\Local\Temp\ccNplIXy.s 			page 10


 378              	.LVL37:
 379              		.loc 1 131 0
 380 002e 10BD     		pop	{r4, pc}
 381              		.cfi_endproc
 382              	.LFE43:
 383              		.size	IINCHIP_READ, .-IINCHIP_READ
 384              		.section	.text.wiz_write_buf,"ax",%progbits
 385              		.align	1
 386              		.global	wiz_write_buf
 387              		.code	16
 388              		.thumb_func
 389              		.type	wiz_write_buf, %function
 390              	wiz_write_buf:
 391              	.LFB44:
 132:.\w5100.c     **** 
 133:.\w5100.c     **** 
 134:.\w5100.c     **** uint16 wiz_write_buf(uint16 addr,uint8* buf,uint16 len)
 135:.\w5100.c     **** {
 392              		.loc 1 135 0
 393              		.cfi_startproc
 394              	.LVL38:
 395 0000 F8B5     		push	{r3, r4, r5, r6, r7, lr}
 396              	.LCFI3:
 397              		.cfi_def_cfa_offset 24
 398              		.cfi_offset 3, -24
 399              		.cfi_offset 4, -20
 400              		.cfi_offset 5, -16
 401              		.cfi_offset 6, -12
 402              		.cfi_offset 7, -8
 403              		.cfi_offset 14, -4
 134:.\w5100.c     **** uint16 wiz_write_buf(uint16 addr,uint8* buf,uint16 len)
 404              		.loc 1 134 0
 405 0002 1718     		add	r7, r2, r0
 406              		.loc 1 135 0
 407 0004 041C     		mov	r4, r0
 408 0006 161C     		mov	r6, r2
 409 0008 0D1C     		mov	r5, r1
 134:.\w5100.c     **** uint16 wiz_write_buf(uint16 addr,uint8* buf,uint16 len)
 410              		.loc 1 134 0
 411 000a BFB2     		uxth	r7, r7
 412              	.LVL39:
 413              	.L35:
 136:.\w5100.c     **** 	uint16 idx = 0;
 137:.\w5100.c     **** 	for(idx = 0; idx < len; idx++)
 414              		.loc 1 137 0 discriminator 1
 415 000c BC42     		cmp	r4, r7
 416 000e 18D0     		beq	.L37
 417              	.L36:
 138:.\w5100.c     **** 	{
 139:.\w5100.c     **** 		SPI_CS_Write(0);                             // CS=0, SPI start 
 418              		.loc 1 139 0 discriminator 2
 419 0010 0020     		mov	r0, #0
 420 0012 FFF7FEFF 		bl	SPI_CS_Write
 421              	.LVL40:
 140:.\w5100.c     **** 
 141:.\w5100.c     **** 		SPI_transfer(0xF0);
 422              		.loc 1 141 0 discriminator 2
ARM GAS  C:\Users\atsu\AppData\Local\Temp\ccNplIXy.s 			page 11


 423 0016 1020     		mov	r0, #16
 424 0018 4042     		neg	r0, r0
 425 001a FFF7FEFF 		bl	SPI_transfer
 426              	.LVL41:
 142:.\w5100.c     **** 		SPI_transfer(addr >> 8);
 427              		.loc 1 142 0 discriminator 2
 428 001e 210A     		lsr	r1, r4, #8
 429 0020 48B2     		sxtb	r0, r1
 430 0022 FFF7FEFF 		bl	SPI_transfer
 431              	.LVL42:
 143:.\w5100.c     **** 		SPI_transfer(addr & 0xFF);
 432              		.loc 1 143 0 discriminator 2
 433 0026 60B2     		sxtb	r0, r4
 434 0028 FFF7FEFF 		bl	SPI_transfer
 435              	.LVL43:
 144:.\w5100.c     **** 		addr++;
 145:.\w5100.c     **** 		SPI_transfer(buf[idx]);
 436              		.loc 1 145 0 discriminator 2
 437 002c 0022     		mov	r2, #0
 438 002e A856     		ldrsb	r0, [r5, r2]
 439 0030 FFF7FEFF 		bl	SPI_transfer
 440              	.LVL44:
 144:.\w5100.c     **** 		addr++;
 441              		.loc 1 144 0 discriminator 2
 442 0034 0134     		add	r4, r4, #1
 443              	.LVL45:
 146:.\w5100.c     **** 
 147:.\w5100.c     **** 		SPI_CS_Write(1);                             // CS=0, SPI end 
 444              		.loc 1 147 0 discriminator 2
 445 0036 0120     		mov	r0, #1
 144:.\w5100.c     **** 		addr++;
 446              		.loc 1 144 0 discriminator 2
 447 0038 A4B2     		uxth	r4, r4
 448              	.LVL46:
 449              		.loc 1 147 0 discriminator 2
 450 003a FFF7FEFF 		bl	SPI_CS_Write
 451              	.LVL47:
 452 003e 0135     		add	r5, r5, #1
 453 0040 E4E7     		b	.L35
 454              	.L37:
 148:.\w5100.c     **** 	}
 149:.\w5100.c     **** 	return len;
 150:.\w5100.c     **** }
 455              		.loc 1 150 0
 456 0042 301C     		mov	r0, r6
 457              		@ sp needed for prologue
 458              	.LVL48:
 459 0044 F8BD     		pop	{r3, r4, r5, r6, r7, pc}
 460              		.cfi_endproc
 461              	.LFE44:
 462              		.size	wiz_write_buf, .-wiz_write_buf
 463              		.section	.text.wiz_read_buf,"ax",%progbits
 464              		.align	1
 465              		.global	wiz_read_buf
 466              		.code	16
 467              		.thumb_func
 468              		.type	wiz_read_buf, %function
ARM GAS  C:\Users\atsu\AppData\Local\Temp\ccNplIXy.s 			page 12


 469              	wiz_read_buf:
 470              	.LFB45:
 151:.\w5100.c     **** 
 152:.\w5100.c     **** 
 153:.\w5100.c     **** uint16 wiz_read_buf(uint16 addr, uint8* buf,uint16 len)
 154:.\w5100.c     **** {
 471              		.loc 1 154 0
 472              		.cfi_startproc
 473              	.LVL49:
 474 0000 F8B5     		push	{r3, r4, r5, r6, r7, lr}
 475              	.LCFI4:
 476              		.cfi_def_cfa_offset 24
 477              		.cfi_offset 3, -24
 478              		.cfi_offset 4, -20
 479              		.cfi_offset 5, -16
 480              		.cfi_offset 6, -12
 481              		.cfi_offset 7, -8
 482              		.cfi_offset 14, -4
 153:.\w5100.c     **** uint16 wiz_read_buf(uint16 addr, uint8* buf,uint16 len)
 483              		.loc 1 153 0
 484 0002 1718     		add	r7, r2, r0
 485              		.loc 1 154 0
 486 0004 041C     		mov	r4, r0
 487 0006 161C     		mov	r6, r2
 488 0008 0D1C     		mov	r5, r1
 153:.\w5100.c     **** uint16 wiz_read_buf(uint16 addr, uint8* buf,uint16 len)
 489              		.loc 1 153 0
 490 000a BFB2     		uxth	r7, r7
 491              	.LVL50:
 492              	.L39:
 155:.\w5100.c     **** 	uint16 idx = 0;
 156:.\w5100.c     **** 	for (idx=0; idx<len; idx++)
 493              		.loc 1 156 0 discriminator 1
 494 000c BC42     		cmp	r4, r7
 495 000e 17D0     		beq	.L41
 496              	.L40:
 157:.\w5100.c     **** 	{
 158:.\w5100.c     **** 		SPI_CS_Write(0);	// CS=0, SPI start 
 497              		.loc 1 158 0 discriminator 2
 498 0010 0020     		mov	r0, #0
 499 0012 FFF7FEFF 		bl	SPI_CS_Write
 500              	.LVL51:
 159:.\w5100.c     **** 		SPI_transfer(0x0F);
 501              		.loc 1 159 0 discriminator 2
 502 0016 0F20     		mov	r0, #15
 503 0018 FFF7FEFF 		bl	SPI_transfer
 504              	.LVL52:
 160:.\w5100.c     **** 		SPI_transfer(addr >> 8);
 505              		.loc 1 160 0 discriminator 2
 506 001c 200A     		lsr	r0, r4, #8
 507 001e 40B2     		sxtb	r0, r0
 508 0020 FFF7FEFF 		bl	SPI_transfer
 509              	.LVL53:
 161:.\w5100.c     **** 		SPI_transfer(addr & 0xFF);
 510              		.loc 1 161 0 discriminator 2
 511 0024 60B2     		sxtb	r0, r4
 512 0026 FFF7FEFF 		bl	SPI_transfer
ARM GAS  C:\Users\atsu\AppData\Local\Temp\ccNplIXy.s 			page 13


 513              	.LVL54:
 162:.\w5100.c     **** 		addr++;
 163:.\w5100.c     **** 		buf[idx] = SPI_transfer(0);
 514              		.loc 1 163 0 discriminator 2
 515 002a 0020     		mov	r0, #0
 516 002c FFF7FEFF 		bl	SPI_transfer
 517              	.LVL55:
 162:.\w5100.c     **** 		addr++;
 518              		.loc 1 162 0 discriminator 2
 519 0030 0134     		add	r4, r4, #1
 520              	.LVL56:
 521              		.loc 1 163 0 discriminator 2
 522 0032 2870     		strb	r0, [r5]
 164:.\w5100.c     **** 		SPI_CS_Write(1);                             // CS=0, SPI end 	   
 523              		.loc 1 164 0 discriminator 2
 524 0034 0120     		mov	r0, #1
 162:.\w5100.c     **** 		addr++;
 525              		.loc 1 162 0 discriminator 2
 526 0036 A4B2     		uxth	r4, r4
 527              	.LVL57:
 528              		.loc 1 164 0 discriminator 2
 529 0038 FFF7FEFF 		bl	SPI_CS_Write
 530              	.LVL58:
 531 003c 0135     		add	r5, r5, #1
 532 003e E5E7     		b	.L39
 533              	.L41:
 165:.\w5100.c     **** 	   }
 166:.\w5100.c     **** 	return len;
 167:.\w5100.c     **** }
 534              		.loc 1 167 0
 535 0040 301C     		mov	r0, r6
 536              		@ sp needed for prologue
 537              	.LVL59:
 538 0042 F8BD     		pop	{r3, r4, r5, r6, r7, pc}
 539              		.cfi_endproc
 540              	.LFE45:
 541              		.size	wiz_read_buf, .-wiz_read_buf
 542              		.section	.text.sysinit,"ax",%progbits
 543              		.align	1
 544              		.global	sysinit
 545              		.code	16
 546              		.thumb_func
 547              		.type	sysinit, %function
 548              	sysinit:
 549              	.LFB47:
 168:.\w5100.c     **** 
 169:.\w5100.c     **** 
 170:.\w5100.c     **** /**
 171:.\w5100.c     **** @brief	Socket interrupt routine
 172:.\w5100.c     **** */ 
 173:.\w5100.c     **** #ifdef __DEF_IINCHIP_INT__
 174:.\w5100.c     **** ISR(INT4_vect)
 175:.\w5100.c     **** {
 176:.\w5100.c     **** 	uint8 int_val;
 177:.\w5100.c     **** 	IINCHIP_ISR_DISABLE();
 178:.\w5100.c     **** 	int_val = IINCHIP_READ(IR);
 179:.\w5100.c     **** 	
ARM GAS  C:\Users\atsu\AppData\Local\Temp\ccNplIXy.s 			page 14


 180:.\w5100.c     **** 	/* +200801[bj] process all of interupt */
 181:.\w5100.c     ****    do {
 182:.\w5100.c     ****    /*---*/
 183:.\w5100.c     ****    
 184:.\w5100.c     ****    	if (int_val & IR_CONFLICT)
 185:.\w5100.c     ****    	{
 186:.\w5100.c     ****    		printf("IP conflict : %.2x\r\n", int_val);
 187:.\w5100.c     ****    	}
 188:.\w5100.c     ****    	if (int_val & IR_UNREACH)
 189:.\w5100.c     ****    	{
 190:.\w5100.c     ****    		printf("INT Port Unreachable : %.2x\r\n", int_val);
 191:.\w5100.c     ****    		printf("UIPR0 : %d.%d.%d.%d\r\n", IINCHIP_READ(UIPR0), IINCHIP_READ(UIPR0+1), IINCHIP_READ(UIP
 192:.\w5100.c     ****    		printf("UPORT0 : %.2x %.2x\r\n", IINCHIP_READ(UPORT0), IINCHIP_READ(UPORT0+1));
 193:.\w5100.c     ****    	}
 194:.\w5100.c     ****    
 195:.\w5100.c     ****    	/* +200801[bj] interrupt clear */
 196:.\w5100.c     ****    	IINCHIP_WRITE(IR, 0xf0); 
 197:.\w5100.c     ****       /*---*/
 198:.\w5100.c     ****    
 199:.\w5100.c     ****    	if (int_val & IR_SOCK(0))
 200:.\w5100.c     ****    	{
 201:.\w5100.c     ****    	/* +-200801[bj] save interrupt value*/
 202:.\w5100.c     ****    		I_STATUS[0] |= IINCHIP_READ(Sn_IR(0)); // can be come to over two times.
 203:.\w5100.c     ****    		IINCHIP_WRITE(Sn_IR(0), I_STATUS[0]);
 204:.\w5100.c     ****       /*---*/
 205:.\w5100.c     ****    	}
 206:.\w5100.c     ****    	if (int_val & IR_SOCK(1))
 207:.\w5100.c     ****    	{
 208:.\w5100.c     ****    	/* +-200801[bj] save interrupt value*/
 209:.\w5100.c     ****    		I_STATUS[1] |= IINCHIP_READ(Sn_IR(1));
 210:.\w5100.c     ****    		IINCHIP_WRITE(Sn_IR(1), I_STATUS[1]);
 211:.\w5100.c     ****       /*---*/
 212:.\w5100.c     ****    	}
 213:.\w5100.c     ****    	if (int_val & IR_SOCK(2))
 214:.\w5100.c     ****    	{
 215:.\w5100.c     ****    	/* +-200801[bj] save interrupt value*/
 216:.\w5100.c     ****    		I_STATUS[2] |= IINCHIP_READ(Sn_IR(2));
 217:.\w5100.c     ****    		IINCHIP_WRITE(Sn_IR(2), I_STATUS[2]);
 218:.\w5100.c     ****       /*---*/
 219:.\w5100.c     ****    	}
 220:.\w5100.c     ****    	if (int_val & IR_SOCK(3))
 221:.\w5100.c     ****    	{
 222:.\w5100.c     ****    	/* +-200801[bj] save interrupt value*/
 223:.\w5100.c     ****    		I_STATUS[3] |= IINCHIP_READ(Sn_IR(3));
 224:.\w5100.c     ****    		IINCHIP_WRITE(Sn_IR(3), I_STATUS[3]);
 225:.\w5100.c     ****       /*---*/
 226:.\w5100.c     ****    	}
 227:.\w5100.c     ****    
 228:.\w5100.c     ****    	/* +-200801[bj] re-read interrupt value*/
 229:.\w5100.c     ****    	int_val = IINCHIP_READ(IR);
 230:.\w5100.c     **** 
 231:.\w5100.c     **** 	/* +200801[bj] if exist, contiue to process */
 232:.\w5100.c     ****    } while (int_val != 0x00);
 233:.\w5100.c     ****    /*---*/
 234:.\w5100.c     **** 
 235:.\w5100.c     **** 	IINCHIP_ISR_ENABLE();
 236:.\w5100.c     **** }
ARM GAS  C:\Users\atsu\AppData\Local\Temp\ccNplIXy.s 			page 15


 237:.\w5100.c     **** #endif
 238:.\w5100.c     **** 
 239:.\w5100.c     **** /**
 240:.\w5100.c     **** @brief	This function is for resetting of the iinchip. Initializes the iinchip to work in whether DI
 241:.\w5100.c     **** */ 
 242:.\w5100.c     **** void iinchip_init(void)
 243:.\w5100.c     **** {	
 244:.\w5100.c     **** 	CyDelay(300);
 245:.\w5100.c     **** 	SPI_Start();
 246:.\w5100.c     **** 	setMR( MR_RST );
 247:.\w5100.c     **** #if (__DEF_IINCHIP_BUS__ == __DEF_IINCHIP_INDIRECT_MODE__)
 248:.\w5100.c     **** 	setMR( MR_IND | MR_AI );
 249:.\w5100.c     **** #ifdef __DEF_IINCHIP_DBG__	
 250:.\w5100.c     **** 	printf("MR value is %d \r\n",IINCHIP_READ(MR));
 251:.\w5100.c     **** #endif	
 252:.\w5100.c     **** #endif
 253:.\w5100.c     **** }
 254:.\w5100.c     **** 
 255:.\w5100.c     **** 
 256:.\w5100.c     **** /**
 257:.\w5100.c     **** @brief	This function set the transmit & receive buffer size as per the channels is used
 258:.\w5100.c     **** 
 259:.\w5100.c     **** Note for TMSR and RMSR bits are as follows\n
 260:.\w5100.c     **** bit 1-0 : memory size of channel #0 \n
 261:.\w5100.c     **** bit 3-2 : memory size of channel #1 \n
 262:.\w5100.c     **** bit 5-4 : memory size of channel #2 \n
 263:.\w5100.c     **** bit 7-6 : memory size of channel #3 \n\n
 264:.\w5100.c     **** Maximum memory size for Tx, Rx in the W5100 is 8K uint8s,\n
 265:.\w5100.c     **** In the range of 8Kuint8s, the memory size could be allocated dynamically by each channel.\n
 266:.\w5100.c     **** Be attentive to sum of memory size shouldn't exceed 8Kuint8s\n
 267:.\w5100.c     **** and to data transmission and receiption from non-allocated channel may cause some problems.\n
 268:.\w5100.c     **** If the 8Kuint8s memory is already  assigned to centain channel, \n
 269:.\w5100.c     **** other 3 channels couldn't be used, for there's no available memory.\n
 270:.\w5100.c     **** If two 4Kuint8s memory are assigned to two each channels, \n
 271:.\w5100.c     **** other 2 channels couldn't be used, for there's no available memory.\n
 272:.\w5100.c     **** */ 
 273:.\w5100.c     **** void sysinit(
 274:.\w5100.c     **** 	uint8 tx_size, 	/**< tx_size Tx memory size (00 - 1Kuint8, 01- 2KBtye, 10 - 4Kuint8, 11 - 8Kuint8)
 275:.\w5100.c     **** 	uint8 rx_size		/**< rx_size Rx memory size (00 - 1Kuint8, 01- 2KBtye, 10 - 4Kuint8, 11 - 8Kuint8) 
 276:.\w5100.c     **** 	)
 277:.\w5100.c     **** {
 550              		.loc 1 277 0
 551              		.cfi_startproc
 552              	.LVL60:
 553 0000 F0B5     		push	{r4, r5, r6, r7, lr}
 554              	.LCFI5:
 555              		.cfi_def_cfa_offset 20
 556              		.cfi_offset 4, -20
 557              		.cfi_offset 5, -16
 558              		.cfi_offset 6, -12
 559              		.cfi_offset 7, -8
 560              		.cfi_offset 14, -4
 561 0002 85B0     		sub	sp, sp, #20
 562              	.LCFI6:
 563              		.cfi_def_cfa_offset 40
 564              		.loc 1 277 0
 565 0004 0290     		str	r0, [sp, #8]
ARM GAS  C:\Users\atsu\AppData\Local\Temp\ccNplIXy.s 			page 16


 566 0006 0391     		str	r1, [sp, #12]
 278:.\w5100.c     **** 	int16 i;
 279:.\w5100.c     **** 	int16 ssum,rsum;
 280:.\w5100.c     **** 
 281:.\w5100.c     **** #ifdef __DEF_IINCHIP_DBG__
 282:.\w5100.c     **** 	printf("sysinit()\r\n"); 
 283:.\w5100.c     **** #endif
 284:.\w5100.c     **** 
 285:.\w5100.c     **** 	ssum = 0;
 286:.\w5100.c     **** 	rsum = 0;
 287:.\w5100.c     **** 	
 288:.\w5100.c     **** 	IINCHIP_WRITE(TMSR,tx_size); /* Set Tx memory size for each channel */
 567              		.loc 1 288 0
 568 0008 1B20     		mov	r0, #27
 569              	.LVL61:
 570 000a 0299     		ldr	r1, [sp, #8]
 571              	.LVL62:
 572 000c FFF7FEFF 		bl	IINCHIP_WRITE
 573              	.LVL63:
 289:.\w5100.c     **** 	IINCHIP_WRITE(RMSR,rx_size);	 /* Set Rx memory size for each channel */
 574              		.loc 1 289 0
 575 0010 0399     		ldr	r1, [sp, #12]
 576 0012 1A20     		mov	r0, #26
 577 0014 FFF7FEFF 		bl	IINCHIP_WRITE
 578              	.LVL64:
 290:.\w5100.c     **** 
 291:.\w5100.c     **** 	SBUFBASEADDRESS[0] = (uint16)(__DEF_IINCHIP_MAP_TXBUF__);		/* Set base address of Tx memory for ch
 579              		.loc 1 291 0
 580 0018 444B     		ldr	r3, .L61
 581 001a 8022     		mov	r2, #128
 292:.\w5100.c     **** 	RBUFBASEADDRESS[0] = (uint16)(__DEF_IINCHIP_MAP_RXBUF__);		/* Set base address of Rx memory for ch
 582              		.loc 1 292 0
 583 001c C021     		mov	r1, #192
 584 001e CC01     		lsl	r4, r1, #7
 291:.\w5100.c     **** 	SBUFBASEADDRESS[0] = (uint16)(__DEF_IINCHIP_MAP_TXBUF__);		/* Set base address of Tx memory for ch
 585              		.loc 1 291 0
 586 0020 D001     		lsl	r0, r2, #7
 587              		.loc 1 292 0
 588 0022 9C84     		strh	r4, [r3, #36]
 589              	.LVL65:
 291:.\w5100.c     **** 	SBUFBASEADDRESS[0] = (uint16)(__DEF_IINCHIP_MAP_TXBUF__);		/* Set base address of Tx memory for ch
 590              		.loc 1 291 0
 591 0024 9885     		strh	r0, [r3, #44]
 592              		.loc 1 292 0
 593 0026 0023     		mov	r3, #0
 286:.\w5100.c     **** 	rsum = 0;
 594              		.loc 1 286 0
 595 0028 0093     		str	r3, [sp]
 285:.\w5100.c     **** 	ssum = 0;
 596              		.loc 1 285 0
 597 002a 1D1C     		mov	r5, r3
 293:.\w5100.c     **** 
 294:.\w5100.c     **** #ifdef __DEF_IINCHIP_DBG__
 295:.\w5100.c     **** 	printf("Channel : SEND MEM SIZE : RECV MEM SIZE\r\n");
 296:.\w5100.c     **** #endif
 297:.\w5100.c     **** 
 298:.\w5100.c     ****    for (i = 0 ; i < MAX_SOCK_NUM; i++)       // Set the size, masking and base address of Tx & Rx m
ARM GAS  C:\Users\atsu\AppData\Local\Temp\ccNplIXy.s 			page 17


 598              		.loc 1 298 0
 599 002c 1C1C     		mov	r4, r3
 600              	.LVL66:
 601              	.L54:
 299:.\w5100.c     **** 	{
 300:.\w5100.c     **** 		SSIZE[i] = (int16)(0);
 602              		.loc 1 300 0
 603 002e 3F4E     		ldr	r6, .L61
 604 0030 0020     		mov	r0, #0
 605 0032 321C     		mov	r2, r6
 606 0034 0C32     		add	r2, r2, #12
 301:.\w5100.c     **** 		RSIZE[i] = (int16)(0);
 607              		.loc 1 301 0
 608 0036 371D     		add	r7, r6, #4
 300:.\w5100.c     **** 		SSIZE[i] = (int16)(0);
 609              		.loc 1 300 0
 610 0038 9852     		strh	r0, [r3, r2]
 611              		.loc 1 301 0
 612 003a D853     		strh	r0, [r3, r7]
 613 003c 3C48     		ldr	r0, .L61+4
 302:.\w5100.c     **** 		if (ssum < 8192)
 614              		.loc 1 302 0
 615 003e 29B2     		sxth	r1, r5
 616 0040 8142     		cmp	r1, r0
 617 0042 1BDC     		bgt	.L43
 303:.\w5100.c     **** 		{
 304:.\w5100.c     ****          switch((tx_size >> i*2) & 0x03)  // Set Tx memory size
 618              		.loc 1 304 0
 619 0044 029F     		ldr	r7, [sp, #8]
 620 0046 0321     		mov	r1, #3
 621 0048 1F41     		asr	r7, r7, r3
 622 004a 3940     		and	r1, r7
 623 004c 1C36     		add	r6, r6, #28
 305:.\w5100.c     **** 			{
 306:.\w5100.c     **** 			case 0:
 307:.\w5100.c     **** 				SSIZE[i] = (int16)(1024);
 308:.\w5100.c     **** 				SMASK[i] = (uint16)(0x03FF);
 309:.\w5100.c     **** 				break;
 310:.\w5100.c     **** 			case 1:
 311:.\w5100.c     **** 				SSIZE[i] = (int16)(2048);
 312:.\w5100.c     **** 				SMASK[i] = (uint16)(0x07FF);
 313:.\w5100.c     **** 				break;
 314:.\w5100.c     **** 			case 2:
 315:.\w5100.c     **** 				SSIZE[i] = (int16)(4096);
 624              		.loc 1 315 0
 625 004e 8027     		mov	r7, #128
 304:.\w5100.c     ****          switch((tx_size >> i*2) & 0x03)  // Set Tx memory size
 626              		.loc 1 304 0
 627 0050 0229     		cmp	r1, #2
 628 0052 0BD0     		beq	.L46
 629 0054 0329     		cmp	r1, #3
 630 0056 0ED0     		beq	.L47
 631 0058 0129     		cmp	r1, #1
 632 005a 03D0     		beq	.L45
 307:.\w5100.c     **** 				SSIZE[i] = (int16)(1024);
 633              		.loc 1 307 0
 634 005c F900     		lsl	r1, r7, #3
ARM GAS  C:\Users\atsu\AppData\Local\Temp\ccNplIXy.s 			page 18


 635 005e 9952     		strh	r1, [r3, r2]
 308:.\w5100.c     **** 				SMASK[i] = (uint16)(0x03FF);
 636              		.loc 1 308 0
 637 0060 344A     		ldr	r2, .L61+8
 638 0062 06E0     		b	.L59
 639              	.L45:
 311:.\w5100.c     **** 				SSIZE[i] = (int16)(2048);
 640              		.loc 1 311 0
 641 0064 3F01     		lsl	r7, r7, #4
 642 0066 9F52     		strh	r7, [r3, r2]
 312:.\w5100.c     **** 				SMASK[i] = (uint16)(0x07FF);
 643              		.loc 1 312 0
 644 0068 334A     		ldr	r2, .L61+12
 645 006a 02E0     		b	.L59
 646              	.L46:
 647              		.loc 1 315 0
 648 006c 7F01     		lsl	r7, r7, #5
 649 006e 9F52     		strh	r7, [r3, r2]
 316:.\w5100.c     **** 				SMASK[i] = (uint16)(0x0FFF);
 650              		.loc 1 316 0
 651 0070 324A     		ldr	r2, .L61+16
 652              	.L59:
 653 0072 F252     		strh	r2, [r6, r3]
 317:.\w5100.c     **** 				break;
 654              		.loc 1 317 0
 655 0074 02E0     		b	.L43
 656              	.L47:
 318:.\w5100.c     **** 			case 3:
 319:.\w5100.c     **** 				SSIZE[i] = (int16)(8192);
 657              		.loc 1 319 0
 658 0076 B901     		lsl	r1, r7, #6
 659 0078 9952     		strh	r1, [r3, r2]
 320:.\w5100.c     **** 				SMASK[i] = (uint16)(0x1FFF);
 660              		.loc 1 320 0
 661 007a F052     		strh	r0, [r6, r3]
 662              	.L43:
 321:.\w5100.c     **** 				break;
 322:.\w5100.c     **** 			}
 323:.\w5100.c     **** 		}
 324:.\w5100.c     **** 		if (rsum < 8192)
 663              		.loc 1 324 0
 664 007c 6E46     		mov	r6, sp
 665 007e 0021     		mov	r1, #0
 666 0080 715E     		ldrsh	r1, [r6, r1]
 667 0082 8142     		cmp	r1, r0
 668 0084 26DC     		bgt	.L48
 325:.\w5100.c     **** 		{
 326:.\w5100.c     ****          switch((rx_size >> i*2) & 0x03)     // Set Rx memory size
 669              		.loc 1 326 0
 670 0086 0398     		ldr	r0, [sp, #12]
 671 0088 0327     		mov	r7, #3
 672 008a 1841     		asr	r0, r0, r3
 673 008c 3840     		and	r0, r7
 674 008e 274A     		ldr	r2, .L61
 675 0090 0228     		cmp	r0, #2
 676 0092 11D0     		beq	.L51
 677 0094 0328     		cmp	r0, #3
ARM GAS  C:\Users\atsu\AppData\Local\Temp\ccNplIXy.s 			page 19


 678 0096 16D0     		beq	.L52
 679 0098 0128     		cmp	r0, #1
 680 009a 06D0     		beq	.L50
 327:.\w5100.c     **** 			{
 328:.\w5100.c     **** 			case 0:
 329:.\w5100.c     **** 				RSIZE[i] = (int16)(1024);
 681              		.loc 1 329 0
 682 009c 8026     		mov	r6, #128
 683 009e 111D     		add	r1, r2, #4
 684 00a0 F000     		lsl	r0, r6, #3
 685 00a2 5852     		strh	r0, [r3, r1]
 330:.\w5100.c     **** 				RMASK[i] = (uint16)(0x03FF);
 686              		.loc 1 330 0
 687 00a4 1432     		add	r2, r2, #20
 688 00a6 234E     		ldr	r6, .L61+8
 689 00a8 13E0     		b	.L60
 690              	.L50:
 331:.\w5100.c     **** 				break;
 332:.\w5100.c     **** 			case 1:
 333:.\w5100.c     **** 				RSIZE[i] = (int16)(2048);
 691              		.loc 1 333 0
 692 00aa 8021     		mov	r1, #128
 693 00ac 171D     		add	r7, r2, #4
 694 00ae 0E01     		lsl	r6, r1, #4
 695 00b0 DE53     		strh	r6, [r3, r7]
 334:.\w5100.c     **** 				RMASK[i] = (uint16)(0x07FF);
 696              		.loc 1 334 0
 697 00b2 1432     		add	r2, r2, #20
 698 00b4 204E     		ldr	r6, .L61+12
 699 00b6 0CE0     		b	.L60
 700              	.L51:
 335:.\w5100.c     **** 				break;
 336:.\w5100.c     **** 			case 2:
 337:.\w5100.c     **** 				RSIZE[i] = (int16)(4096);
 701              		.loc 1 337 0
 702 00b8 8027     		mov	r7, #128
 703 00ba 101D     		add	r0, r2, #4
 704 00bc 7901     		lsl	r1, r7, #5
 705 00be 1952     		strh	r1, [r3, r0]
 338:.\w5100.c     **** 				RMASK[i] = (uint16)(0x0FFF);
 706              		.loc 1 338 0
 707 00c0 1432     		add	r2, r2, #20
 708 00c2 1E4E     		ldr	r6, .L61+16
 709 00c4 05E0     		b	.L60
 710              	.L52:
 339:.\w5100.c     **** 				break;
 340:.\w5100.c     **** 			case 3:
 341:.\w5100.c     **** 				RSIZE[i] = (int16)(8192);
 711              		.loc 1 341 0
 712 00c6 8027     		mov	r7, #128
 713 00c8 101D     		add	r0, r2, #4
 714 00ca B901     		lsl	r1, r7, #6
 342:.\w5100.c     **** 				RMASK[i] = (uint16)(0x1FFF);
 715              		.loc 1 342 0
 716 00cc 184E     		ldr	r6, .L61+4
 341:.\w5100.c     **** 				RSIZE[i] = (int16)(8192);
 717              		.loc 1 341 0
ARM GAS  C:\Users\atsu\AppData\Local\Temp\ccNplIXy.s 			page 20


 718 00ce 1952     		strh	r1, [r3, r0]
 719              		.loc 1 342 0
 720 00d0 1432     		add	r2, r2, #20
 721              	.L60:
 722 00d2 9E52     		strh	r6, [r3, r2]
 723              	.L48:
 343:.\w5100.c     **** 				break;
 344:.\w5100.c     **** 			}
 345:.\w5100.c     **** 		}
 346:.\w5100.c     **** 		ssum += SSIZE[i];
 724              		.loc 1 346 0
 725 00d4 154A     		ldr	r2, .L61
 726 00d6 171C     		mov	r7, r2
 727 00d8 0C37     		add	r7, r7, #12
 728 00da DE5B     		ldrh	r6, [r3, r7]
 347:.\w5100.c     **** 		rsum += RSIZE[i];
 729              		.loc 1 347 0
 730 00dc 101D     		add	r0, r2, #4
 346:.\w5100.c     **** 		ssum += SSIZE[i];
 731              		.loc 1 346 0
 732 00de 7519     		add	r5, r6, r5
 733              		.loc 1 347 0
 734 00e0 195A     		ldrh	r1, [r3, r0]
 735 00e2 009E     		ldr	r6, [sp]
 346:.\w5100.c     **** 		ssum += SSIZE[i];
 736              		.loc 1 346 0
 737 00e4 ADB2     		uxth	r5, r5
 738              	.LVL67:
 739              		.loc 1 347 0
 740 00e6 8919     		add	r1, r1, r6
 741 00e8 8EB2     		uxth	r6, r1
 742 00ea 0096     		str	r6, [sp]
 743              	.LVL68:
 348:.\w5100.c     **** 
 349:.\w5100.c     ****       if (i != 0)             // Sets base address of Tx and Rx memory for channel #1,#2,#3
 744              		.loc 1 349 0
 745 00ec 002C     		cmp	r4, #0
 746 00ee 15D0     		beq	.L53
 350:.\w5100.c     **** 		{
 351:.\w5100.c     **** 			SBUFBASEADDRESS[i] = SBUFBASEADDRESS[i-1] + SSIZE[i-1];
 747              		.loc 1 351 0
 748 00f0 161C     		mov	r6, r2
 749 00f2 2C36     		add	r6, r6, #44
 273:.\w5100.c     **** void sysinit(
 750              		.loc 1 273 0
 751 00f4 F118     		add	r1, r6, r3
 752 00f6 0239     		sub	r1, r1, #2
 753 00f8 FF18     		add	r7, r7, r3
 754 00fa 023F     		sub	r7, r7, #2
 755 00fc 0191     		str	r1, [sp, #4]
 756              		.loc 1 351 0
 757 00fe 3988     		ldrh	r1, [r7]
 758 0100 019F     		ldr	r7, [sp, #4]
 759 0102 8C46     		mov	ip, r1
 352:.\w5100.c     **** 			RBUFBASEADDRESS[i] = RBUFBASEADDRESS[i-1] + RSIZE[i-1];
 760              		.loc 1 352 0
 761 0104 2432     		add	r2, r2, #36
ARM GAS  C:\Users\atsu\AppData\Local\Temp\ccNplIXy.s 			page 21


 351:.\w5100.c     **** 			SBUFBASEADDRESS[i] = SBUFBASEADDRESS[i-1] + SSIZE[i-1];
 762              		.loc 1 351 0
 763 0106 3988     		ldrh	r1, [r7]
 273:.\w5100.c     **** void sysinit(
 764              		.loc 1 273 0
 765 0108 C018     		add	r0, r0, r3
 766 010a D718     		add	r7, r2, r3
 351:.\w5100.c     **** 			SBUFBASEADDRESS[i] = SBUFBASEADDRESS[i-1] + SSIZE[i-1];
 767              		.loc 1 351 0
 768 010c 6144     		add	r1, r1, ip
 273:.\w5100.c     **** void sysinit(
 769              		.loc 1 273 0
 770 010e 0238     		sub	r0, r0, #2
 771 0110 023F     		sub	r7, r7, #2
 351:.\w5100.c     **** 			SBUFBASEADDRESS[i] = SBUFBASEADDRESS[i-1] + SSIZE[i-1];
 772              		.loc 1 351 0
 773 0112 9953     		strh	r1, [r3, r6]
 774              		.loc 1 352 0
 775 0114 3988     		ldrh	r1, [r7]
 776 0116 0688     		ldrh	r6, [r0]
 777 0118 7018     		add	r0, r6, r1
 778 011a 9852     		strh	r0, [r3, r2]
 779              	.L53:
 298:.\w5100.c     ****    for (i = 0 ; i < MAX_SOCK_NUM; i++)       // Set the size, masking and base address of Tx & Rx m
 780              		.loc 1 298 0
 781 011c 0134     		add	r4, r4, #1
 782 011e 0233     		add	r3, r3, #2
 783 0120 A4B2     		uxth	r4, r4
 784              	.LVL69:
 785 0122 082B     		cmp	r3, #8
 786 0124 00D0     		beq	.LCB675
 787 0126 82E7     		b	.L54	@long jump
 788              	.LCB675:
 353:.\w5100.c     **** 		}
 354:.\w5100.c     **** #ifdef __DEF_IINCHIP_DBG__
 355:.\w5100.c     **** 		printf("%d : %.4x : %.4x : %.4x : %.4x\r\n", i, (uint16)SBUFBASEADDRESS[i], (uint16)RBUFBASEADDRE
 356:.\w5100.c     **** #endif
 357:.\w5100.c     **** 	}
 358:.\w5100.c     **** }
 789              		.loc 1 358 0
 790 0128 05B0     		add	sp, sp, #20
 791              	.LVL70:
 792              		@ sp needed for prologue
 793              	.LVL71:
 794              	.LVL72:
 795 012a F0BD     		pop	{r4, r5, r6, r7, pc}
 796              	.L62:
 797              		.align	2
 798              	.L61:
 799 012c 00000000 		.word	.LANCHOR0
 800 0130 FF1F0000 		.word	8191
 801 0134 FF030000 		.word	1023
 802 0138 FF070000 		.word	2047
 803 013c FF0F0000 		.word	4095
 804              		.cfi_endproc
 805              	.LFE47:
 806              		.size	sysinit, .-sysinit
ARM GAS  C:\Users\atsu\AppData\Local\Temp\ccNplIXy.s 			page 22


 807              		.section	.text.setMR,"ax",%progbits
 808              		.align	1
 809              		.global	setMR
 810              		.code	16
 811              		.thumb_func
 812              		.type	setMR, %function
 813              	setMR:
 814              	.LFB48:
 359:.\w5100.c     **** 
 360:.\w5100.c     **** 
 361:.\w5100.c     **** void setMR(uint8 val)
 362:.\w5100.c     **** {
 815              		.loc 1 362 0
 816              		.cfi_startproc
 817              	.LVL73:
 818 0000 08B5     		push	{r3, lr}
 819              	.LCFI7:
 820              		.cfi_def_cfa_offset 8
 821              		.cfi_offset 3, -8
 822              		.cfi_offset 14, -4
 823              		.loc 1 362 0
 824 0002 011C     		mov	r1, r0
 363:.\w5100.c     **** 	IINCHIP_WRITE(MR,val);
 825              		.loc 1 363 0
 826 0004 8020     		mov	r0, #128
 827              	.LVL74:
 828 0006 0002     		lsl	r0, r0, #8
 829 0008 FFF7FEFF 		bl	IINCHIP_WRITE
 830              	.LVL75:
 364:.\w5100.c     **** 	
 365:.\w5100.c     **** }
 831              		.loc 1 365 0
 832              		@ sp needed for prologue
 833 000c 08BD     		pop	{r3, pc}
 834              		.cfi_endproc
 835              	.LFE48:
 836              		.size	setMR, .-setMR
 837              		.section	.text.iinchip_init,"ax",%progbits
 838              		.align	1
 839              		.global	iinchip_init
 840              		.code	16
 841              		.thumb_func
 842              		.type	iinchip_init, %function
 843              	iinchip_init:
 844              	.LFB46:
 243:.\w5100.c     **** {	
 845              		.loc 1 243 0
 846              		.cfi_startproc
 847 0000 08B5     		push	{r3, lr}
 848              	.LCFI8:
 849              		.cfi_def_cfa_offset 8
 850              		.cfi_offset 3, -8
 851              		.cfi_offset 14, -4
 244:.\w5100.c     **** 	CyDelay(300);
 852              		.loc 1 244 0
 853 0002 9620     		mov	r0, #150
 854 0004 4000     		lsl	r0, r0, #1
ARM GAS  C:\Users\atsu\AppData\Local\Temp\ccNplIXy.s 			page 23


 855 0006 FFF7FEFF 		bl	CyDelay
 856              	.LVL76:
 245:.\w5100.c     **** 	SPI_Start();
 857              		.loc 1 245 0
 858 000a FFF7FEFF 		bl	SPI_Start
 859              	.LVL77:
 246:.\w5100.c     **** 	setMR( MR_RST );
 860              		.loc 1 246 0
 861 000e 8020     		mov	r0, #128
 862 0010 FFF7FEFF 		bl	setMR
 863              	.LVL78:
 253:.\w5100.c     **** }
 864              		.loc 1 253 0
 865              		@ sp needed for prologue
 866 0014 08BD     		pop	{r3, pc}
 867              		.cfi_endproc
 868              	.LFE46:
 869              		.size	iinchip_init, .-iinchip_init
 870              		.section	.text.setGAR,"ax",%progbits
 871              		.align	1
 872              		.global	setGAR
 873              		.code	16
 874              		.thumb_func
 875              		.type	setGAR, %function
 876              	setGAR:
 877              	.LFB49:
 366:.\w5100.c     **** 
 367:.\w5100.c     **** 
 368:.\w5100.c     **** /**
 369:.\w5100.c     **** @brief	This function sets up gateway IP address.
 370:.\w5100.c     **** */ 
 371:.\w5100.c     **** void setGAR(
 372:.\w5100.c     **** 	uint8 * addr	/**< a pointer to a 4 -uint8 array responsible to set the Gateway IP address. */
 373:.\w5100.c     **** 	)
 374:.\w5100.c     **** {
 878              		.loc 1 374 0
 879              		.cfi_startproc
 880              	.LVL79:
 881 0000 10B5     		push	{r4, lr}
 882              	.LCFI9:
 883              		.cfi_def_cfa_offset 8
 884              		.cfi_offset 4, -8
 885              		.cfi_offset 14, -4
 886              		.loc 1 374 0
 887 0002 041C     		mov	r4, r0
 375:.\w5100.c     **** 	IINCHIP_WRITE((GAR0 + 0),addr[0]);
 888              		.loc 1 375 0
 889 0004 0178     		ldrb	r1, [r0]
 890 0006 0120     		mov	r0, #1
 891              	.LVL80:
 892 0008 FFF7FEFF 		bl	IINCHIP_WRITE
 893              	.LVL81:
 376:.\w5100.c     **** 	IINCHIP_WRITE((GAR0 + 1),addr[1]);
 894              		.loc 1 376 0
 895 000c 6178     		ldrb	r1, [r4, #1]
 896 000e 0220     		mov	r0, #2
 897 0010 FFF7FEFF 		bl	IINCHIP_WRITE
ARM GAS  C:\Users\atsu\AppData\Local\Temp\ccNplIXy.s 			page 24


 898              	.LVL82:
 377:.\w5100.c     **** 	IINCHIP_WRITE((GAR0 + 2),addr[2]);
 899              		.loc 1 377 0
 900 0014 A178     		ldrb	r1, [r4, #2]
 901 0016 0320     		mov	r0, #3
 902 0018 FFF7FEFF 		bl	IINCHIP_WRITE
 903              	.LVL83:
 378:.\w5100.c     **** 	IINCHIP_WRITE((GAR0 + 3),addr[3]);
 904              		.loc 1 378 0
 905 001c E178     		ldrb	r1, [r4, #3]
 906 001e 0420     		mov	r0, #4
 907 0020 FFF7FEFF 		bl	IINCHIP_WRITE
 908              	.LVL84:
 379:.\w5100.c     **** }
 909              		.loc 1 379 0
 910              		@ sp needed for prologue
 911              	.LVL85:
 912 0024 10BD     		pop	{r4, pc}
 913              		.cfi_endproc
 914              	.LFE49:
 915              		.size	setGAR, .-setGAR
 916              		.section	.text.getGWIP,"ax",%progbits
 917              		.align	1
 918              		.global	getGWIP
 919              		.code	16
 920              		.thumb_func
 921              		.type	getGWIP, %function
 922              	getGWIP:
 923              	.LFB50:
 380:.\w5100.c     **** void getGWIP(uint8 * addr)
 381:.\w5100.c     **** {
 924              		.loc 1 381 0
 925              		.cfi_startproc
 926              	.LVL86:
 927 0000 10B5     		push	{r4, lr}
 928              	.LCFI10:
 929              		.cfi_def_cfa_offset 8
 930              		.cfi_offset 4, -8
 931              		.cfi_offset 14, -4
 932              		.loc 1 381 0
 933 0002 041C     		mov	r4, r0
 382:.\w5100.c     **** 	addr[0] = IINCHIP_READ((GAR0 + 0));
 934              		.loc 1 382 0
 935 0004 0120     		mov	r0, #1
 936              	.LVL87:
 937 0006 FFF7FEFF 		bl	IINCHIP_READ
 938              	.LVL88:
 939 000a 2070     		strb	r0, [r4]
 383:.\w5100.c     **** 	addr[1] = IINCHIP_READ((GAR0 + 1));
 940              		.loc 1 383 0
 941 000c 0220     		mov	r0, #2
 942 000e FFF7FEFF 		bl	IINCHIP_READ
 943              	.LVL89:
 944 0012 6070     		strb	r0, [r4, #1]
 384:.\w5100.c     **** 	addr[2] = IINCHIP_READ((GAR0 + 2));
 945              		.loc 1 384 0
 946 0014 0320     		mov	r0, #3
ARM GAS  C:\Users\atsu\AppData\Local\Temp\ccNplIXy.s 			page 25


 947 0016 FFF7FEFF 		bl	IINCHIP_READ
 948              	.LVL90:
 949 001a A070     		strb	r0, [r4, #2]
 385:.\w5100.c     **** 	addr[3] = IINCHIP_READ((GAR0 + 3));
 950              		.loc 1 385 0
 951 001c 0420     		mov	r0, #4
 952 001e FFF7FEFF 		bl	IINCHIP_READ
 953              	.LVL91:
 386:.\w5100.c     **** }
 954              		.loc 1 386 0
 955              		@ sp needed for prologue
 385:.\w5100.c     **** 	addr[3] = IINCHIP_READ((GAR0 + 3));
 956              		.loc 1 385 0
 957 0022 E070     		strb	r0, [r4, #3]
 958              	.LVL92:
 959              		.loc 1 386 0
 960 0024 10BD     		pop	{r4, pc}
 961              		.cfi_endproc
 962              	.LFE50:
 963              		.size	getGWIP, .-getGWIP
 964              		.section	.text.setSUBR,"ax",%progbits
 965              		.align	1
 966              		.global	setSUBR
 967              		.code	16
 968              		.thumb_func
 969              		.type	setSUBR, %function
 970              	setSUBR:
 971              	.LFB51:
 387:.\w5100.c     **** 
 388:.\w5100.c     **** 
 389:.\w5100.c     **** /**
 390:.\w5100.c     **** @brief	It sets up SubnetMask address
 391:.\w5100.c     **** */ 
 392:.\w5100.c     **** void setSUBR(
 393:.\w5100.c     **** 	uint8 * addr	/**< a pointer to a 4 -uint8 array responsible to set the SubnetMask address */
 394:.\w5100.c     **** 	)
 395:.\w5100.c     **** {
 972              		.loc 1 395 0
 973              		.cfi_startproc
 974              	.LVL93:
 975 0000 10B5     		push	{r4, lr}
 976              	.LCFI11:
 977              		.cfi_def_cfa_offset 8
 978              		.cfi_offset 4, -8
 979              		.cfi_offset 14, -4
 980              		.loc 1 395 0
 981 0002 041C     		mov	r4, r0
 396:.\w5100.c     **** 	IINCHIP_WRITE((SUBR0 + 0),addr[0]);
 982              		.loc 1 396 0
 983 0004 0178     		ldrb	r1, [r0]
 984 0006 0520     		mov	r0, #5
 985              	.LVL94:
 986 0008 FFF7FEFF 		bl	IINCHIP_WRITE
 987              	.LVL95:
 397:.\w5100.c     **** 	IINCHIP_WRITE((SUBR0 + 1),addr[1]);
 988              		.loc 1 397 0
 989 000c 6178     		ldrb	r1, [r4, #1]
ARM GAS  C:\Users\atsu\AppData\Local\Temp\ccNplIXy.s 			page 26


 990 000e 0620     		mov	r0, #6
 991 0010 FFF7FEFF 		bl	IINCHIP_WRITE
 992              	.LVL96:
 398:.\w5100.c     **** 	IINCHIP_WRITE((SUBR0 + 2),addr[2]);
 993              		.loc 1 398 0
 994 0014 A178     		ldrb	r1, [r4, #2]
 995 0016 0720     		mov	r0, #7
 996 0018 FFF7FEFF 		bl	IINCHIP_WRITE
 997              	.LVL97:
 399:.\w5100.c     **** 	IINCHIP_WRITE((SUBR0 + 3),addr[3]);
 998              		.loc 1 399 0
 999 001c E178     		ldrb	r1, [r4, #3]
 1000 001e 0820     		mov	r0, #8
 1001 0020 FFF7FEFF 		bl	IINCHIP_WRITE
 1002              	.LVL98:
 400:.\w5100.c     **** }
 1003              		.loc 1 400 0
 1004              		@ sp needed for prologue
 1005              	.LVL99:
 1006 0024 10BD     		pop	{r4, pc}
 1007              		.cfi_endproc
 1008              	.LFE51:
 1009              		.size	setSUBR, .-setSUBR
 1010              		.section	.text.setSHAR,"ax",%progbits
 1011              		.align	1
 1012              		.global	setSHAR
 1013              		.code	16
 1014              		.thumb_func
 1015              		.type	setSHAR, %function
 1016              	setSHAR:
 1017              	.LFB52:
 401:.\w5100.c     **** 
 402:.\w5100.c     **** 
 403:.\w5100.c     **** /**
 404:.\w5100.c     **** @brief	This function sets up MAC address.
 405:.\w5100.c     **** */ 
 406:.\w5100.c     **** void setSHAR(
 407:.\w5100.c     **** 	uint8 * addr	/**< a pointer to a 6 -uint8 array responsible to set the MAC address. */
 408:.\w5100.c     **** 	)
 409:.\w5100.c     **** {
 1018              		.loc 1 409 0
 1019              		.cfi_startproc
 1020              	.LVL100:
 1021 0000 10B5     		push	{r4, lr}
 1022              	.LCFI12:
 1023              		.cfi_def_cfa_offset 8
 1024              		.cfi_offset 4, -8
 1025              		.cfi_offset 14, -4
 1026              		.loc 1 409 0
 1027 0002 041C     		mov	r4, r0
 410:.\w5100.c     **** 	IINCHIP_WRITE((SHAR0 + 0),addr[0]);
 1028              		.loc 1 410 0
 1029 0004 0178     		ldrb	r1, [r0]
 1030 0006 0920     		mov	r0, #9
 1031              	.LVL101:
 1032 0008 FFF7FEFF 		bl	IINCHIP_WRITE
 1033              	.LVL102:
ARM GAS  C:\Users\atsu\AppData\Local\Temp\ccNplIXy.s 			page 27


 411:.\w5100.c     **** 	IINCHIP_WRITE((SHAR0 + 1),addr[1]);
 1034              		.loc 1 411 0
 1035 000c 6178     		ldrb	r1, [r4, #1]
 1036 000e 0A20     		mov	r0, #10
 1037 0010 FFF7FEFF 		bl	IINCHIP_WRITE
 1038              	.LVL103:
 412:.\w5100.c     **** 	IINCHIP_WRITE((SHAR0 + 2),addr[2]);
 1039              		.loc 1 412 0
 1040 0014 A178     		ldrb	r1, [r4, #2]
 1041 0016 0B20     		mov	r0, #11
 1042 0018 FFF7FEFF 		bl	IINCHIP_WRITE
 1043              	.LVL104:
 413:.\w5100.c     **** 	IINCHIP_WRITE((SHAR0 + 3),addr[3]);
 1044              		.loc 1 413 0
 1045 001c E178     		ldrb	r1, [r4, #3]
 1046 001e 0C20     		mov	r0, #12
 1047 0020 FFF7FEFF 		bl	IINCHIP_WRITE
 1048              	.LVL105:
 414:.\w5100.c     **** 	IINCHIP_WRITE((SHAR0 + 4),addr[4]);
 1049              		.loc 1 414 0
 1050 0024 2179     		ldrb	r1, [r4, #4]
 1051 0026 0D20     		mov	r0, #13
 1052 0028 FFF7FEFF 		bl	IINCHIP_WRITE
 1053              	.LVL106:
 415:.\w5100.c     **** 	IINCHIP_WRITE((SHAR0 + 5),addr[5]);
 1054              		.loc 1 415 0
 1055 002c 6179     		ldrb	r1, [r4, #5]
 1056 002e 0E20     		mov	r0, #14
 1057 0030 FFF7FEFF 		bl	IINCHIP_WRITE
 1058              	.LVL107:
 416:.\w5100.c     **** }
 1059              		.loc 1 416 0
 1060              		@ sp needed for prologue
 1061              	.LVL108:
 1062 0034 10BD     		pop	{r4, pc}
 1063              		.cfi_endproc
 1064              	.LFE52:
 1065              		.size	setSHAR, .-setSHAR
 1066              		.section	.text.setSIPR,"ax",%progbits
 1067              		.align	1
 1068              		.global	setSIPR
 1069              		.code	16
 1070              		.thumb_func
 1071              		.type	setSIPR, %function
 1072              	setSIPR:
 1073              	.LFB53:
 417:.\w5100.c     **** 
 418:.\w5100.c     **** 
 419:.\w5100.c     **** /**
 420:.\w5100.c     **** @brief	This function sets up Source IP address.
 421:.\w5100.c     **** */
 422:.\w5100.c     **** void setSIPR(
 423:.\w5100.c     **** 	uint8 * addr	/**< a pointer to a 4 -uint8 array responsible to set the Source IP address. */
 424:.\w5100.c     **** 	)
 425:.\w5100.c     **** {
 1074              		.loc 1 425 0
 1075              		.cfi_startproc
ARM GAS  C:\Users\atsu\AppData\Local\Temp\ccNplIXy.s 			page 28


 1076              	.LVL109:
 1077 0000 10B5     		push	{r4, lr}
 1078              	.LCFI13:
 1079              		.cfi_def_cfa_offset 8
 1080              		.cfi_offset 4, -8
 1081              		.cfi_offset 14, -4
 1082              		.loc 1 425 0
 1083 0002 041C     		mov	r4, r0
 426:.\w5100.c     **** 	IINCHIP_WRITE((SIPR0 + 0),addr[0]);
 1084              		.loc 1 426 0
 1085 0004 0178     		ldrb	r1, [r0]
 1086 0006 0F20     		mov	r0, #15
 1087              	.LVL110:
 1088 0008 FFF7FEFF 		bl	IINCHIP_WRITE
 1089              	.LVL111:
 427:.\w5100.c     **** 	IINCHIP_WRITE((SIPR0 + 1),addr[1]);
 1090              		.loc 1 427 0
 1091 000c 6178     		ldrb	r1, [r4, #1]
 1092 000e 1020     		mov	r0, #16
 1093 0010 FFF7FEFF 		bl	IINCHIP_WRITE
 1094              	.LVL112:
 428:.\w5100.c     **** 	IINCHIP_WRITE((SIPR0 + 2),addr[2]);
 1095              		.loc 1 428 0
 1096 0014 A178     		ldrb	r1, [r4, #2]
 1097 0016 1120     		mov	r0, #17
 1098 0018 FFF7FEFF 		bl	IINCHIP_WRITE
 1099              	.LVL113:
 429:.\w5100.c     **** 	IINCHIP_WRITE((SIPR0 + 3),addr[3]);
 1100              		.loc 1 429 0
 1101 001c E178     		ldrb	r1, [r4, #3]
 1102 001e 1220     		mov	r0, #18
 1103 0020 FFF7FEFF 		bl	IINCHIP_WRITE
 1104              	.LVL114:
 430:.\w5100.c     **** }
 1105              		.loc 1 430 0
 1106              		@ sp needed for prologue
 1107              	.LVL115:
 1108 0024 10BD     		pop	{r4, pc}
 1109              		.cfi_endproc
 1110              	.LFE53:
 1111              		.size	setSIPR, .-setSIPR
 1112              		.section	.text.getIR,"ax",%progbits
 1113              		.align	1
 1114              		.global	getIR
 1115              		.code	16
 1116              		.thumb_func
 1117              		.type	getIR, %function
 1118              	getIR:
 1119              	.LFB54:
 431:.\w5100.c     **** 
 432:.\w5100.c     **** 
 433:.\w5100.c     **** /**
 434:.\w5100.c     **** @brief	This function gets Interrupt register in common register.
 435:.\w5100.c     ****  */
 436:.\w5100.c     **** uint8 getIR( void )
 437:.\w5100.c     **** {
 1120              		.loc 1 437 0
ARM GAS  C:\Users\atsu\AppData\Local\Temp\ccNplIXy.s 			page 29


 1121              		.cfi_startproc
 1122 0000 08B5     		push	{r3, lr}
 1123              	.LCFI14:
 1124              		.cfi_def_cfa_offset 8
 1125              		.cfi_offset 3, -8
 1126              		.cfi_offset 14, -4
 438:.\w5100.c     ****    return IINCHIP_READ(IR);
 1127              		.loc 1 438 0
 1128 0002 1520     		mov	r0, #21
 1129 0004 FFF7FEFF 		bl	IINCHIP_READ
 1130              	.LVL116:
 439:.\w5100.c     **** }
 1131              		.loc 1 439 0
 1132              		@ sp needed for prologue
 1133 0008 08BD     		pop	{r3, pc}
 1134              		.cfi_endproc
 1135              	.LFE54:
 1136              		.size	getIR, .-getIR
 1137              		.section	.text.setRTR,"ax",%progbits
 1138              		.align	1
 1139              		.global	setRTR
 1140              		.code	16
 1141              		.thumb_func
 1142              		.type	setRTR, %function
 1143              	setRTR:
 1144              	.LFB55:
 440:.\w5100.c     **** 
 441:.\w5100.c     **** 
 442:.\w5100.c     **** 
 443:.\w5100.c     **** /**
 444:.\w5100.c     **** @brief	This function sets up Retransmission time.
 445:.\w5100.c     **** 
 446:.\w5100.c     **** If there is no response from the peer or delay in response then retransmission 
 447:.\w5100.c     **** will be there as per RTR (Retry Time-value Register)setting
 448:.\w5100.c     **** */
 449:.\w5100.c     **** void setRTR(uint16 timeout)
 450:.\w5100.c     **** {
 1145              		.loc 1 450 0
 1146              		.cfi_startproc
 1147              	.LVL117:
 1148 0000 10B5     		push	{r4, lr}
 1149              	.LCFI15:
 1150              		.cfi_def_cfa_offset 8
 1151              		.cfi_offset 4, -8
 1152              		.cfi_offset 14, -4
 451:.\w5100.c     **** 	IINCHIP_WRITE(RTR0,(uint8)((timeout & 0xff00) >> 8));
 1153              		.loc 1 451 0
 1154 0002 010A     		lsr	r1, r0, #8
 450:.\w5100.c     **** {
 1155              		.loc 1 450 0
 1156 0004 041C     		mov	r4, r0
 1157              		.loc 1 451 0
 1158 0006 1720     		mov	r0, #23
 1159              	.LVL118:
 1160 0008 FFF7FEFF 		bl	IINCHIP_WRITE
 1161              	.LVL119:
 452:.\w5100.c     **** 	IINCHIP_WRITE((RTR0 + 1),(uint8)(timeout & 0x00ff));
ARM GAS  C:\Users\atsu\AppData\Local\Temp\ccNplIXy.s 			page 30


 1162              		.loc 1 452 0
 1163 000c E1B2     		uxtb	r1, r4
 1164 000e 1820     		mov	r0, #24
 1165 0010 FFF7FEFF 		bl	IINCHIP_WRITE
 1166              	.LVL120:
 453:.\w5100.c     **** }
 1167              		.loc 1 453 0
 1168              		@ sp needed for prologue
 1169 0014 10BD     		pop	{r4, pc}
 1170              		.cfi_endproc
 1171              	.LFE55:
 1172              		.size	setRTR, .-setRTR
 1173              		.section	.text.setRCR,"ax",%progbits
 1174              		.align	1
 1175              		.global	setRCR
 1176              		.code	16
 1177              		.thumb_func
 1178              		.type	setRCR, %function
 1179              	setRCR:
 1180              	.LFB56:
 454:.\w5100.c     **** 
 455:.\w5100.c     **** 
 456:.\w5100.c     **** /**
 457:.\w5100.c     **** @brief	This function set the number of Retransmission.
 458:.\w5100.c     **** 
 459:.\w5100.c     **** If there is no response from the peer or delay in response then recorded time 
 460:.\w5100.c     **** as per RTR & RCR register seeting then time out will occur.
 461:.\w5100.c     **** */
 462:.\w5100.c     **** void setRCR(uint8 retry)
 463:.\w5100.c     **** {
 1181              		.loc 1 463 0
 1182              		.cfi_startproc
 1183              	.LVL121:
 1184 0000 08B5     		push	{r3, lr}
 1185              	.LCFI16:
 1186              		.cfi_def_cfa_offset 8
 1187              		.cfi_offset 3, -8
 1188              		.cfi_offset 14, -4
 1189              		.loc 1 463 0
 1190 0002 011C     		mov	r1, r0
 464:.\w5100.c     **** 	IINCHIP_WRITE(RCR,retry);
 1191              		.loc 1 464 0
 1192 0004 1920     		mov	r0, #25
 1193              	.LVL122:
 1194 0006 FFF7FEFF 		bl	IINCHIP_WRITE
 1195              	.LVL123:
 465:.\w5100.c     **** }
 1196              		.loc 1 465 0
 1197              		@ sp needed for prologue
 1198 000a 08BD     		pop	{r3, pc}
 1199              		.cfi_endproc
 1200              	.LFE56:
 1201              		.size	setRCR, .-setRCR
 1202              		.section	.text.setIMR,"ax",%progbits
 1203              		.align	1
 1204              		.global	setIMR
 1205              		.code	16
ARM GAS  C:\Users\atsu\AppData\Local\Temp\ccNplIXy.s 			page 31


 1206              		.thumb_func
 1207              		.type	setIMR, %function
 1208              	setIMR:
 1209              	.LFB57:
 466:.\w5100.c     **** 
 467:.\w5100.c     **** 
 468:.\w5100.c     **** /**
 469:.\w5100.c     **** @brief	This function set the interrupt mask Enable/Disable appropriate Interrupt. ('1' : interrupt 
 470:.\w5100.c     **** 
 471:.\w5100.c     **** If any bit in IMR is set as '0' then there is not interrupt signal though the bit is
 472:.\w5100.c     **** set in IR register.
 473:.\w5100.c     **** */
 474:.\w5100.c     **** void setIMR(uint8 mask)
 475:.\w5100.c     **** {
 1210              		.loc 1 475 0
 1211              		.cfi_startproc
 1212              	.LVL124:
 1213 0000 08B5     		push	{r3, lr}
 1214              	.LCFI17:
 1215              		.cfi_def_cfa_offset 8
 1216              		.cfi_offset 3, -8
 1217              		.cfi_offset 14, -4
 1218              		.loc 1 475 0
 1219 0002 011C     		mov	r1, r0
 476:.\w5100.c     **** 	IINCHIP_WRITE(IMR,mask); // must be setted 0x10.
 1220              		.loc 1 476 0
 1221 0004 1620     		mov	r0, #22
 1222              	.LVL125:
 1223 0006 FFF7FEFF 		bl	IINCHIP_WRITE
 1224              	.LVL126:
 477:.\w5100.c     **** }
 1225              		.loc 1 477 0
 1226              		@ sp needed for prologue
 1227 000a 08BD     		pop	{r3, pc}
 1228              		.cfi_endproc
 1229              	.LFE57:
 1230              		.size	setIMR, .-setIMR
 1231              		.section	.text.getGAR,"ax",%progbits
 1232              		.align	1
 1233              		.global	getGAR
 1234              		.code	16
 1235              		.thumb_func
 1236              		.type	getGAR, %function
 1237              	getGAR:
 1238              	.LFB58:
 478:.\w5100.c     **** 
 479:.\w5100.c     **** 
 480:.\w5100.c     **** /**
 481:.\w5100.c     **** @brief	These below functions are used to get the Gateway, SubnetMask
 482:.\w5100.c     **** 		and Source Hardware Address (MAC Address) and Source IP address
 483:.\w5100.c     **** */
 484:.\w5100.c     **** void getGAR(uint8 * addr)
 485:.\w5100.c     **** {
 1239              		.loc 1 485 0
 1240              		.cfi_startproc
 1241              	.LVL127:
 1242 0000 10B5     		push	{r4, lr}
ARM GAS  C:\Users\atsu\AppData\Local\Temp\ccNplIXy.s 			page 32


 1243              	.LCFI18:
 1244              		.cfi_def_cfa_offset 8
 1245              		.cfi_offset 4, -8
 1246              		.cfi_offset 14, -4
 1247              		.loc 1 485 0
 1248 0002 041C     		mov	r4, r0
 486:.\w5100.c     **** 	addr[0] = IINCHIP_READ(GAR0);
 1249              		.loc 1 486 0
 1250 0004 0120     		mov	r0, #1
 1251              	.LVL128:
 1252 0006 FFF7FEFF 		bl	IINCHIP_READ
 1253              	.LVL129:
 1254 000a 2070     		strb	r0, [r4]
 487:.\w5100.c     **** 	addr[1] = IINCHIP_READ(GAR0+1);
 1255              		.loc 1 487 0
 1256 000c 0220     		mov	r0, #2
 1257 000e FFF7FEFF 		bl	IINCHIP_READ
 1258              	.LVL130:
 1259 0012 6070     		strb	r0, [r4, #1]
 488:.\w5100.c     **** 	addr[2] = IINCHIP_READ(GAR0+2);
 1260              		.loc 1 488 0
 1261 0014 0320     		mov	r0, #3
 1262 0016 FFF7FEFF 		bl	IINCHIP_READ
 1263              	.LVL131:
 1264 001a A070     		strb	r0, [r4, #2]
 489:.\w5100.c     **** 	addr[3] = IINCHIP_READ(GAR0+3);
 1265              		.loc 1 489 0
 1266 001c 0420     		mov	r0, #4
 1267 001e FFF7FEFF 		bl	IINCHIP_READ
 1268              	.LVL132:
 490:.\w5100.c     **** }
 1269              		.loc 1 490 0
 1270              		@ sp needed for prologue
 489:.\w5100.c     **** 	addr[3] = IINCHIP_READ(GAR0+3);
 1271              		.loc 1 489 0
 1272 0022 E070     		strb	r0, [r4, #3]
 1273              	.LVL133:
 1274              		.loc 1 490 0
 1275 0024 10BD     		pop	{r4, pc}
 1276              		.cfi_endproc
 1277              	.LFE58:
 1278              		.size	getGAR, .-getGAR
 1279              		.section	.text.getSUBR,"ax",%progbits
 1280              		.align	1
 1281              		.global	getSUBR
 1282              		.code	16
 1283              		.thumb_func
 1284              		.type	getSUBR, %function
 1285              	getSUBR:
 1286              	.LFB59:
 491:.\w5100.c     **** void getSUBR(uint8 * addr)
 492:.\w5100.c     **** {
 1287              		.loc 1 492 0
 1288              		.cfi_startproc
 1289              	.LVL134:
 1290 0000 10B5     		push	{r4, lr}
 1291              	.LCFI19:
ARM GAS  C:\Users\atsu\AppData\Local\Temp\ccNplIXy.s 			page 33


 1292              		.cfi_def_cfa_offset 8
 1293              		.cfi_offset 4, -8
 1294              		.cfi_offset 14, -4
 1295              		.loc 1 492 0
 1296 0002 041C     		mov	r4, r0
 493:.\w5100.c     **** 	addr[0] = IINCHIP_READ(SUBR0);
 1297              		.loc 1 493 0
 1298 0004 0520     		mov	r0, #5
 1299              	.LVL135:
 1300 0006 FFF7FEFF 		bl	IINCHIP_READ
 1301              	.LVL136:
 1302 000a 2070     		strb	r0, [r4]
 494:.\w5100.c     **** 	addr[1] = IINCHIP_READ(SUBR0+1);
 1303              		.loc 1 494 0
 1304 000c 0620     		mov	r0, #6
 1305 000e FFF7FEFF 		bl	IINCHIP_READ
 1306              	.LVL137:
 1307 0012 6070     		strb	r0, [r4, #1]
 495:.\w5100.c     **** 	addr[2] = IINCHIP_READ(SUBR0+2);
 1308              		.loc 1 495 0
 1309 0014 0720     		mov	r0, #7
 1310 0016 FFF7FEFF 		bl	IINCHIP_READ
 1311              	.LVL138:
 1312 001a A070     		strb	r0, [r4, #2]
 496:.\w5100.c     **** 	addr[3] = IINCHIP_READ(SUBR0+3);
 1313              		.loc 1 496 0
 1314 001c 0820     		mov	r0, #8
 1315 001e FFF7FEFF 		bl	IINCHIP_READ
 1316              	.LVL139:
 497:.\w5100.c     **** }
 1317              		.loc 1 497 0
 1318              		@ sp needed for prologue
 496:.\w5100.c     **** 	addr[3] = IINCHIP_READ(SUBR0+3);
 1319              		.loc 1 496 0
 1320 0022 E070     		strb	r0, [r4, #3]
 1321              	.LVL140:
 1322              		.loc 1 497 0
 1323 0024 10BD     		pop	{r4, pc}
 1324              		.cfi_endproc
 1325              	.LFE59:
 1326              		.size	getSUBR, .-getSUBR
 1327              		.section	.text.getSHAR,"ax",%progbits
 1328              		.align	1
 1329              		.global	getSHAR
 1330              		.code	16
 1331              		.thumb_func
 1332              		.type	getSHAR, %function
 1333              	getSHAR:
 1334              	.LFB60:
 498:.\w5100.c     **** void getSHAR(uint8 * addr)
 499:.\w5100.c     **** {
 1335              		.loc 1 499 0
 1336              		.cfi_startproc
 1337              	.LVL141:
 1338 0000 10B5     		push	{r4, lr}
 1339              	.LCFI20:
 1340              		.cfi_def_cfa_offset 8
ARM GAS  C:\Users\atsu\AppData\Local\Temp\ccNplIXy.s 			page 34


 1341              		.cfi_offset 4, -8
 1342              		.cfi_offset 14, -4
 1343              		.loc 1 499 0
 1344 0002 041C     		mov	r4, r0
 500:.\w5100.c     **** 	addr[0] = IINCHIP_READ(SHAR0);
 1345              		.loc 1 500 0
 1346 0004 0920     		mov	r0, #9
 1347              	.LVL142:
 1348 0006 FFF7FEFF 		bl	IINCHIP_READ
 1349              	.LVL143:
 1350 000a 2070     		strb	r0, [r4]
 501:.\w5100.c     **** 	addr[1] = IINCHIP_READ(SHAR0+1);
 1351              		.loc 1 501 0
 1352 000c 0A20     		mov	r0, #10
 1353 000e FFF7FEFF 		bl	IINCHIP_READ
 1354              	.LVL144:
 1355 0012 6070     		strb	r0, [r4, #1]
 502:.\w5100.c     **** 	addr[2] = IINCHIP_READ(SHAR0+2);
 1356              		.loc 1 502 0
 1357 0014 0B20     		mov	r0, #11
 1358 0016 FFF7FEFF 		bl	IINCHIP_READ
 1359              	.LVL145:
 1360 001a A070     		strb	r0, [r4, #2]
 503:.\w5100.c     **** 	addr[3] = IINCHIP_READ(SHAR0+3);
 1361              		.loc 1 503 0
 1362 001c 0C20     		mov	r0, #12
 1363 001e FFF7FEFF 		bl	IINCHIP_READ
 1364              	.LVL146:
 1365 0022 E070     		strb	r0, [r4, #3]
 504:.\w5100.c     **** 	addr[4] = IINCHIP_READ(SHAR0+4);
 1366              		.loc 1 504 0
 1367 0024 0D20     		mov	r0, #13
 1368 0026 FFF7FEFF 		bl	IINCHIP_READ
 1369              	.LVL147:
 1370 002a 2071     		strb	r0, [r4, #4]
 505:.\w5100.c     **** 	addr[5] = IINCHIP_READ(SHAR0+5);
 1371              		.loc 1 505 0
 1372 002c 0E20     		mov	r0, #14
 1373 002e FFF7FEFF 		bl	IINCHIP_READ
 1374              	.LVL148:
 506:.\w5100.c     **** }
 1375              		.loc 1 506 0
 1376              		@ sp needed for prologue
 505:.\w5100.c     **** 	addr[5] = IINCHIP_READ(SHAR0+5);
 1377              		.loc 1 505 0
 1378 0032 6071     		strb	r0, [r4, #5]
 1379              	.LVL149:
 1380              		.loc 1 506 0
 1381 0034 10BD     		pop	{r4, pc}
 1382              		.cfi_endproc
 1383              	.LFE60:
 1384              		.size	getSHAR, .-getSHAR
 1385              		.section	.text.getSIPR,"ax",%progbits
 1386              		.align	1
 1387              		.global	getSIPR
 1388              		.code	16
 1389              		.thumb_func
ARM GAS  C:\Users\atsu\AppData\Local\Temp\ccNplIXy.s 			page 35


 1390              		.type	getSIPR, %function
 1391              	getSIPR:
 1392              	.LFB61:
 507:.\w5100.c     **** void getSIPR(uint8 * addr)
 508:.\w5100.c     **** {
 1393              		.loc 1 508 0
 1394              		.cfi_startproc
 1395              	.LVL150:
 1396 0000 10B5     		push	{r4, lr}
 1397              	.LCFI21:
 1398              		.cfi_def_cfa_offset 8
 1399              		.cfi_offset 4, -8
 1400              		.cfi_offset 14, -4
 1401              		.loc 1 508 0
 1402 0002 041C     		mov	r4, r0
 509:.\w5100.c     **** 	addr[0] = IINCHIP_READ(SIPR0);
 1403              		.loc 1 509 0
 1404 0004 0F20     		mov	r0, #15
 1405              	.LVL151:
 1406 0006 FFF7FEFF 		bl	IINCHIP_READ
 1407              	.LVL152:
 1408 000a 2070     		strb	r0, [r4]
 510:.\w5100.c     **** 	addr[1] = IINCHIP_READ(SIPR0+1);
 1409              		.loc 1 510 0
 1410 000c 1020     		mov	r0, #16
 1411 000e FFF7FEFF 		bl	IINCHIP_READ
 1412              	.LVL153:
 1413 0012 6070     		strb	r0, [r4, #1]
 511:.\w5100.c     **** 	addr[2] = IINCHIP_READ(SIPR0+2);
 1414              		.loc 1 511 0
 1415 0014 1120     		mov	r0, #17
 1416 0016 FFF7FEFF 		bl	IINCHIP_READ
 1417              	.LVL154:
 1418 001a A070     		strb	r0, [r4, #2]
 512:.\w5100.c     **** 	addr[3] = IINCHIP_READ(SIPR0+3);
 1419              		.loc 1 512 0
 1420 001c 1220     		mov	r0, #18
 1421 001e FFF7FEFF 		bl	IINCHIP_READ
 1422              	.LVL155:
 513:.\w5100.c     **** }
 1423              		.loc 1 513 0
 1424              		@ sp needed for prologue
 512:.\w5100.c     **** 	addr[3] = IINCHIP_READ(SIPR0+3);
 1425              		.loc 1 512 0
 1426 0022 E070     		strb	r0, [r4, #3]
 1427              	.LVL156:
 1428              		.loc 1 513 0
 1429 0024 10BD     		pop	{r4, pc}
 1430              		.cfi_endproc
 1431              	.LFE61:
 1432              		.size	getSIPR, .-getSIPR
 1433              		.section	.text.getSn_DHAR,"ax",%progbits
 1434              		.align	1
 1435              		.global	getSn_DHAR
 1436              		.code	16
 1437              		.thumb_func
 1438              		.type	getSn_DHAR, %function
ARM GAS  C:\Users\atsu\AppData\Local\Temp\ccNplIXy.s 			page 36


 1439              	getSn_DHAR:
 1440              	.LFB62:
 514:.\w5100.c     **** 
 515:.\w5100.c     **** 
 516:.\w5100.c     **** /**
 517:.\w5100.c     **** @brief	These below functions are used to get the Destination Hardware Address (MAC Address), Destin
 518:.\w5100.c     **** */
 519:.\w5100.c     **** void getSn_DHAR(SOCKET s, uint8 * addr)
 520:.\w5100.c     **** {
 1441              		.loc 1 520 0
 1442              		.cfi_startproc
 1443              	.LVL157:
 1444 0000 38B5     		push	{r3, r4, r5, lr}
 1445              	.LCFI22:
 1446              		.cfi_def_cfa_offset 16
 1447              		.cfi_offset 3, -16
 1448              		.cfi_offset 4, -12
 1449              		.cfi_offset 5, -8
 1450              		.cfi_offset 14, -4
 521:.\w5100.c     **** 	addr[0] = IINCHIP_READ(Sn_DHAR0(s));
 1451              		.loc 1 521 0
 1452 0002 051D     		add	r5, r0, #4
 1453 0004 2802     		lsl	r0, r5, #8
 1454              	.LVL158:
 1455 0006 85B2     		uxth	r5, r0
 520:.\w5100.c     **** {
 1456              		.loc 1 520 0
 1457 0008 0C1C     		mov	r4, r1
 1458              		.loc 1 521 0
 1459 000a A91D     		add	r1, r5, #6
 1460              	.LVL159:
 1461 000c 88B2     		uxth	r0, r1
 1462 000e FFF7FEFF 		bl	IINCHIP_READ
 1463              	.LVL160:
 522:.\w5100.c     **** 	addr[1] = IINCHIP_READ(Sn_DHAR0(s)+1);
 1464              		.loc 1 522 0
 1465 0012 EA1D     		add	r2, r5, #7
 521:.\w5100.c     **** 	addr[0] = IINCHIP_READ(Sn_DHAR0(s));
 1466              		.loc 1 521 0
 1467 0014 2070     		strb	r0, [r4]
 1468              		.loc 1 522 0
 1469 0016 90B2     		uxth	r0, r2
 1470 0018 FFF7FEFF 		bl	IINCHIP_READ
 1471              	.LVL161:
 523:.\w5100.c     **** 	addr[2] = IINCHIP_READ(Sn_DHAR0(s)+2);
 1472              		.loc 1 523 0
 1473 001c 2B1C     		mov	r3, r5
 1474 001e 0833     		add	r3, r3, #8
 522:.\w5100.c     **** 	addr[1] = IINCHIP_READ(Sn_DHAR0(s)+1);
 1475              		.loc 1 522 0
 1476 0020 6070     		strb	r0, [r4, #1]
 1477              		.loc 1 523 0
 1478 0022 98B2     		uxth	r0, r3
 1479 0024 FFF7FEFF 		bl	IINCHIP_READ
 1480              	.LVL162:
 1481 0028 A070     		strb	r0, [r4, #2]
 524:.\w5100.c     **** 	addr[3] = IINCHIP_READ(Sn_DHAR0(s)+3);
ARM GAS  C:\Users\atsu\AppData\Local\Temp\ccNplIXy.s 			page 37


 1482              		.loc 1 524 0
 1483 002a 281C     		mov	r0, r5
 1484 002c 0930     		add	r0, r0, #9
 1485 002e 80B2     		uxth	r0, r0
 1486 0030 FFF7FEFF 		bl	IINCHIP_READ
 1487              	.LVL163:
 525:.\w5100.c     **** 	addr[4] = IINCHIP_READ(Sn_DHAR0(s)+4);
 1488              		.loc 1 525 0
 1489 0034 291C     		mov	r1, r5
 1490 0036 0A31     		add	r1, r1, #10
 524:.\w5100.c     **** 	addr[3] = IINCHIP_READ(Sn_DHAR0(s)+3);
 1491              		.loc 1 524 0
 1492 0038 E070     		strb	r0, [r4, #3]
 1493              		.loc 1 525 0
 1494 003a 88B2     		uxth	r0, r1
 1495 003c FFF7FEFF 		bl	IINCHIP_READ
 1496              	.LVL164:
 526:.\w5100.c     **** 	addr[5] = IINCHIP_READ(Sn_DHAR0(s)+5);
 1497              		.loc 1 526 0
 1498 0040 0B35     		add	r5, r5, #11
 525:.\w5100.c     **** 	addr[4] = IINCHIP_READ(Sn_DHAR0(s)+4);
 1499              		.loc 1 525 0
 1500 0042 2071     		strb	r0, [r4, #4]
 1501              		.loc 1 526 0
 1502 0044 A8B2     		uxth	r0, r5
 1503 0046 FFF7FEFF 		bl	IINCHIP_READ
 1504              	.LVL165:
 527:.\w5100.c     **** }
 1505              		.loc 1 527 0
 1506              		@ sp needed for prologue
 526:.\w5100.c     **** 	addr[5] = IINCHIP_READ(Sn_DHAR0(s)+5);
 1507              		.loc 1 526 0
 1508 004a 6071     		strb	r0, [r4, #5]
 1509              	.LVL166:
 1510              		.loc 1 527 0
 1511 004c 38BD     		pop	{r3, r4, r5, pc}
 1512              		.cfi_endproc
 1513              	.LFE62:
 1514              		.size	getSn_DHAR, .-getSn_DHAR
 1515              		.section	.text.setSn_DHAR,"ax",%progbits
 1516              		.align	1
 1517              		.global	setSn_DHAR
 1518              		.code	16
 1519              		.thumb_func
 1520              		.type	setSn_DHAR, %function
 1521              	setSn_DHAR:
 1522              	.LFB63:
 528:.\w5100.c     **** void setSn_DHAR(SOCKET s, uint8 * addr)
 529:.\w5100.c     **** {
 1523              		.loc 1 529 0
 1524              		.cfi_startproc
 1525              	.LVL167:
 1526 0000 38B5     		push	{r3, r4, r5, lr}
 1527              	.LCFI23:
 1528              		.cfi_def_cfa_offset 16
 1529              		.cfi_offset 3, -16
 1530              		.cfi_offset 4, -12
ARM GAS  C:\Users\atsu\AppData\Local\Temp\ccNplIXy.s 			page 38


 1531              		.cfi_offset 5, -8
 1532              		.cfi_offset 14, -4
 530:.\w5100.c     **** 	IINCHIP_WRITE((Sn_DHAR0(s) + 0),addr[0]);
 1533              		.loc 1 530 0
 1534 0002 051D     		add	r5, r0, #4
 1535 0004 2802     		lsl	r0, r5, #8
 1536              	.LVL168:
 1537 0006 85B2     		uxth	r5, r0
 529:.\w5100.c     **** {
 1538              		.loc 1 529 0
 1539 0008 0C1C     		mov	r4, r1
 1540              		.loc 1 530 0
 1541 000a A91D     		add	r1, r5, #6
 1542              	.LVL169:
 1543 000c 88B2     		uxth	r0, r1
 1544 000e 2178     		ldrb	r1, [r4]
 1545 0010 FFF7FEFF 		bl	IINCHIP_WRITE
 1546              	.LVL170:
 531:.\w5100.c     **** 	IINCHIP_WRITE((Sn_DHAR0(s) + 1),addr[1]);
 1547              		.loc 1 531 0
 1548 0014 EA1D     		add	r2, r5, #7
 1549 0016 90B2     		uxth	r0, r2
 1550 0018 6178     		ldrb	r1, [r4, #1]
 1551 001a FFF7FEFF 		bl	IINCHIP_WRITE
 1552              	.LVL171:
 532:.\w5100.c     **** 	IINCHIP_WRITE((Sn_DHAR0(s) + 2),addr[2]);
 1553              		.loc 1 532 0
 1554 001e 2B1C     		mov	r3, r5
 1555 0020 0833     		add	r3, r3, #8
 1556 0022 98B2     		uxth	r0, r3
 1557 0024 A178     		ldrb	r1, [r4, #2]
 1558 0026 FFF7FEFF 		bl	IINCHIP_WRITE
 1559              	.LVL172:
 533:.\w5100.c     **** 	IINCHIP_WRITE((Sn_DHAR0(s) + 3),addr[3]);
 1560              		.loc 1 533 0
 1561 002a 281C     		mov	r0, r5
 1562 002c 0930     		add	r0, r0, #9
 1563 002e E178     		ldrb	r1, [r4, #3]
 1564 0030 80B2     		uxth	r0, r0
 1565 0032 FFF7FEFF 		bl	IINCHIP_WRITE
 1566              	.LVL173:
 534:.\w5100.c     **** 	IINCHIP_WRITE((Sn_DHAR0(s) + 4),addr[4]);
 1567              		.loc 1 534 0
 1568 0036 291C     		mov	r1, r5
 1569 0038 0A31     		add	r1, r1, #10
 535:.\w5100.c     **** 	IINCHIP_WRITE((Sn_DHAR0(s) + 5),addr[5]);
 1570              		.loc 1 535 0
 1571 003a 0B35     		add	r5, r5, #11
 534:.\w5100.c     **** 	IINCHIP_WRITE((Sn_DHAR0(s) + 4),addr[4]);
 1572              		.loc 1 534 0
 1573 003c 88B2     		uxth	r0, r1
 1574 003e 2179     		ldrb	r1, [r4, #4]
 1575 0040 FFF7FEFF 		bl	IINCHIP_WRITE
 1576              	.LVL174:
 1577              		.loc 1 535 0
 1578 0044 A8B2     		uxth	r0, r5
 1579 0046 6179     		ldrb	r1, [r4, #5]
ARM GAS  C:\Users\atsu\AppData\Local\Temp\ccNplIXy.s 			page 39


 1580 0048 FFF7FEFF 		bl	IINCHIP_WRITE
 1581              	.LVL175:
 536:.\w5100.c     **** }
 1582              		.loc 1 536 0
 1583              		@ sp needed for prologue
 1584              	.LVL176:
 1585 004c 38BD     		pop	{r3, r4, r5, pc}
 1586              		.cfi_endproc
 1587              	.LFE63:
 1588              		.size	setSn_DHAR, .-setSn_DHAR
 1589              		.section	.text.getSn_DIPR,"ax",%progbits
 1590              		.align	1
 1591              		.global	getSn_DIPR
 1592              		.code	16
 1593              		.thumb_func
 1594              		.type	getSn_DIPR, %function
 1595              	getSn_DIPR:
 1596              	.LFB64:
 537:.\w5100.c     **** void getSn_DIPR(SOCKET s, uint8 * addr)
 538:.\w5100.c     **** {
 1597              		.loc 1 538 0
 1598              		.cfi_startproc
 1599              	.LVL177:
 1600 0000 38B5     		push	{r3, r4, r5, lr}
 1601              	.LCFI24:
 1602              		.cfi_def_cfa_offset 16
 1603              		.cfi_offset 3, -16
 1604              		.cfi_offset 4, -12
 1605              		.cfi_offset 5, -8
 1606              		.cfi_offset 14, -4
 539:.\w5100.c     **** 	addr[0] = IINCHIP_READ(Sn_DIPR0(s));
 1607              		.loc 1 539 0
 1608 0002 051D     		add	r5, r0, #4
 1609 0004 2802     		lsl	r0, r5, #8
 1610              	.LVL178:
 1611 0006 85B2     		uxth	r5, r0
 538:.\w5100.c     **** {
 1612              		.loc 1 538 0
 1613 0008 0C1C     		mov	r4, r1
 1614              		.loc 1 539 0
 1615 000a 291C     		mov	r1, r5
 1616              	.LVL179:
 1617 000c 0C31     		add	r1, r1, #12
 1618 000e 88B2     		uxth	r0, r1
 1619 0010 FFF7FEFF 		bl	IINCHIP_READ
 1620              	.LVL180:
 540:.\w5100.c     **** 	addr[1] = IINCHIP_READ(Sn_DIPR0(s)+1);
 1621              		.loc 1 540 0
 1622 0014 2A1C     		mov	r2, r5
 1623 0016 0D32     		add	r2, r2, #13
 539:.\w5100.c     **** 	addr[0] = IINCHIP_READ(Sn_DIPR0(s));
 1624              		.loc 1 539 0
 1625 0018 2070     		strb	r0, [r4]
 1626              		.loc 1 540 0
 1627 001a 90B2     		uxth	r0, r2
 1628 001c FFF7FEFF 		bl	IINCHIP_READ
 1629              	.LVL181:
ARM GAS  C:\Users\atsu\AppData\Local\Temp\ccNplIXy.s 			page 40


 541:.\w5100.c     **** 	addr[2] = IINCHIP_READ(Sn_DIPR0(s)+2);
 1630              		.loc 1 541 0
 1631 0020 2B1C     		mov	r3, r5
 1632 0022 0E33     		add	r3, r3, #14
 540:.\w5100.c     **** 	addr[1] = IINCHIP_READ(Sn_DIPR0(s)+1);
 1633              		.loc 1 540 0
 1634 0024 6070     		strb	r0, [r4, #1]
 1635              		.loc 1 541 0
 1636 0026 98B2     		uxth	r0, r3
 1637 0028 FFF7FEFF 		bl	IINCHIP_READ
 1638              	.LVL182:
 542:.\w5100.c     **** 	addr[3] = IINCHIP_READ(Sn_DIPR0(s)+3);
 1639              		.loc 1 542 0
 1640 002c 0F35     		add	r5, r5, #15
 541:.\w5100.c     **** 	addr[2] = IINCHIP_READ(Sn_DIPR0(s)+2);
 1641              		.loc 1 541 0
 1642 002e A070     		strb	r0, [r4, #2]
 1643              		.loc 1 542 0
 1644 0030 A8B2     		uxth	r0, r5
 1645 0032 FFF7FEFF 		bl	IINCHIP_READ
 1646              	.LVL183:
 543:.\w5100.c     **** }
 1647              		.loc 1 543 0
 1648              		@ sp needed for prologue
 542:.\w5100.c     **** 	addr[3] = IINCHIP_READ(Sn_DIPR0(s)+3);
 1649              		.loc 1 542 0
 1650 0036 E070     		strb	r0, [r4, #3]
 1651              	.LVL184:
 1652              		.loc 1 543 0
 1653 0038 38BD     		pop	{r3, r4, r5, pc}
 1654              		.cfi_endproc
 1655              	.LFE64:
 1656              		.size	getSn_DIPR, .-getSn_DIPR
 1657              		.section	.text.setSn_DIPR,"ax",%progbits
 1658              		.align	1
 1659              		.global	setSn_DIPR
 1660              		.code	16
 1661              		.thumb_func
 1662              		.type	setSn_DIPR, %function
 1663              	setSn_DIPR:
 1664              	.LFB65:
 544:.\w5100.c     **** void setSn_DIPR(SOCKET s, uint8 * addr)
 545:.\w5100.c     **** {
 1665              		.loc 1 545 0
 1666              		.cfi_startproc
 1667              	.LVL185:
 1668 0000 38B5     		push	{r3, r4, r5, lr}
 1669              	.LCFI25:
 1670              		.cfi_def_cfa_offset 16
 1671              		.cfi_offset 3, -16
 1672              		.cfi_offset 4, -12
 1673              		.cfi_offset 5, -8
 1674              		.cfi_offset 14, -4
 546:.\w5100.c     **** 	IINCHIP_WRITE((Sn_DIPR0(s) + 0),addr[0]);
 1675              		.loc 1 546 0
 1676 0002 051D     		add	r5, r0, #4
 1677 0004 2802     		lsl	r0, r5, #8
ARM GAS  C:\Users\atsu\AppData\Local\Temp\ccNplIXy.s 			page 41


 1678              	.LVL186:
 1679 0006 85B2     		uxth	r5, r0
 545:.\w5100.c     **** {
 1680              		.loc 1 545 0
 1681 0008 0C1C     		mov	r4, r1
 1682              		.loc 1 546 0
 1683 000a 291C     		mov	r1, r5
 1684              	.LVL187:
 1685 000c 0C31     		add	r1, r1, #12
 1686 000e 88B2     		uxth	r0, r1
 1687 0010 2178     		ldrb	r1, [r4]
 1688 0012 FFF7FEFF 		bl	IINCHIP_WRITE
 1689              	.LVL188:
 547:.\w5100.c     **** 	IINCHIP_WRITE((Sn_DIPR0(s) + 1),addr[1]);
 1690              		.loc 1 547 0
 1691 0016 2A1C     		mov	r2, r5
 1692 0018 0D32     		add	r2, r2, #13
 1693 001a 90B2     		uxth	r0, r2
 1694 001c 6178     		ldrb	r1, [r4, #1]
 1695 001e FFF7FEFF 		bl	IINCHIP_WRITE
 1696              	.LVL189:
 548:.\w5100.c     **** 	IINCHIP_WRITE((Sn_DIPR0(s) + 2),addr[2]);
 1697              		.loc 1 548 0
 1698 0022 2B1C     		mov	r3, r5
 1699 0024 0E33     		add	r3, r3, #14
 1700 0026 98B2     		uxth	r0, r3
 1701 0028 A178     		ldrb	r1, [r4, #2]
 549:.\w5100.c     **** 	IINCHIP_WRITE((Sn_DIPR0(s) + 3),addr[3]);
 1702              		.loc 1 549 0
 1703 002a 0F35     		add	r5, r5, #15
 548:.\w5100.c     **** 	IINCHIP_WRITE((Sn_DIPR0(s) + 2),addr[2]);
 1704              		.loc 1 548 0
 1705 002c FFF7FEFF 		bl	IINCHIP_WRITE
 1706              	.LVL190:
 1707              		.loc 1 549 0
 1708 0030 A8B2     		uxth	r0, r5
 1709 0032 E178     		ldrb	r1, [r4, #3]
 1710 0034 FFF7FEFF 		bl	IINCHIP_WRITE
 1711              	.LVL191:
 550:.\w5100.c     **** }
 1712              		.loc 1 550 0
 1713              		@ sp needed for prologue
 1714              	.LVL192:
 1715 0038 38BD     		pop	{r3, r4, r5, pc}
 1716              		.cfi_endproc
 1717              	.LFE65:
 1718              		.size	setSn_DIPR, .-setSn_DIPR
 1719              		.section	.text.getSn_DPORT,"ax",%progbits
 1720              		.align	1
 1721              		.global	getSn_DPORT
 1722              		.code	16
 1723              		.thumb_func
 1724              		.type	getSn_DPORT, %function
 1725              	getSn_DPORT:
 1726              	.LFB66:
 551:.\w5100.c     **** void getSn_DPORT(SOCKET s, uint8 * addr)
 552:.\w5100.c     **** {
ARM GAS  C:\Users\atsu\AppData\Local\Temp\ccNplIXy.s 			page 42


 1727              		.loc 1 552 0
 1728              		.cfi_startproc
 1729              	.LVL193:
 1730 0000 38B5     		push	{r3, r4, r5, lr}
 1731              	.LCFI26:
 1732              		.cfi_def_cfa_offset 16
 1733              		.cfi_offset 3, -16
 1734              		.cfi_offset 4, -12
 1735              		.cfi_offset 5, -8
 1736              		.cfi_offset 14, -4
 553:.\w5100.c     **** 	addr[0] = IINCHIP_READ(Sn_DPORT0(s));
 1737              		.loc 1 553 0
 1738 0002 051D     		add	r5, r0, #4
 1739 0004 2802     		lsl	r0, r5, #8
 1740              	.LVL194:
 1741 0006 85B2     		uxth	r5, r0
 552:.\w5100.c     **** {
 1742              		.loc 1 552 0
 1743 0008 0C1C     		mov	r4, r1
 1744              		.loc 1 553 0
 1745 000a 291C     		mov	r1, r5
 1746              	.LVL195:
 1747 000c 1031     		add	r1, r1, #16
 1748 000e 88B2     		uxth	r0, r1
 1749 0010 FFF7FEFF 		bl	IINCHIP_READ
 1750              	.LVL196:
 554:.\w5100.c     **** 	addr[1] = IINCHIP_READ(Sn_DPORT0(s)+1);
 1751              		.loc 1 554 0
 1752 0014 1135     		add	r5, r5, #17
 553:.\w5100.c     **** 	addr[0] = IINCHIP_READ(Sn_DPORT0(s));
 1753              		.loc 1 553 0
 1754 0016 2070     		strb	r0, [r4]
 1755              		.loc 1 554 0
 1756 0018 A8B2     		uxth	r0, r5
 1757 001a FFF7FEFF 		bl	IINCHIP_READ
 1758              	.LVL197:
 555:.\w5100.c     **** }
 1759              		.loc 1 555 0
 1760              		@ sp needed for prologue
 554:.\w5100.c     **** 	addr[1] = IINCHIP_READ(Sn_DPORT0(s)+1);
 1761              		.loc 1 554 0
 1762 001e 6070     		strb	r0, [r4, #1]
 1763              	.LVL198:
 1764              		.loc 1 555 0
 1765 0020 38BD     		pop	{r3, r4, r5, pc}
 1766              		.cfi_endproc
 1767              	.LFE66:
 1768              		.size	getSn_DPORT, .-getSn_DPORT
 1769              		.section	.text.setSn_DPORT,"ax",%progbits
 1770              		.align	1
 1771              		.global	setSn_DPORT
 1772              		.code	16
 1773              		.thumb_func
 1774              		.type	setSn_DPORT, %function
 1775              	setSn_DPORT:
 1776              	.LFB67:
 556:.\w5100.c     **** void setSn_DPORT(SOCKET s, uint8 * addr)
ARM GAS  C:\Users\atsu\AppData\Local\Temp\ccNplIXy.s 			page 43


 557:.\w5100.c     **** {
 1777              		.loc 1 557 0
 1778              		.cfi_startproc
 1779              	.LVL199:
 1780 0000 38B5     		push	{r3, r4, r5, lr}
 1781              	.LCFI27:
 1782              		.cfi_def_cfa_offset 16
 1783              		.cfi_offset 3, -16
 1784              		.cfi_offset 4, -12
 1785              		.cfi_offset 5, -8
 1786              		.cfi_offset 14, -4
 558:.\w5100.c     **** 	IINCHIP_WRITE((Sn_DPORT0(s) + 0),addr[0]);
 1787              		.loc 1 558 0
 1788 0002 051D     		add	r5, r0, #4
 1789 0004 2802     		lsl	r0, r5, #8
 1790              	.LVL200:
 1791 0006 85B2     		uxth	r5, r0
 557:.\w5100.c     **** {
 1792              		.loc 1 557 0
 1793 0008 0C1C     		mov	r4, r1
 1794              		.loc 1 558 0
 1795 000a 291C     		mov	r1, r5
 1796              	.LVL201:
 1797 000c 1031     		add	r1, r1, #16
 559:.\w5100.c     **** 	IINCHIP_WRITE((Sn_DPORT0(s) + 1),addr[1]);
 1798              		.loc 1 559 0
 1799 000e 1135     		add	r5, r5, #17
 558:.\w5100.c     **** 	IINCHIP_WRITE((Sn_DPORT0(s) + 0),addr[0]);
 1800              		.loc 1 558 0
 1801 0010 88B2     		uxth	r0, r1
 1802 0012 2178     		ldrb	r1, [r4]
 1803 0014 FFF7FEFF 		bl	IINCHIP_WRITE
 1804              	.LVL202:
 1805              		.loc 1 559 0
 1806 0018 A8B2     		uxth	r0, r5
 1807 001a 6178     		ldrb	r1, [r4, #1]
 1808 001c FFF7FEFF 		bl	IINCHIP_WRITE
 1809              	.LVL203:
 560:.\w5100.c     **** }
 1810              		.loc 1 560 0
 1811              		@ sp needed for prologue
 1812              	.LVL204:
 1813 0020 38BD     		pop	{r3, r4, r5, pc}
 1814              		.cfi_endproc
 1815              	.LFE67:
 1816              		.size	setSn_DPORT, .-setSn_DPORT
 1817              		.section	.text.setSn_MSS,"ax",%progbits
 1818              		.align	1
 1819              		.global	setSn_MSS
 1820              		.code	16
 1821              		.thumb_func
 1822              		.type	setSn_MSS, %function
 1823              	setSn_MSS:
 1824              	.LFB68:
 561:.\w5100.c     **** 
 562:.\w5100.c     **** 
 563:.\w5100.c     **** /**
ARM GAS  C:\Users\atsu\AppData\Local\Temp\ccNplIXy.s 			page 44


 564:.\w5100.c     **** @brief	This sets the maximum segment size of TCP in Active Mode), while in Passive Mode this is set
 565:.\w5100.c     **** */
 566:.\w5100.c     **** void setSn_MSS(SOCKET s, uint16 Sn_MSSR0)
 567:.\w5100.c     **** {
 1825              		.loc 1 567 0
 1826              		.cfi_startproc
 1827              	.LVL205:
 1828 0000 38B5     		push	{r3, r4, r5, lr}
 1829              	.LCFI28:
 1830              		.cfi_def_cfa_offset 16
 1831              		.cfi_offset 3, -16
 1832              		.cfi_offset 4, -12
 1833              		.cfi_offset 5, -8
 1834              		.cfi_offset 14, -4
 568:.\w5100.c     **** 	IINCHIP_WRITE(Sn_MSSR0(s),(uint8)((Sn_MSSR0 & 0xff00) >> 8));
 1835              		.loc 1 568 0
 1836 0002 051D     		add	r5, r0, #4
 1837 0004 2802     		lsl	r0, r5, #8
 1838              	.LVL206:
 1839 0006 85B2     		uxth	r5, r0
 567:.\w5100.c     **** {
 1840              		.loc 1 567 0
 1841 0008 0C1C     		mov	r4, r1
 1842              		.loc 1 568 0
 1843 000a 291C     		mov	r1, r5
 1844              	.LVL207:
 1845 000c 1231     		add	r1, r1, #18
 569:.\w5100.c     **** 	IINCHIP_WRITE((Sn_MSSR0(s) + 1),(uint8)(Sn_MSSR0 & 0x00ff));
 1846              		.loc 1 569 0
 1847 000e 1335     		add	r5, r5, #19
 568:.\w5100.c     **** 	IINCHIP_WRITE(Sn_MSSR0(s),(uint8)((Sn_MSSR0 & 0xff00) >> 8));
 1848              		.loc 1 568 0
 1849 0010 88B2     		uxth	r0, r1
 1850 0012 210A     		lsr	r1, r4, #8
 1851 0014 FFF7FEFF 		bl	IINCHIP_WRITE
 1852              	.LVL208:
 1853              		.loc 1 569 0
 1854 0018 A8B2     		uxth	r0, r5
 1855 001a E1B2     		uxtb	r1, r4
 1856 001c FFF7FEFF 		bl	IINCHIP_WRITE
 1857              	.LVL209:
 570:.\w5100.c     **** }
 1858              		.loc 1 570 0
 1859              		@ sp needed for prologue
 1860 0020 38BD     		pop	{r3, r4, r5, pc}
 1861              		.cfi_endproc
 1862              	.LFE68:
 1863              		.size	setSn_MSS, .-setSn_MSS
 1864              		.section	.text.setSn_TTL,"ax",%progbits
 1865              		.align	1
 1866              		.global	setSn_TTL
 1867              		.code	16
 1868              		.thumb_func
 1869              		.type	setSn_TTL, %function
 1870              	setSn_TTL:
 1871              	.LFB69:
 571:.\w5100.c     **** 
ARM GAS  C:\Users\atsu\AppData\Local\Temp\ccNplIXy.s 			page 45


 572:.\w5100.c     **** void setSn_TTL(SOCKET s, uint8 ttl)
 573:.\w5100.c     **** {
 1872              		.loc 1 573 0
 1873              		.cfi_startproc
 1874              	.LVL210:
 1875 0000 08B5     		push	{r3, lr}
 1876              	.LCFI29:
 1877              		.cfi_def_cfa_offset 8
 1878              		.cfi_offset 3, -8
 1879              		.cfi_offset 14, -4
 574:.\w5100.c     ****    IINCHIP_WRITE(Sn_TTL(s), ttl);
 1880              		.loc 1 574 0
 1881 0002 034B     		ldr	r3, .L86
 1882 0004 0002     		lsl	r0, r0, #8
 1883              	.LVL211:
 1884 0006 C218     		add	r2, r0, r3
 1885 0008 90B2     		uxth	r0, r2
 1886 000a FFF7FEFF 		bl	IINCHIP_WRITE
 1887              	.LVL212:
 575:.\w5100.c     **** }
 1888              		.loc 1 575 0
 1889              		@ sp needed for prologue
 1890 000e 08BD     		pop	{r3, pc}
 1891              	.L87:
 1892              		.align	2
 1893              	.L86:
 1894 0010 16040000 		.word	1046
 1895              		.cfi_endproc
 1896              	.LFE69:
 1897              		.size	setSn_TTL, .-setSn_TTL
 1898              		.section	.text.setSn_PROTO,"ax",%progbits
 1899              		.align	1
 1900              		.global	setSn_PROTO
 1901              		.code	16
 1902              		.thumb_func
 1903              		.type	setSn_PROTO, %function
 1904              	setSn_PROTO:
 1905              	.LFB70:
 576:.\w5100.c     **** 
 577:.\w5100.c     **** 
 578:.\w5100.c     **** /**
 579:.\w5100.c     **** @brief	These below function is used to setup the Protocol Field of IP Header when
 580:.\w5100.c     **** 		executing the IP Layer RAW mode.
 581:.\w5100.c     **** */
 582:.\w5100.c     **** void setSn_PROTO(SOCKET s, uint8 proto)
 583:.\w5100.c     **** {
 1906              		.loc 1 583 0
 1907              		.cfi_startproc
 1908              	.LVL213:
 1909 0000 08B5     		push	{r3, lr}
 1910              	.LCFI30:
 1911              		.cfi_def_cfa_offset 8
 1912              		.cfi_offset 3, -8
 1913              		.cfi_offset 14, -4
 584:.\w5100.c     **** 	IINCHIP_WRITE(Sn_PROTO(s),proto);
 1914              		.loc 1 584 0
 1915 0002 034B     		ldr	r3, .L89
ARM GAS  C:\Users\atsu\AppData\Local\Temp\ccNplIXy.s 			page 46


 1916 0004 0002     		lsl	r0, r0, #8
 1917              	.LVL214:
 1918 0006 C218     		add	r2, r0, r3
 1919 0008 90B2     		uxth	r0, r2
 1920 000a FFF7FEFF 		bl	IINCHIP_WRITE
 1921              	.LVL215:
 585:.\w5100.c     **** }
 1922              		.loc 1 585 0
 1923              		@ sp needed for prologue
 1924 000e 08BD     		pop	{r3, pc}
 1925              	.L90:
 1926              		.align	2
 1927              	.L89:
 1928 0010 14040000 		.word	1044
 1929              		.cfi_endproc
 1930              	.LFE70:
 1931              		.size	setSn_PROTO, .-setSn_PROTO
 1932              		.section	.text.getSn_IR,"ax",%progbits
 1933              		.align	1
 1934              		.global	getSn_IR
 1935              		.code	16
 1936              		.thumb_func
 1937              		.type	getSn_IR, %function
 1938              	getSn_IR:
 1939              	.LFB71:
 586:.\w5100.c     **** 
 587:.\w5100.c     **** 
 588:.\w5100.c     **** /**
 589:.\w5100.c     **** @brief	get socket interrupt status
 590:.\w5100.c     **** 
 591:.\w5100.c     **** These below functions are used to read the Interrupt & Soket Status register
 592:.\w5100.c     **** */
 593:.\w5100.c     **** uint8 getSn_IR(SOCKET s)
 594:.\w5100.c     **** {
 1940              		.loc 1 594 0
 1941              		.cfi_startproc
 1942              	.LVL216:
 1943 0000 08B5     		push	{r3, lr}
 1944              	.LCFI31:
 1945              		.cfi_def_cfa_offset 8
 1946              		.cfi_offset 3, -8
 1947              		.cfi_offset 14, -4
 595:.\w5100.c     ****    return IINCHIP_READ(Sn_IR(s));
 1948              		.loc 1 595 0
 1949 0002 034B     		ldr	r3, .L92
 1950 0004 0002     		lsl	r0, r0, #8
 1951              	.LVL217:
 1952 0006 C118     		add	r1, r0, r3
 1953 0008 88B2     		uxth	r0, r1
 1954 000a FFF7FEFF 		bl	IINCHIP_READ
 1955              	.LVL218:
 596:.\w5100.c     **** }
 1956              		.loc 1 596 0
 1957              		@ sp needed for prologue
 1958 000e 08BD     		pop	{r3, pc}
 1959              	.L93:
 1960              		.align	2
ARM GAS  C:\Users\atsu\AppData\Local\Temp\ccNplIXy.s 			page 47


 1961              	.L92:
 1962 0010 02040000 		.word	1026
 1963              		.cfi_endproc
 1964              	.LFE71:
 1965              		.size	getSn_IR, .-getSn_IR
 1966              		.section	.text.getSn_SR,"ax",%progbits
 1967              		.align	1
 1968              		.global	getSn_SR
 1969              		.code	16
 1970              		.thumb_func
 1971              		.type	getSn_SR, %function
 1972              	getSn_SR:
 1973              	.LFB72:
 597:.\w5100.c     **** 
 598:.\w5100.c     **** 
 599:.\w5100.c     **** /**
 600:.\w5100.c     **** @brief	 get socket status
 601:.\w5100.c     **** */
 602:.\w5100.c     **** uint8 getSn_SR(SOCKET s)
 603:.\w5100.c     **** {
 1974              		.loc 1 603 0
 1975              		.cfi_startproc
 1976              	.LVL219:
 1977 0000 08B5     		push	{r3, lr}
 1978              	.LCFI32:
 1979              		.cfi_def_cfa_offset 8
 1980              		.cfi_offset 3, -8
 1981              		.cfi_offset 14, -4
 604:.\w5100.c     ****    return IINCHIP_READ(Sn_SR(s));
 1982              		.loc 1 604 0
 1983 0002 034B     		ldr	r3, .L95
 1984 0004 0002     		lsl	r0, r0, #8
 1985              	.LVL220:
 1986 0006 C118     		add	r1, r0, r3
 1987 0008 88B2     		uxth	r0, r1
 1988 000a FFF7FEFF 		bl	IINCHIP_READ
 1989              	.LVL221:
 605:.\w5100.c     **** }
 1990              		.loc 1 605 0
 1991              		@ sp needed for prologue
 1992 000e 08BD     		pop	{r3, pc}
 1993              	.L96:
 1994              		.align	2
 1995              	.L95:
 1996 0010 03040000 		.word	1027
 1997              		.cfi_endproc
 1998              	.LFE72:
 1999              		.size	getSn_SR, .-getSn_SR
 2000              		.section	.text.getSn_TX_FSR,"ax",%progbits
 2001              		.align	1
 2002              		.global	getSn_TX_FSR
 2003              		.code	16
 2004              		.thumb_func
 2005              		.type	getSn_TX_FSR, %function
 2006              	getSn_TX_FSR:
 2007              	.LFB73:
 606:.\w5100.c     **** 
ARM GAS  C:\Users\atsu\AppData\Local\Temp\ccNplIXy.s 			page 48


 607:.\w5100.c     **** 
 608:.\w5100.c     **** /**
 609:.\w5100.c     **** @brief	get socket TX free buf size
 610:.\w5100.c     **** 
 611:.\w5100.c     **** This gives free buffer size of transmit buffer. This is the data size that user can transmit.
 612:.\w5100.c     **** User shuold check this value first and control the size of transmitting data
 613:.\w5100.c     **** */
 614:.\w5100.c     **** uint16 getSn_TX_FSR(SOCKET s)
 615:.\w5100.c     **** {
 2008              		.loc 1 615 0
 2009              		.cfi_startproc
 2010              	.LVL222:
 2011 0000 F8B5     		push	{r3, r4, r5, r6, r7, lr}
 2012              	.LCFI33:
 2013              		.cfi_def_cfa_offset 24
 2014              		.cfi_offset 3, -24
 2015              		.cfi_offset 4, -20
 2016              		.cfi_offset 5, -16
 2017              		.cfi_offset 6, -12
 2018              		.cfi_offset 7, -8
 2019              		.cfi_offset 14, -4
 616:.\w5100.c     **** 	uint16 val=0,val1=0;
 617:.\w5100.c     **** 	do
 618:.\w5100.c     **** 	{
 619:.\w5100.c     **** 		val1 = IINCHIP_READ(Sn_TX_FSR0(s));
 2020              		.loc 1 619 0
 2021 0002 071D     		add	r7, r0, #4
 2022 0004 3802     		lsl	r0, r7, #8
 2023              	.LVL223:
 2024 0006 81B2     		uxth	r1, r0
 2025 0008 0E1C     		mov	r6, r1
 2026 000a 2036     		add	r6, r6, #32
 620:.\w5100.c     **** 		val1 = (val1 << 8) + IINCHIP_READ(Sn_TX_FSR0(s) + 1);
 2027              		.loc 1 620 0
 2028 000c 2131     		add	r1, r1, #33
 619:.\w5100.c     **** 		val1 = IINCHIP_READ(Sn_TX_FSR0(s));
 2029              		.loc 1 619 0
 2030 000e B6B2     		uxth	r6, r6
 2031              		.loc 1 620 0
 2032 0010 8FB2     		uxth	r7, r1
 616:.\w5100.c     **** 	uint16 val=0,val1=0;
 2033              		.loc 1 616 0
 2034 0012 0024     		mov	r4, #0
 2035              	.LVL224:
 2036              	.L99:
 619:.\w5100.c     **** 		val1 = IINCHIP_READ(Sn_TX_FSR0(s));
 2037              		.loc 1 619 0
 2038 0014 301C     		mov	r0, r6
 2039 0016 FFF7FEFF 		bl	IINCHIP_READ
 2040              	.LVL225:
 2041              		.loc 1 620 0
 2042 001a 0502     		lsl	r5, r0, #8
 2043 001c 381C     		mov	r0, r7
 2044              	.LVL226:
 2045 001e FFF7FEFF 		bl	IINCHIP_READ
 2046              	.LVL227:
 2047 0022 ADB2     		uxth	r5, r5
ARM GAS  C:\Users\atsu\AppData\Local\Temp\ccNplIXy.s 			page 49


 2048 0024 2A18     		add	r2, r5, r0
 2049 0026 95B2     		uxth	r5, r2
 2050              	.LVL228:
 621:.\w5100.c     ****       if (val1 != 0)
 2051              		.loc 1 621 0
 2052 0028 002D     		cmp	r5, #0
 2053 002a 09D0     		beq	.L98
 622:.\w5100.c     **** 		{
 623:.\w5100.c     ****    			val = IINCHIP_READ(Sn_TX_FSR0(s));
 2054              		.loc 1 623 0
 2055 002c 301C     		mov	r0, r6
 2056 002e FFF7FEFF 		bl	IINCHIP_READ
 2057              	.LVL229:
 624:.\w5100.c     ****    			val = (val << 8) + IINCHIP_READ(Sn_TX_FSR0(s) + 1);
 2058              		.loc 1 624 0
 2059 0032 0402     		lsl	r4, r0, #8
 2060 0034 381C     		mov	r0, r7
 2061              	.LVL230:
 2062 0036 FFF7FEFF 		bl	IINCHIP_READ
 2063              	.LVL231:
 2064 003a A4B2     		uxth	r4, r4
 2065 003c 2318     		add	r3, r4, r0
 2066 003e 9CB2     		uxth	r4, r3
 2067              	.LVL232:
 2068              	.L98:
 625:.\w5100.c     **** 		}
 626:.\w5100.c     **** 	} while (val != val1);
 2069              		.loc 1 626 0
 2070 0040 AC42     		cmp	r4, r5
 2071 0042 E7D1     		bne	.L99
 627:.\w5100.c     ****    return val;
 628:.\w5100.c     **** }
 2072              		.loc 1 628 0
 2073 0044 201C     		mov	r0, r4
 2074              		@ sp needed for prologue
 2075              	.LVL233:
 2076              	.LVL234:
 2077 0046 F8BD     		pop	{r3, r4, r5, r6, r7, pc}
 2078              		.cfi_endproc
 2079              	.LFE73:
 2080              		.size	getSn_TX_FSR, .-getSn_TX_FSR
 2081              		.section	.text.getSn_RX_RSR,"ax",%progbits
 2082              		.align	1
 2083              		.global	getSn_RX_RSR
 2084              		.code	16
 2085              		.thumb_func
 2086              		.type	getSn_RX_RSR, %function
 2087              	getSn_RX_RSR:
 2088              	.LFB74:
 629:.\w5100.c     **** 
 630:.\w5100.c     **** 
 631:.\w5100.c     **** /**
 632:.\w5100.c     **** @brief	 get socket RX recv buf size
 633:.\w5100.c     **** 
 634:.\w5100.c     **** This gives size of received data in receive buffer. 
 635:.\w5100.c     **** */
 636:.\w5100.c     **** uint16 getSn_RX_RSR(SOCKET s)
ARM GAS  C:\Users\atsu\AppData\Local\Temp\ccNplIXy.s 			page 50


 637:.\w5100.c     **** {
 2089              		.loc 1 637 0
 2090              		.cfi_startproc
 2091              	.LVL235:
 2092 0000 F8B5     		push	{r3, r4, r5, r6, r7, lr}
 2093              	.LCFI34:
 2094              		.cfi_def_cfa_offset 24
 2095              		.cfi_offset 3, -24
 2096              		.cfi_offset 4, -20
 2097              		.cfi_offset 5, -16
 2098              		.cfi_offset 6, -12
 2099              		.cfi_offset 7, -8
 2100              		.cfi_offset 14, -4
 638:.\w5100.c     **** 	uint16 val=0,val1=0;
 639:.\w5100.c     **** 	do
 640:.\w5100.c     **** 	{
 641:.\w5100.c     **** 		val1 = IINCHIP_READ(Sn_RX_RSR0(s));
 2101              		.loc 1 641 0
 2102 0002 071D     		add	r7, r0, #4
 2103 0004 3802     		lsl	r0, r7, #8
 2104              	.LVL236:
 2105 0006 81B2     		uxth	r1, r0
 2106 0008 0E1C     		mov	r6, r1
 2107 000a 2636     		add	r6, r6, #38
 642:.\w5100.c     **** 		val1 = (val1 << 8) + IINCHIP_READ(Sn_RX_RSR0(s) + 1);
 2108              		.loc 1 642 0
 2109 000c 2731     		add	r1, r1, #39
 641:.\w5100.c     **** 		val1 = IINCHIP_READ(Sn_RX_RSR0(s));
 2110              		.loc 1 641 0
 2111 000e B6B2     		uxth	r6, r6
 2112              		.loc 1 642 0
 2113 0010 8FB2     		uxth	r7, r1
 638:.\w5100.c     **** 	uint16 val=0,val1=0;
 2114              		.loc 1 638 0
 2115 0012 0024     		mov	r4, #0
 2116              	.LVL237:
 2117              	.L106:
 641:.\w5100.c     **** 		val1 = IINCHIP_READ(Sn_RX_RSR0(s));
 2118              		.loc 1 641 0
 2119 0014 301C     		mov	r0, r6
 2120 0016 FFF7FEFF 		bl	IINCHIP_READ
 2121              	.LVL238:
 2122              		.loc 1 642 0
 2123 001a 0502     		lsl	r5, r0, #8
 2124 001c 381C     		mov	r0, r7
 2125              	.LVL239:
 2126 001e FFF7FEFF 		bl	IINCHIP_READ
 2127              	.LVL240:
 2128 0022 ADB2     		uxth	r5, r5
 2129 0024 2A18     		add	r2, r5, r0
 2130 0026 95B2     		uxth	r5, r2
 2131              	.LVL241:
 643:.\w5100.c     ****       if(val1 != 0)
 2132              		.loc 1 643 0
 2133 0028 002D     		cmp	r5, #0
 2134 002a 09D0     		beq	.L105
 644:.\w5100.c     **** 		{
ARM GAS  C:\Users\atsu\AppData\Local\Temp\ccNplIXy.s 			page 51


 645:.\w5100.c     ****    			val = IINCHIP_READ(Sn_RX_RSR0(s));
 2135              		.loc 1 645 0
 2136 002c 301C     		mov	r0, r6
 2137 002e FFF7FEFF 		bl	IINCHIP_READ
 2138              	.LVL242:
 646:.\w5100.c     ****    			val = (val << 8) + IINCHIP_READ(Sn_RX_RSR0(s) + 1);
 2139              		.loc 1 646 0
 2140 0032 0402     		lsl	r4, r0, #8
 2141 0034 381C     		mov	r0, r7
 2142              	.LVL243:
 2143 0036 FFF7FEFF 		bl	IINCHIP_READ
 2144              	.LVL244:
 2145 003a A4B2     		uxth	r4, r4
 2146 003c 2318     		add	r3, r4, r0
 2147 003e 9CB2     		uxth	r4, r3
 2148              	.LVL245:
 2149              	.L105:
 647:.\w5100.c     **** 		}
 648:.\w5100.c     **** 	} while (val != val1);
 2150              		.loc 1 648 0
 2151 0040 AC42     		cmp	r4, r5
 2152 0042 E7D1     		bne	.L106
 649:.\w5100.c     ****    return val;
 650:.\w5100.c     **** }
 2153              		.loc 1 650 0
 2154 0044 201C     		mov	r0, r4
 2155              		@ sp needed for prologue
 2156              	.LVL246:
 2157              	.LVL247:
 2158 0046 F8BD     		pop	{r3, r4, r5, r6, r7, pc}
 2159              		.cfi_endproc
 2160              	.LFE74:
 2161              		.size	getSn_RX_RSR, .-getSn_RX_RSR
 2162              		.section	.text.write_data,"ax",%progbits
 2163              		.align	1
 2164              		.global	write_data
 2165              		.code	16
 2166              		.thumb_func
 2167              		.type	write_data, %function
 2168              	write_data:
 2169              	.LFB77:
 651:.\w5100.c     **** 
 652:.\w5100.c     **** 
 653:.\w5100.c     **** /**
 654:.\w5100.c     **** @brief	 This function is being called by send() and sendto() function also. 
 655:.\w5100.c     **** 
 656:.\w5100.c     **** This function read the Tx write pointer register and after copy the data in buffer update the Tx wr
 657:.\w5100.c     **** register. User should read upper uint8 first and lower uint8 later to get proper value.
 658:.\w5100.c     **** */
 659:.\w5100.c     **** void send_data_processing(SOCKET s, uint8 *data, uint16 len)
 660:.\w5100.c     **** {
 661:.\w5100.c     **** 	uint16 ptr;
 662:.\w5100.c     **** 	ptr = IINCHIP_READ(Sn_TX_WR0(s));
 663:.\w5100.c     **** 	ptr = ((ptr & 0x00ff) << 8) + IINCHIP_READ(Sn_TX_WR0(s) + 1);
 664:.\w5100.c     **** 	write_data(s, data, (uint8 *)(ptr), len);
 665:.\w5100.c     **** 	ptr += len;
 666:.\w5100.c     **** 	IINCHIP_WRITE(Sn_TX_WR0(s),(uint8)((ptr & 0xff00) >> 8));
ARM GAS  C:\Users\atsu\AppData\Local\Temp\ccNplIXy.s 			page 52


 667:.\w5100.c     **** 	IINCHIP_WRITE((Sn_TX_WR0(s) + 1),(uint8)(ptr & 0x00ff));
 668:.\w5100.c     **** }
 669:.\w5100.c     **** 
 670:.\w5100.c     **** 
 671:.\w5100.c     **** /**
 672:.\w5100.c     **** @brief	This function is being called by recv() also.
 673:.\w5100.c     **** 
 674:.\w5100.c     **** This function read the Rx read pointer register
 675:.\w5100.c     **** and after copy the data from receive buffer update the Rx write pointer register.
 676:.\w5100.c     **** User should read upper uint8 first and lower uint8 later to get proper value.
 677:.\w5100.c     **** */
 678:.\w5100.c     **** void recv_data_processing(SOCKET s, uint8 *data, uint16 len)
 679:.\w5100.c     **** {
 680:.\w5100.c     **** 	uint16 ptr;
 681:.\w5100.c     **** 	ptr = IINCHIP_READ(Sn_RX_RD0(s));
 682:.\w5100.c     **** 	ptr = ((ptr & 0x00ff) << 8) + IINCHIP_READ(Sn_RX_RD0(s) + 1);
 683:.\w5100.c     **** #ifdef __DEF_IINCHIP_DBG__
 684:.\w5100.c     **** 	printf("ISR_RX: rd_ptr : %.4x\r\n", ptr);
 685:.\w5100.c     **** #endif
 686:.\w5100.c     **** 	read_data(s, (uint8 *)ptr, data, len); // read data
 687:.\w5100.c     **** 	ptr += len;
 688:.\w5100.c     **** 	IINCHIP_WRITE(Sn_RX_RD0(s),(uint8)((ptr & 0xff00) >> 8));
 689:.\w5100.c     **** 	IINCHIP_WRITE((Sn_RX_RD0(s) + 1),(uint8)(ptr & 0x00ff));
 690:.\w5100.c     **** }
 691:.\w5100.c     **** 
 692:.\w5100.c     **** 
 693:.\w5100.c     **** /**
 694:.\w5100.c     **** @brief	for copy the data form application buffer to Transmite buffer of the chip.
 695:.\w5100.c     **** 
 696:.\w5100.c     **** This function is being used for copy the data form application buffer to Transmite
 697:.\w5100.c     **** buffer of the chip. It calculate the actual physical address where one has to write
 698:.\w5100.c     **** the data in transmite buffer. Here also take care of the condition while it exceed
 699:.\w5100.c     **** the Tx memory uper-bound of socket.
 700:.\w5100.c     **** */
 701:.\w5100.c     **** void write_data(SOCKET s, vuint8 * src, vuint8 * dst, uint16 len)
 702:.\w5100.c     **** {
 2170              		.loc 1 702 0
 2171              		.cfi_startproc
 2172              	.LVL248:
 2173 0000 F8B5     		push	{r3, r4, r5, r6, r7, lr}
 2174              	.LCFI35:
 2175              		.cfi_def_cfa_offset 24
 2176              		.cfi_offset 3, -24
 2177              		.cfi_offset 4, -20
 2178              		.cfi_offset 5, -16
 2179              		.cfi_offset 6, -12
 2180              		.cfi_offset 7, -8
 2181              		.cfi_offset 14, -4
 2182              	.LBB22:
 2183              	.LBB23:
  90:.\w5100.c     ****    return SMASK[s];
 2184              		.loc 1 90 0
 2185 0002 0F4C     		ldr	r4, .L115
 2186 0004 4000     		lsl	r0, r0, #1
 2187              	.LVL249:
 2188 0006 2418     		add	r4, r4, r0
 2189              	.LBE23:
ARM GAS  C:\Users\atsu\AppData\Local\Temp\ccNplIXy.s 			page 53


 2190              	.LBE22:
 703:.\w5100.c     **** 	uint16 size;
 704:.\w5100.c     **** 	uint16 dst_mask;
 705:.\w5100.c     **** 	uint8 * dst_ptr;
 706:.\w5100.c     **** 
 707:.\w5100.c     **** 	dst_mask = (uint16)dst & getIINCHIP_TxMASK(s);
 2191              		.loc 1 707 0
 2192 0008 A78B     		ldrh	r7, [r4, #28]
 702:.\w5100.c     **** {
 2193              		.loc 1 702 0
 2194 000a 0E1C     		mov	r6, r1
 708:.\w5100.c     **** 	dst_ptr = (uint8 *)(getIINCHIP_TxBASE(s) + dst_mask);
 2195              		.loc 1 708 0
 2196 000c A18D     		ldrh	r1, [r4, #44]
 2197              	.LVL250:
 707:.\w5100.c     **** 	dst_mask = (uint16)dst & getIINCHIP_TxMASK(s);
 2198              		.loc 1 707 0
 2199 000e 3A40     		and	r2, r7
 2200              	.LVL251:
 2201              	.LBB24:
 2202              	.LBB25:
  82:.\w5100.c     ****    return SSIZE[s];
 2203              		.loc 1 82 0
 2204 0010 A789     		ldrh	r7, [r4, #12]
 2205              	.LBE25:
 2206              	.LBE24:
 702:.\w5100.c     **** {
 2207              		.loc 1 702 0
 2208 0012 1D1C     		mov	r5, r3
 2209              		.loc 1 708 0
 2210 0014 8818     		add	r0, r1, r2
 2211              	.LVL252:
 709:.\w5100.c     **** 	
 710:.\w5100.c     **** 	if (dst_mask + len > getIINCHIP_TxMAX(s)) 
 2212              		.loc 1 710 0
 2213 0016 D318     		add	r3, r2, r3
 2214              	.LVL253:
 2215 0018 80B2     		uxth	r0, r0
 2216              	.LVL254:
 2217 001a BB42     		cmp	r3, r7
 2218 001c 0ADD     		ble	.L112
 711:.\w5100.c     **** 	{
 712:.\w5100.c     **** 		size = getIINCHIP_TxMAX(s) - dst_mask;
 2219              		.loc 1 712 0
 2220 001e BA1A     		sub	r2, r7, r2
 2221              	.LVL255:
 2222 0020 97B2     		uxth	r7, r2
 2223              	.LVL256:
 713:.\w5100.c     **** 		wiz_write_buf((uint16)dst_ptr, (uint8*)src, size);
 2224              		.loc 1 713 0
 2225 0022 311C     		mov	r1, r6
 2226              	.LVL257:
 2227 0024 3A1C     		mov	r2, r7
 2228 0026 FFF7FEFF 		bl	wiz_write_buf
 2229              	.LVL258:
 714:.\w5100.c     **** 		src += size;
 2230              		.loc 1 714 0
ARM GAS  C:\Users\atsu\AppData\Local\Temp\ccNplIXy.s 			page 54


 2231 002a F119     		add	r1, r6, r7
 715:.\w5100.c     **** 		size = len - size;
 2232              		.loc 1 715 0
 2233 002c EE1B     		sub	r6, r5, r7
 2234              	.LVL259:
 716:.\w5100.c     **** 		dst_ptr = (uint8 *)(getIINCHIP_TxBASE(s));
 717:.\w5100.c     **** 		wiz_write_buf((uint16)dst_ptr, (uint8*)src, size);
 2235              		.loc 1 717 0
 2236 002e A08D     		ldrh	r0, [r4, #44]
 2237 0030 B2B2     		uxth	r2, r6
 2238 0032 01E0     		b	.L114
 2239              	.LVL260:
 2240              	.L112:
 718:.\w5100.c     **** 	} 
 719:.\w5100.c     **** 	else
 720:.\w5100.c     **** 	{
 721:.\w5100.c     **** 		wiz_write_buf((uint16)dst_ptr, (uint8*)src, len);
 2241              		.loc 1 721 0
 2242 0034 311C     		mov	r1, r6
 2243              	.LVL261:
 2244 0036 2A1C     		mov	r2, r5
 2245              	.LVL262:
 2246              	.L114:
 2247 0038 FFF7FEFF 		bl	wiz_write_buf
 2248              	.LVL263:
 722:.\w5100.c     **** 	}
 723:.\w5100.c     **** }
 2249              		.loc 1 723 0
 2250              		@ sp needed for prologue
 2251 003c F8BD     		pop	{r3, r4, r5, r6, r7, pc}
 2252              	.L116:
 2253 003e C046     		.align	2
 2254              	.L115:
 2255 0040 00000000 		.word	.LANCHOR0
 2256              		.cfi_endproc
 2257              	.LFE77:
 2258              		.size	write_data, .-write_data
 2259              		.section	.text.send_data_processing,"ax",%progbits
 2260              		.align	1
 2261              		.global	send_data_processing
 2262              		.code	16
 2263              		.thumb_func
 2264              		.type	send_data_processing, %function
 2265              	send_data_processing:
 2266              	.LFB75:
 660:.\w5100.c     **** {
 2267              		.loc 1 660 0
 2268              		.cfi_startproc
 2269              	.LVL264:
 2270 0000 F7B5     		push	{r0, r1, r2, r4, r5, r6, r7, lr}
 2271              	.LCFI36:
 2272              		.cfi_def_cfa_offset 32
 2273              		.cfi_offset 0, -32
 2274              		.cfi_offset 1, -28
 2275              		.cfi_offset 2, -24
 2276              		.cfi_offset 4, -20
 2277              		.cfi_offset 5, -16
ARM GAS  C:\Users\atsu\AppData\Local\Temp\ccNplIXy.s 			page 55


 2278              		.cfi_offset 6, -12
 2279              		.cfi_offset 7, -8
 2280              		.cfi_offset 14, -4
 662:.\w5100.c     **** 	ptr = IINCHIP_READ(Sn_TX_WR0(s));
 2281              		.loc 1 662 0
 2282 0002 041D     		add	r4, r0, #4
 660:.\w5100.c     **** {
 2283              		.loc 1 660 0
 2284 0004 071C     		mov	r7, r0
 662:.\w5100.c     **** 	ptr = IINCHIP_READ(Sn_TX_WR0(s));
 2285              		.loc 1 662 0
 2286 0006 2002     		lsl	r0, r4, #8
 2287              	.LVL265:
 2288 0008 84B2     		uxth	r4, r0
 2289 000a 251C     		mov	r5, r4
 2290 000c 2435     		add	r5, r5, #36
 2291 000e ADB2     		uxth	r5, r5
 2292 0010 281C     		mov	r0, r5
 660:.\w5100.c     **** {
 2293              		.loc 1 660 0
 2294 0012 0191     		str	r1, [sp, #4]
 2295 0014 0092     		str	r2, [sp]
 662:.\w5100.c     **** 	ptr = IINCHIP_READ(Sn_TX_WR0(s));
 2296              		.loc 1 662 0
 2297 0016 FFF7FEFF 		bl	IINCHIP_READ
 2298              	.LVL266:
 663:.\w5100.c     **** 	ptr = ((ptr & 0x00ff) << 8) + IINCHIP_READ(Sn_TX_WR0(s) + 1);
 2299              		.loc 1 663 0
 2300 001a 2534     		add	r4, r4, #37
 2301 001c A4B2     		uxth	r4, r4
 662:.\w5100.c     **** 	ptr = IINCHIP_READ(Sn_TX_WR0(s));
 2302              		.loc 1 662 0
 2303 001e 061C     		mov	r6, r0
 2304              	.LVL267:
 663:.\w5100.c     **** 	ptr = ((ptr & 0x00ff) << 8) + IINCHIP_READ(Sn_TX_WR0(s) + 1);
 2305              		.loc 1 663 0
 2306 0020 201C     		mov	r0, r4
 2307              	.LVL268:
 2308 0022 FFF7FEFF 		bl	IINCHIP_READ
 2309              	.LVL269:
 2310 0026 3102     		lsl	r1, r6, #8
 2311 0028 4218     		add	r2, r0, r1
 2312 002a 96B2     		uxth	r6, r2
 2313              	.LVL270:
 664:.\w5100.c     **** 	write_data(s, data, (uint8 *)(ptr), len);
 2314              		.loc 1 664 0
 2315 002c 321C     		mov	r2, r6
 2316 002e 381C     		mov	r0, r7
 2317 0030 0199     		ldr	r1, [sp, #4]
 2318 0032 009B     		ldr	r3, [sp]
 2319 0034 FFF7FEFF 		bl	write_data
 2320              	.LVL271:
 665:.\w5100.c     **** 	ptr += len;
 2321              		.loc 1 665 0
 2322 0038 009B     		ldr	r3, [sp]
 666:.\w5100.c     **** 	IINCHIP_WRITE(Sn_TX_WR0(s),(uint8)((ptr & 0xff00) >> 8));
 2323              		.loc 1 666 0
ARM GAS  C:\Users\atsu\AppData\Local\Temp\ccNplIXy.s 			page 56


 2324 003a 281C     		mov	r0, r5
 665:.\w5100.c     **** 	ptr += len;
 2325              		.loc 1 665 0
 2326 003c F718     		add	r7, r6, r3
 2327 003e BEB2     		uxth	r6, r7
 2328              	.LVL272:
 666:.\w5100.c     **** 	IINCHIP_WRITE(Sn_TX_WR0(s),(uint8)((ptr & 0xff00) >> 8));
 2329              		.loc 1 666 0
 2330 0040 310A     		lsr	r1, r6, #8
 2331 0042 FFF7FEFF 		bl	IINCHIP_WRITE
 2332              	.LVL273:
 667:.\w5100.c     **** 	IINCHIP_WRITE((Sn_TX_WR0(s) + 1),(uint8)(ptr & 0x00ff));
 2333              		.loc 1 667 0
 2334 0046 F1B2     		uxtb	r1, r6
 2335 0048 201C     		mov	r0, r4
 2336 004a FFF7FEFF 		bl	IINCHIP_WRITE
 2337              	.LVL274:
 668:.\w5100.c     **** }
 2338              		.loc 1 668 0
 2339              		@ sp needed for prologue
 2340              	.LVL275:
 2341 004e F7BD     		pop	{r0, r1, r2, r4, r5, r6, r7, pc}
 2342              		.cfi_endproc
 2343              	.LFE75:
 2344              		.size	send_data_processing, .-send_data_processing
 2345              		.section	.text.read_data,"ax",%progbits
 2346              		.align	1
 2347              		.global	read_data
 2348              		.code	16
 2349              		.thumb_func
 2350              		.type	read_data, %function
 2351              	read_data:
 2352              	.LFB78:
 724:.\w5100.c     **** 
 725:.\w5100.c     **** 
 726:.\w5100.c     **** /**
 727:.\w5100.c     **** @brief	This function is being used for copy the data form Receive buffer of the chip to application
 728:.\w5100.c     **** 
 729:.\w5100.c     **** It calculate the actual physical address where one has to read
 730:.\w5100.c     **** the data from Receive buffer. Here also take care of the condition while it exceed
 731:.\w5100.c     **** the Rx memory uper-bound of socket.
 732:.\w5100.c     **** */
 733:.\w5100.c     **** void read_data(SOCKET s, vuint8 * src, vuint8 * dst, uint16 len)
 734:.\w5100.c     **** {
 2353              		.loc 1 734 0
 2354              		.cfi_startproc
 2355              	.LVL276:
 2356 0000 F8B5     		push	{r3, r4, r5, r6, r7, lr}
 2357              	.LCFI37:
 2358              		.cfi_def_cfa_offset 24
 2359              		.cfi_offset 3, -24
 2360              		.cfi_offset 4, -20
 2361              		.cfi_offset 5, -16
 2362              		.cfi_offset 6, -12
 2363              		.cfi_offset 7, -8
 2364              		.cfi_offset 14, -4
 2365              	.LBB26:
ARM GAS  C:\Users\atsu\AppData\Local\Temp\ccNplIXy.s 			page 57


 2366              	.LBB27:
  86:.\w5100.c     ****    return RMASK[s];
 2367              		.loc 1 86 0
 2368 0002 0F4C     		ldr	r4, .L122
 2369 0004 4000     		lsl	r0, r0, #1
 2370              	.LVL277:
 2371 0006 2418     		add	r4, r4, r0
 2372              	.LBE27:
 2373              	.LBE26:
 735:.\w5100.c     **** 	uint16 size;
 736:.\w5100.c     **** 	uint16 src_mask;
 737:.\w5100.c     **** 	uint8 * src_ptr;
 738:.\w5100.c     **** 
 739:.\w5100.c     **** 	src_mask = (uint16)src & getIINCHIP_RxMASK(s);
 2374              		.loc 1 739 0
 2375 0008 A78A     		ldrh	r7, [r4, #20]
 734:.\w5100.c     **** {
 2376              		.loc 1 734 0
 2377 000a 161C     		mov	r6, r2
 740:.\w5100.c     **** 	src_ptr = (uint8 *)(getIINCHIP_RxBASE(s) + src_mask);
 2378              		.loc 1 740 0
 2379 000c A28C     		ldrh	r2, [r4, #36]
 2380              	.LVL278:
 739:.\w5100.c     **** 	src_mask = (uint16)src & getIINCHIP_RxMASK(s);
 2381              		.loc 1 739 0
 2382 000e 3940     		and	r1, r7
 2383              	.LVL279:
 2384              	.LBB28:
 2385              	.LBB29:
  78:.\w5100.c     ****    return RSIZE[s];
 2386              		.loc 1 78 0
 2387 0010 A788     		ldrh	r7, [r4, #4]
 2388              	.LBE29:
 2389              	.LBE28:
 734:.\w5100.c     **** {
 2390              		.loc 1 734 0
 2391 0012 1D1C     		mov	r5, r3
 2392              		.loc 1 740 0
 2393 0014 5018     		add	r0, r2, r1
 2394              	.LVL280:
 741:.\w5100.c     **** 	
 742:.\w5100.c     **** 	if( (src_mask + len) > getIINCHIP_RxMAX(s) ) 
 2395              		.loc 1 742 0
 2396 0016 CB18     		add	r3, r1, r3
 2397              	.LVL281:
 2398 0018 80B2     		uxth	r0, r0
 2399              	.LVL282:
 2400 001a BB42     		cmp	r3, r7
 2401 001c 0ADD     		ble	.L119
 743:.\w5100.c     **** 	{
 744:.\w5100.c     **** 		size = getIINCHIP_RxMAX(s) - src_mask;
 2402              		.loc 1 744 0
 2403 001e 791A     		sub	r1, r7, r1
 2404              	.LVL283:
 2405 0020 8FB2     		uxth	r7, r1
 2406              	.LVL284:
 745:.\w5100.c     **** 		wiz_read_buf((uint16)src_ptr, (uint8*)dst,size);
ARM GAS  C:\Users\atsu\AppData\Local\Temp\ccNplIXy.s 			page 58


 2407              		.loc 1 745 0
 2408 0022 3A1C     		mov	r2, r7
 2409              	.LVL285:
 2410 0024 311C     		mov	r1, r6
 2411              	.LVL286:
 2412 0026 FFF7FEFF 		bl	wiz_read_buf
 2413              	.LVL287:
 746:.\w5100.c     **** 		dst += size;
 2414              		.loc 1 746 0
 2415 002a F119     		add	r1, r6, r7
 747:.\w5100.c     **** 		size = len - size;
 2416              		.loc 1 747 0
 2417 002c EE1B     		sub	r6, r5, r7
 2418              	.LVL288:
 748:.\w5100.c     **** 		src_ptr = (uint8 *)(getIINCHIP_RxBASE(s));
 749:.\w5100.c     **** 		wiz_read_buf((uint16)src_ptr, (uint8*) dst,size);
 2419              		.loc 1 749 0
 2420 002e A08C     		ldrh	r0, [r4, #36]
 2421 0030 B2B2     		uxth	r2, r6
 2422 0032 01E0     		b	.L121
 2423              	.LVL289:
 2424              	.L119:
 750:.\w5100.c     **** 	} 
 751:.\w5100.c     **** 	else
 752:.\w5100.c     **** 	{
 753:.\w5100.c     **** 		wiz_read_buf((uint16)src_ptr, (uint8*) dst,len);
 2425              		.loc 1 753 0
 2426 0034 311C     		mov	r1, r6
 2427              	.LVL290:
 2428 0036 2A1C     		mov	r2, r5
 2429              	.LVL291:
 2430              	.L121:
 2431 0038 FFF7FEFF 		bl	wiz_read_buf
 2432              	.LVL292:
 754:.\w5100.c     **** 	}
 755:.\w5100.c     **** }
 2433              		.loc 1 755 0
 2434              		@ sp needed for prologue
 2435 003c F8BD     		pop	{r3, r4, r5, r6, r7, pc}
 2436              	.L123:
 2437 003e C046     		.align	2
 2438              	.L122:
 2439 0040 00000000 		.word	.LANCHOR0
 2440              		.cfi_endproc
 2441              	.LFE78:
 2442              		.size	read_data, .-read_data
 2443              		.section	.text.recv_data_processing,"ax",%progbits
 2444              		.align	1
 2445              		.global	recv_data_processing
 2446              		.code	16
 2447              		.thumb_func
 2448              		.type	recv_data_processing, %function
 2449              	recv_data_processing:
 2450              	.LFB76:
 679:.\w5100.c     **** {
 2451              		.loc 1 679 0
 2452              		.cfi_startproc
ARM GAS  C:\Users\atsu\AppData\Local\Temp\ccNplIXy.s 			page 59


 2453              	.LVL293:
 2454 0000 F7B5     		push	{r0, r1, r2, r4, r5, r6, r7, lr}
 2455              	.LCFI38:
 2456              		.cfi_def_cfa_offset 32
 2457              		.cfi_offset 0, -32
 2458              		.cfi_offset 1, -28
 2459              		.cfi_offset 2, -24
 2460              		.cfi_offset 4, -20
 2461              		.cfi_offset 5, -16
 2462              		.cfi_offset 6, -12
 2463              		.cfi_offset 7, -8
 2464              		.cfi_offset 14, -4
 681:.\w5100.c     **** 	ptr = IINCHIP_READ(Sn_RX_RD0(s));
 2465              		.loc 1 681 0
 2466 0002 041D     		add	r4, r0, #4
 679:.\w5100.c     **** {
 2467              		.loc 1 679 0
 2468 0004 071C     		mov	r7, r0
 681:.\w5100.c     **** 	ptr = IINCHIP_READ(Sn_RX_RD0(s));
 2469              		.loc 1 681 0
 2470 0006 2002     		lsl	r0, r4, #8
 2471              	.LVL294:
 2472 0008 84B2     		uxth	r4, r0
 2473 000a 251C     		mov	r5, r4
 2474 000c 2835     		add	r5, r5, #40
 2475 000e ADB2     		uxth	r5, r5
 2476 0010 281C     		mov	r0, r5
 679:.\w5100.c     **** {
 2477              		.loc 1 679 0
 2478 0012 0191     		str	r1, [sp, #4]
 2479 0014 0092     		str	r2, [sp]
 681:.\w5100.c     **** 	ptr = IINCHIP_READ(Sn_RX_RD0(s));
 2480              		.loc 1 681 0
 2481 0016 FFF7FEFF 		bl	IINCHIP_READ
 2482              	.LVL295:
 682:.\w5100.c     **** 	ptr = ((ptr & 0x00ff) << 8) + IINCHIP_READ(Sn_RX_RD0(s) + 1);
 2483              		.loc 1 682 0
 2484 001a 2934     		add	r4, r4, #41
 2485 001c A4B2     		uxth	r4, r4
 681:.\w5100.c     **** 	ptr = IINCHIP_READ(Sn_RX_RD0(s));
 2486              		.loc 1 681 0
 2487 001e 061C     		mov	r6, r0
 2488              	.LVL296:
 682:.\w5100.c     **** 	ptr = ((ptr & 0x00ff) << 8) + IINCHIP_READ(Sn_RX_RD0(s) + 1);
 2489              		.loc 1 682 0
 2490 0020 201C     		mov	r0, r4
 2491              	.LVL297:
 2492 0022 FFF7FEFF 		bl	IINCHIP_READ
 2493              	.LVL298:
 2494 0026 3102     		lsl	r1, r6, #8
 2495 0028 4218     		add	r2, r0, r1
 2496 002a 96B2     		uxth	r6, r2
 2497              	.LVL299:
 686:.\w5100.c     **** 	read_data(s, (uint8 *)ptr, data, len); // read data
 2498              		.loc 1 686 0
 2499 002c 381C     		mov	r0, r7
 2500 002e 019A     		ldr	r2, [sp, #4]
ARM GAS  C:\Users\atsu\AppData\Local\Temp\ccNplIXy.s 			page 60


 2501              	.LVL300:
 2502 0030 311C     		mov	r1, r6
 2503 0032 009B     		ldr	r3, [sp]
 2504 0034 FFF7FEFF 		bl	read_data
 2505              	.LVL301:
 687:.\w5100.c     **** 	ptr += len;
 2506              		.loc 1 687 0
 2507 0038 009B     		ldr	r3, [sp]
 688:.\w5100.c     **** 	IINCHIP_WRITE(Sn_RX_RD0(s),(uint8)((ptr & 0xff00) >> 8));
 2508              		.loc 1 688 0
 2509 003a 281C     		mov	r0, r5
 687:.\w5100.c     **** 	ptr += len;
 2510              		.loc 1 687 0
 2511 003c F718     		add	r7, r6, r3
 2512 003e BEB2     		uxth	r6, r7
 2513              	.LVL302:
 688:.\w5100.c     **** 	IINCHIP_WRITE(Sn_RX_RD0(s),(uint8)((ptr & 0xff00) >> 8));
 2514              		.loc 1 688 0
 2515 0040 310A     		lsr	r1, r6, #8
 2516 0042 FFF7FEFF 		bl	IINCHIP_WRITE
 2517              	.LVL303:
 689:.\w5100.c     **** 	IINCHIP_WRITE((Sn_RX_RD0(s) + 1),(uint8)(ptr & 0x00ff));
 2518              		.loc 1 689 0
 2519 0046 F1B2     		uxtb	r1, r6
 2520 0048 201C     		mov	r0, r4
 2521 004a FFF7FEFF 		bl	IINCHIP_WRITE
 2522              	.LVL304:
 690:.\w5100.c     **** }
 2523              		.loc 1 690 0
 2524              		@ sp needed for prologue
 2525              	.LVL305:
 2526 004e F7BD     		pop	{r0, r1, r2, r4, r5, r6, r7, pc}
 2527              		.cfi_endproc
 2528              	.LFE76:
 2529              		.size	recv_data_processing, .-recv_data_processing
 2530              		.bss
 2531              		.align	1
 2532              		.set	.LANCHOR0,. + 0
 2533              		.type	I_STATUS, %object
 2534              		.size	I_STATUS, 4
 2535              	I_STATUS:
 2536 0000 00000000 		.space	4
 2537              		.type	RSIZE, %object
 2538              		.size	RSIZE, 8
 2539              	RSIZE:
 2540 0004 00000000 		.space	8
 2540      00000000 
 2541              		.type	SSIZE, %object
 2542              		.size	SSIZE, 8
 2543              	SSIZE:
 2544 000c 00000000 		.space	8
 2544      00000000 
 2545              		.type	RMASK, %object
 2546              		.size	RMASK, 8
 2547              	RMASK:
 2548 0014 00000000 		.space	8
 2548      00000000 
ARM GAS  C:\Users\atsu\AppData\Local\Temp\ccNplIXy.s 			page 61


 2549              		.type	SMASK, %object
 2550              		.size	SMASK, 8
 2551              	SMASK:
 2552 001c 00000000 		.space	8
 2552      00000000 
 2553              		.type	RBUFBASEADDRESS, %object
 2554              		.size	RBUFBASEADDRESS, 8
 2555              	RBUFBASEADDRESS:
 2556 0024 00000000 		.space	8
 2556      00000000 
 2557              		.type	SBUFBASEADDRESS, %object
 2558              		.size	SBUFBASEADDRESS, 8
 2559              	SBUFBASEADDRESS:
 2560 002c 00000000 		.space	8
 2560      00000000 
 2561              		.text
 2562              	.Letext0:
 2563              		.file 2 "./Generated_Source/PSoC4/cytypes.h"
 2564              		.file 3 ".\\types.h"
 2565              		.file 4 ".\\w5100.h"
 2566              		.file 5 "./Generated_Source/PSoC4/SPI_SPI_UART.h"
 2567              		.file 6 "./Generated_Source/PSoC4/SPI_CS.h"
 2568              		.file 7 "./Generated_Source/PSoC4/CyLib.h"
 2569              		.file 8 "./Generated_Source/PSoC4/SPI.h"
 2570              		.section	.debug_info,"",%progbits
 2571              	.Ldebug_info0:
 2572 0000 9A160000 		.4byte	0x169a
 2573 0004 0200     		.2byte	0x2
 2574 0006 00000000 		.4byte	.Ldebug_abbrev0
 2575 000a 04       		.byte	0x4
 2576 000b 01       		.uleb128 0x1
 2577 000c 67030000 		.4byte	.LASF96
 2578 0010 01       		.byte	0x1
 2579 0011 CF000000 		.4byte	.LASF97
 2580 0015 A3020000 		.4byte	.LASF98
 2581 0019 00000000 		.4byte	.Ldebug_ranges0+0
 2582 001d 00000000 		.4byte	0
 2583 0021 00000000 		.4byte	0
 2584 0025 00000000 		.4byte	.Ldebug_line0
 2585 0029 02       		.uleb128 0x2
 2586 002a 04       		.byte	0x4
 2587 002b 07       		.byte	0x7
 2588 002c 2F020000 		.4byte	.LASF0
 2589 0030 02       		.uleb128 0x2
 2590 0031 01       		.byte	0x1
 2591 0032 06       		.byte	0x6
 2592 0033 FD010000 		.4byte	.LASF1
 2593 0037 02       		.uleb128 0x2
 2594 0038 01       		.byte	0x1
 2595 0039 08       		.byte	0x8
 2596 003a 90010000 		.4byte	.LASF2
 2597 003e 02       		.uleb128 0x2
 2598 003f 02       		.byte	0x2
 2599 0040 05       		.byte	0x5
 2600 0041 3C000000 		.4byte	.LASF3
 2601 0045 02       		.uleb128 0x2
 2602 0046 02       		.byte	0x2
ARM GAS  C:\Users\atsu\AppData\Local\Temp\ccNplIXy.s 			page 62


 2603 0047 07       		.byte	0x7
 2604 0048 73020000 		.4byte	.LASF4
 2605 004c 03       		.uleb128 0x3
 2606 004d 04       		.byte	0x4
 2607 004e 05       		.byte	0x5
 2608 004f 696E7400 		.ascii	"int\000"
 2609 0053 02       		.uleb128 0x2
 2610 0054 08       		.byte	0x8
 2611 0055 05       		.byte	0x5
 2612 0056 39010000 		.4byte	.LASF5
 2613 005a 02       		.uleb128 0x2
 2614 005b 08       		.byte	0x8
 2615 005c 07       		.byte	0x7
 2616 005d 09020000 		.4byte	.LASF6
 2617 0061 02       		.uleb128 0x2
 2618 0062 04       		.byte	0x4
 2619 0063 05       		.byte	0x5
 2620 0064 5E010000 		.4byte	.LASF7
 2621 0068 02       		.uleb128 0x2
 2622 0069 04       		.byte	0x4
 2623 006a 07       		.byte	0x7
 2624 006b 46000000 		.4byte	.LASF8
 2625 006f 02       		.uleb128 0x2
 2626 0070 04       		.byte	0x4
 2627 0071 07       		.byte	0x7
 2628 0072 41030000 		.4byte	.LASF9
 2629 0076 02       		.uleb128 0x2
 2630 0077 01       		.byte	0x1
 2631 0078 08       		.byte	0x8
 2632 0079 92020000 		.4byte	.LASF10
 2633 007d 04       		.uleb128 0x4
 2634 007e 33010000 		.4byte	.LASF11
 2635 0082 02       		.byte	0x2
 2636 0083 5B       		.byte	0x5b
 2637 0084 37000000 		.4byte	0x37
 2638 0088 04       		.uleb128 0x4
 2639 0089 1D030000 		.4byte	.LASF12
 2640 008d 02       		.byte	0x2
 2641 008e 5C       		.byte	0x5c
 2642 008f 45000000 		.4byte	0x45
 2643 0093 04       		.uleb128 0x4
 2644 0094 32030000 		.4byte	.LASF13
 2645 0098 02       		.byte	0x2
 2646 0099 5D       		.byte	0x5d
 2647 009a 6F000000 		.4byte	0x6f
 2648 009e 04       		.uleb128 0x4
 2649 009f 7E010000 		.4byte	.LASF14
 2650 00a3 02       		.byte	0x2
 2651 00a4 5E       		.byte	0x5e
 2652 00a5 30000000 		.4byte	0x30
 2653 00a9 04       		.uleb128 0x4
 2654 00aa 00010000 		.4byte	.LASF15
 2655 00ae 02       		.byte	0x2
 2656 00af 5F       		.byte	0x5f
 2657 00b0 3E000000 		.4byte	0x3e
 2658 00b4 02       		.uleb128 0x2
 2659 00b5 04       		.byte	0x4
ARM GAS  C:\Users\atsu\AppData\Local\Temp\ccNplIXy.s 			page 63


 2660 00b6 04       		.byte	0x4
 2661 00b7 20010000 		.4byte	.LASF16
 2662 00bb 02       		.uleb128 0x2
 2663 00bc 08       		.byte	0x8
 2664 00bd 04       		.byte	0x4
 2665 00be 60030000 		.4byte	.LASF17
 2666 00c2 04       		.uleb128 0x4
 2667 00c3 C8000000 		.4byte	.LASF18
 2668 00c7 03       		.byte	0x3
 2669 00c8 69       		.byte	0x69
 2670 00c9 CD000000 		.4byte	0xcd
 2671 00cd 05       		.uleb128 0x5
 2672 00ce 37000000 		.4byte	0x37
 2673 00d2 06       		.uleb128 0x6
 2674 00d3 7D000000 		.4byte	0x7d
 2675 00d7 E2000000 		.4byte	0xe2
 2676 00db 07       		.uleb128 0x7
 2677 00dc 68000000 		.4byte	0x68
 2678 00e0 03       		.byte	0x3
 2679 00e1 00       		.byte	0
 2680 00e2 04       		.uleb128 0x4
 2681 00e3 0E040000 		.4byte	.LASF19
 2682 00e7 04       		.byte	0x4
 2683 00e8 11       		.byte	0x11
 2684 00e9 7D000000 		.4byte	0x7d
 2685 00ed 08       		.uleb128 0x8
 2686 00ee 04       		.byte	0x4
 2687 00ef 7D000000 		.4byte	0x7d
 2688 00f3 09       		.uleb128 0x9
 2689 00f4 01       		.byte	0x1
 2690 00f5 4C010000 		.4byte	.LASF20
 2691 00f9 01       		.byte	0x1
 2692 00fa 58       		.byte	0x58
 2693 00fb 01       		.byte	0x1
 2694 00fc 88000000 		.4byte	0x88
 2695 0100 01       		.byte	0x1
 2696 0101 0F010000 		.4byte	0x10f
 2697 0105 0A       		.uleb128 0xa
 2698 0106 7300     		.ascii	"s\000"
 2699 0108 01       		.byte	0x1
 2700 0109 58       		.byte	0x58
 2701 010a 7D000000 		.4byte	0x7d
 2702 010e 00       		.byte	0
 2703 010f 09       		.uleb128 0x9
 2704 0110 01       		.byte	0x1
 2705 0111 C0010000 		.4byte	.LASF21
 2706 0115 01       		.byte	0x1
 2707 0116 60       		.byte	0x60
 2708 0117 01       		.byte	0x1
 2709 0118 88000000 		.4byte	0x88
 2710 011c 01       		.byte	0x1
 2711 011d 2B010000 		.4byte	0x12b
 2712 0121 0A       		.uleb128 0xa
 2713 0122 7300     		.ascii	"s\000"
 2714 0124 01       		.byte	0x1
 2715 0125 60       		.byte	0x60
 2716 0126 7D000000 		.4byte	0x7d
ARM GAS  C:\Users\atsu\AppData\Local\Temp\ccNplIXy.s 			page 64


 2717 012a 00       		.byte	0
 2718 012b 09       		.uleb128 0x9
 2719 012c 01       		.byte	0x1
 2720 012d 4F020000 		.4byte	.LASF22
 2721 0131 01       		.byte	0x1
 2722 0132 50       		.byte	0x50
 2723 0133 01       		.byte	0x1
 2724 0134 88000000 		.4byte	0x88
 2725 0138 01       		.byte	0x1
 2726 0139 47010000 		.4byte	0x147
 2727 013d 0A       		.uleb128 0xa
 2728 013e 7300     		.ascii	"s\000"
 2729 0140 01       		.byte	0x1
 2730 0141 50       		.byte	0x50
 2731 0142 7D000000 		.4byte	0x7d
 2732 0146 00       		.byte	0
 2733 0147 09       		.uleb128 0x9
 2734 0148 01       		.byte	0x1
 2735 0149 67010000 		.4byte	.LASF23
 2736 014d 01       		.byte	0x1
 2737 014e 54       		.byte	0x54
 2738 014f 01       		.byte	0x1
 2739 0150 88000000 		.4byte	0x88
 2740 0154 01       		.byte	0x1
 2741 0155 63010000 		.4byte	0x163
 2742 0159 0A       		.uleb128 0xa
 2743 015a 7300     		.ascii	"s\000"
 2744 015c 01       		.byte	0x1
 2745 015d 54       		.byte	0x54
 2746 015e 7D000000 		.4byte	0x7d
 2747 0162 00       		.byte	0
 2748 0163 09       		.uleb128 0x9
 2749 0164 01       		.byte	0x1
 2750 0165 44040000 		.4byte	.LASF24
 2751 0169 01       		.byte	0x1
 2752 016a 5C       		.byte	0x5c
 2753 016b 01       		.byte	0x1
 2754 016c 88000000 		.4byte	0x88
 2755 0170 01       		.byte	0x1
 2756 0171 7F010000 		.4byte	0x17f
 2757 0175 0A       		.uleb128 0xa
 2758 0176 7300     		.ascii	"s\000"
 2759 0178 01       		.byte	0x1
 2760 0179 5C       		.byte	0x5c
 2761 017a 7D000000 		.4byte	0x7d
 2762 017e 00       		.byte	0
 2763 017f 09       		.uleb128 0x9
 2764 0180 01       		.byte	0x1
 2765 0181 F8020000 		.4byte	.LASF25
 2766 0185 01       		.byte	0x1
 2767 0186 4C       		.byte	0x4c
 2768 0187 01       		.byte	0x1
 2769 0188 88000000 		.4byte	0x88
 2770 018c 01       		.byte	0x1
 2771 018d 9B010000 		.4byte	0x19b
 2772 0191 0A       		.uleb128 0xa
 2773 0192 7300     		.ascii	"s\000"
ARM GAS  C:\Users\atsu\AppData\Local\Temp\ccNplIXy.s 			page 65


 2774 0194 01       		.byte	0x1
 2775 0195 4C       		.byte	0x4c
 2776 0196 7D000000 		.4byte	0x7d
 2777 019a 00       		.byte	0
 2778 019b 0B       		.uleb128 0xb
 2779 019c 01       		.byte	0x1
 2780 019d EB020000 		.4byte	.LASF26
 2781 01a1 01       		.byte	0x1
 2782 01a2 3D       		.byte	0x3d
 2783 01a3 01       		.byte	0x1
 2784 01a4 9E000000 		.4byte	0x9e
 2785 01a8 00000000 		.4byte	.LFB33
 2786 01ac 16000000 		.4byte	.LFE33
 2787 01b0 00000000 		.4byte	.LLST0
 2788 01b4 01       		.byte	0x1
 2789 01b5 E4010000 		.4byte	0x1e4
 2790 01b9 0C       		.uleb128 0xc
 2791 01ba CC030000 		.4byte	.LASF28
 2792 01be 01       		.byte	0x1
 2793 01bf 3D       		.byte	0x3d
 2794 01c0 9E000000 		.4byte	0x9e
 2795 01c4 20000000 		.4byte	.LLST1
 2796 01c8 0D       		.uleb128 0xd
 2797 01c9 06000000 		.4byte	.LVL1
 2798 01cd 38160000 		.4byte	0x1638
 2799 01d1 0D       		.uleb128 0xd
 2800 01d2 0A000000 		.4byte	.LVL2
 2801 01d6 4D160000 		.4byte	0x164d
 2802 01da 0D       		.uleb128 0xd
 2803 01db 12000000 		.4byte	.LVL3
 2804 01df 5C160000 		.4byte	0x165c
 2805 01e3 00       		.byte	0
 2806 01e4 0E       		.uleb128 0xe
 2807 01e5 01       		.byte	0x1
 2808 01e6 4F000000 		.4byte	.LASF27
 2809 01ea 01       		.byte	0x1
 2810 01eb 42       		.byte	0x42
 2811 01ec 01       		.byte	0x1
 2812 01ed 7D000000 		.4byte	0x7d
 2813 01f1 00000000 		.4byte	.LFB34
 2814 01f5 0C000000 		.4byte	.LFE34
 2815 01f9 02       		.byte	0x2
 2816 01fa 7D       		.byte	0x7d
 2817 01fb 00       		.sleb128 0
 2818 01fc 01       		.byte	0x1
 2819 01fd 0F020000 		.4byte	0x20f
 2820 0201 0F       		.uleb128 0xf
 2821 0202 7300     		.ascii	"s\000"
 2822 0204 01       		.byte	0x1
 2823 0205 42       		.byte	0x42
 2824 0206 7D000000 		.4byte	0x7d
 2825 020a 41000000 		.4byte	.LLST2
 2826 020e 00       		.byte	0
 2827 020f 10       		.uleb128 0x10
 2828 0210 01       		.byte	0x1
 2829 0211 E4020000 		.4byte	.LASF35
 2830 0215 01       		.byte	0x1
ARM GAS  C:\Users\atsu\AppData\Local\Temp\ccNplIXy.s 			page 66


 2831 0216 47       		.byte	0x47
 2832 0217 01       		.byte	0x1
 2833 0218 00000000 		.4byte	.LFB35
 2834 021c 0C000000 		.4byte	.LFE35
 2835 0220 02       		.byte	0x2
 2836 0221 7D       		.byte	0x7d
 2837 0222 00       		.sleb128 0
 2838 0223 01       		.byte	0x1
 2839 0224 41020000 		.4byte	0x241
 2840 0228 11       		.uleb128 0x11
 2841 0229 7300     		.ascii	"s\000"
 2842 022b 01       		.byte	0x1
 2843 022c 47       		.byte	0x47
 2844 022d 7D000000 		.4byte	0x7d
 2845 0231 01       		.byte	0x1
 2846 0232 50       		.byte	0x50
 2847 0233 11       		.uleb128 0x11
 2848 0234 76616C00 		.ascii	"val\000"
 2849 0238 01       		.byte	0x1
 2850 0239 47       		.byte	0x47
 2851 023a 7D000000 		.4byte	0x7d
 2852 023e 01       		.byte	0x1
 2853 023f 51       		.byte	0x51
 2854 0240 00       		.byte	0
 2855 0241 12       		.uleb128 0x12
 2856 0242 7F010000 		.4byte	0x17f
 2857 0246 00000000 		.4byte	.LFB36
 2858 024a 10000000 		.4byte	.LFE36
 2859 024e 02       		.byte	0x2
 2860 024f 7D       		.byte	0x7d
 2861 0250 00       		.sleb128 0
 2862 0251 01       		.byte	0x1
 2863 0252 60020000 		.4byte	0x260
 2864 0256 13       		.uleb128 0x13
 2865 0257 91010000 		.4byte	0x191
 2866 025b 62000000 		.4byte	.LLST3
 2867 025f 00       		.byte	0
 2868 0260 12       		.uleb128 0x12
 2869 0261 2B010000 		.4byte	0x12b
 2870 0265 00000000 		.4byte	.LFB37
 2871 0269 10000000 		.4byte	.LFE37
 2872 026d 02       		.byte	0x2
 2873 026e 7D       		.byte	0x7d
 2874 026f 00       		.sleb128 0
 2875 0270 01       		.byte	0x1
 2876 0271 7F020000 		.4byte	0x27f
 2877 0275 13       		.uleb128 0x13
 2878 0276 3D010000 		.4byte	0x13d
 2879 027a 83000000 		.4byte	.LLST4
 2880 027e 00       		.byte	0
 2881 027f 12       		.uleb128 0x12
 2882 0280 47010000 		.4byte	0x147
 2883 0284 00000000 		.4byte	.LFB38
 2884 0288 10000000 		.4byte	.LFE38
 2885 028c 02       		.byte	0x2
 2886 028d 7D       		.byte	0x7d
 2887 028e 00       		.sleb128 0
ARM GAS  C:\Users\atsu\AppData\Local\Temp\ccNplIXy.s 			page 67


 2888 028f 01       		.byte	0x1
 2889 0290 9E020000 		.4byte	0x29e
 2890 0294 13       		.uleb128 0x13
 2891 0295 59010000 		.4byte	0x159
 2892 0299 A4000000 		.4byte	.LLST5
 2893 029d 00       		.byte	0
 2894 029e 12       		.uleb128 0x12
 2895 029f F3000000 		.4byte	0xf3
 2896 02a3 00000000 		.4byte	.LFB39
 2897 02a7 10000000 		.4byte	.LFE39
 2898 02ab 02       		.byte	0x2
 2899 02ac 7D       		.byte	0x7d
 2900 02ad 00       		.sleb128 0
 2901 02ae 01       		.byte	0x1
 2902 02af BD020000 		.4byte	0x2bd
 2903 02b3 13       		.uleb128 0x13
 2904 02b4 05010000 		.4byte	0x105
 2905 02b8 C5000000 		.4byte	.LLST6
 2906 02bc 00       		.byte	0
 2907 02bd 12       		.uleb128 0x12
 2908 02be 63010000 		.4byte	0x163
 2909 02c2 00000000 		.4byte	.LFB40
 2910 02c6 10000000 		.4byte	.LFE40
 2911 02ca 02       		.byte	0x2
 2912 02cb 7D       		.byte	0x7d
 2913 02cc 00       		.sleb128 0
 2914 02cd 01       		.byte	0x1
 2915 02ce DC020000 		.4byte	0x2dc
 2916 02d2 13       		.uleb128 0x13
 2917 02d3 75010000 		.4byte	0x175
 2918 02d7 E6000000 		.4byte	.LLST7
 2919 02db 00       		.byte	0
 2920 02dc 12       		.uleb128 0x12
 2921 02dd 0F010000 		.4byte	0x10f
 2922 02e1 00000000 		.4byte	.LFB41
 2923 02e5 10000000 		.4byte	.LFE41
 2924 02e9 02       		.byte	0x2
 2925 02ea 7D       		.byte	0x7d
 2926 02eb 00       		.sleb128 0
 2927 02ec 01       		.byte	0x1
 2928 02ed FB020000 		.4byte	0x2fb
 2929 02f1 13       		.uleb128 0x13
 2930 02f2 21010000 		.4byte	0x121
 2931 02f6 07010000 		.4byte	.LLST8
 2932 02fa 00       		.byte	0
 2933 02fb 0B       		.uleb128 0xb
 2934 02fc 01       		.byte	0x1
 2935 02fd 9E010000 		.4byte	.LASF29
 2936 0301 01       		.byte	0x1
 2937 0302 68       		.byte	0x68
 2938 0303 01       		.byte	0x1
 2939 0304 7D000000 		.4byte	0x7d
 2940 0308 00000000 		.4byte	.LFB42
 2941 030c 32000000 		.4byte	.LFE42
 2942 0310 28010000 		.4byte	.LLST9
 2943 0314 01       		.byte	0x1
 2944 0315 AC030000 		.4byte	0x3ac
ARM GAS  C:\Users\atsu\AppData\Local\Temp\ccNplIXy.s 			page 68


 2945 0319 0C       		.uleb128 0xc
 2946 031a 79010000 		.4byte	.LASF30
 2947 031e 01       		.byte	0x1
 2948 031f 68       		.byte	0x68
 2949 0320 88000000 		.4byte	0x88
 2950 0324 48010000 		.4byte	.LLST10
 2951 0328 0C       		.uleb128 0xc
 2952 0329 0F030000 		.4byte	.LASF31
 2953 032d 01       		.byte	0x1
 2954 032e 68       		.byte	0x68
 2955 032f 7D000000 		.4byte	0x7d
 2956 0333 69010000 		.4byte	.LLST11
 2957 0337 14       		.uleb128 0x14
 2958 0338 0C000000 		.4byte	.LVL21
 2959 033c 6B160000 		.4byte	0x166b
 2960 0340 4A030000 		.4byte	0x34a
 2961 0344 15       		.uleb128 0x15
 2962 0345 01       		.byte	0x1
 2963 0346 50       		.byte	0x50
 2964 0347 01       		.byte	0x1
 2965 0348 30       		.byte	0x30
 2966 0349 00       		.byte	0
 2967 034a 14       		.uleb128 0x14
 2968 034b 14000000 		.4byte	.LVL22
 2969 034f 9B010000 		.4byte	0x19b
 2970 0353 5E030000 		.4byte	0x35e
 2971 0357 15       		.uleb128 0x15
 2972 0358 01       		.byte	0x1
 2973 0359 50       		.byte	0x50
 2974 035a 02       		.byte	0x2
 2975 035b 09       		.byte	0x9
 2976 035c F0       		.byte	0xf0
 2977 035d 00       		.byte	0
 2978 035e 14       		.uleb128 0x14
 2979 035f 1C000000 		.4byte	.LVL23
 2980 0363 9B010000 		.4byte	0x19b
 2981 0367 74030000 		.4byte	0x374
 2982 036b 15       		.uleb128 0x15
 2983 036c 01       		.byte	0x1
 2984 036d 50       		.byte	0x50
 2985 036e 04       		.byte	0x4
 2986 036f 74       		.byte	0x74
 2987 0370 00       		.sleb128 0
 2988 0371 38       		.byte	0x38
 2989 0372 25       		.byte	0x25
 2990 0373 00       		.byte	0
 2991 0374 14       		.uleb128 0x14
 2992 0375 22000000 		.4byte	.LVL24
 2993 0379 9B010000 		.4byte	0x19b
 2994 037d 88030000 		.4byte	0x388
 2995 0381 15       		.uleb128 0x15
 2996 0382 01       		.byte	0x1
 2997 0383 50       		.byte	0x50
 2998 0384 02       		.byte	0x2
 2999 0385 74       		.byte	0x74
 3000 0386 00       		.sleb128 0
 3001 0387 00       		.byte	0
ARM GAS  C:\Users\atsu\AppData\Local\Temp\ccNplIXy.s 			page 69


 3002 0388 14       		.uleb128 0x14
 3003 0389 28000000 		.4byte	.LVL25
 3004 038d 9B010000 		.4byte	0x19b
 3005 0391 9C030000 		.4byte	0x39c
 3006 0395 15       		.uleb128 0x15
 3007 0396 01       		.byte	0x1
 3008 0397 50       		.byte	0x50
 3009 0398 02       		.byte	0x2
 3010 0399 75       		.byte	0x75
 3011 039a 00       		.sleb128 0
 3012 039b 00       		.byte	0
 3013 039c 16       		.uleb128 0x16
 3014 039d 2E000000 		.4byte	.LVL26
 3015 03a1 6B160000 		.4byte	0x166b
 3016 03a5 15       		.uleb128 0x15
 3017 03a6 01       		.byte	0x1
 3018 03a7 50       		.byte	0x50
 3019 03a8 01       		.byte	0x1
 3020 03a9 31       		.byte	0x31
 3021 03aa 00       		.byte	0
 3022 03ab 00       		.byte	0
 3023 03ac 0B       		.uleb128 0xb
 3024 03ad 01       		.byte	0x1
 3025 03ae B3010000 		.4byte	.LASF32
 3026 03b2 01       		.byte	0x1
 3027 03b3 79       		.byte	0x79
 3028 03b4 01       		.byte	0x1
 3029 03b5 7D000000 		.4byte	0x7d
 3030 03b9 00000000 		.4byte	.LFB43
 3031 03bd 30000000 		.4byte	.LFE43
 3032 03c1 8A010000 		.4byte	.LLST12
 3033 03c5 01       		.byte	0x1
 3034 03c6 5B040000 		.4byte	0x45b
 3035 03ca 0C       		.uleb128 0xc
 3036 03cb 79010000 		.4byte	.LASF30
 3037 03cf 01       		.byte	0x1
 3038 03d0 79       		.byte	0x79
 3039 03d1 88000000 		.4byte	0x88
 3040 03d5 AA010000 		.4byte	.LLST13
 3041 03d9 17       		.uleb128 0x17
 3042 03da 0F030000 		.4byte	.LASF31
 3043 03de 01       		.byte	0x1
 3044 03df 7B       		.byte	0x7b
 3045 03e0 7D000000 		.4byte	0x7d
 3046 03e4 CB010000 		.4byte	.LLST14
 3047 03e8 14       		.uleb128 0x14
 3048 03e9 0A000000 		.4byte	.LVL29
 3049 03ed 6B160000 		.4byte	0x166b
 3050 03f1 FB030000 		.4byte	0x3fb
 3051 03f5 15       		.uleb128 0x15
 3052 03f6 01       		.byte	0x1
 3053 03f7 50       		.byte	0x50
 3054 03f8 01       		.byte	0x1
 3055 03f9 30       		.byte	0x30
 3056 03fa 00       		.byte	0
 3057 03fb 14       		.uleb128 0x14
 3058 03fc 10000000 		.4byte	.LVL30
ARM GAS  C:\Users\atsu\AppData\Local\Temp\ccNplIXy.s 			page 70


 3059 0400 9B010000 		.4byte	0x19b
 3060 0404 0E040000 		.4byte	0x40e
 3061 0408 15       		.uleb128 0x15
 3062 0409 01       		.byte	0x1
 3063 040a 50       		.byte	0x50
 3064 040b 01       		.byte	0x1
 3065 040c 3F       		.byte	0x3f
 3066 040d 00       		.byte	0
 3067 040e 14       		.uleb128 0x14
 3068 040f 18000000 		.4byte	.LVL31
 3069 0413 9B010000 		.4byte	0x19b
 3070 0417 24040000 		.4byte	0x424
 3071 041b 15       		.uleb128 0x15
 3072 041c 01       		.byte	0x1
 3073 041d 50       		.byte	0x50
 3074 041e 04       		.byte	0x4
 3075 041f 74       		.byte	0x74
 3076 0420 00       		.sleb128 0
 3077 0421 38       		.byte	0x38
 3078 0422 25       		.byte	0x25
 3079 0423 00       		.byte	0
 3080 0424 14       		.uleb128 0x14
 3081 0425 1E000000 		.4byte	.LVL32
 3082 0429 9B010000 		.4byte	0x19b
 3083 042d 38040000 		.4byte	0x438
 3084 0431 15       		.uleb128 0x15
 3085 0432 01       		.byte	0x1
 3086 0433 50       		.byte	0x50
 3087 0434 02       		.byte	0x2
 3088 0435 74       		.byte	0x74
 3089 0436 00       		.sleb128 0
 3090 0437 00       		.byte	0
 3091 0438 14       		.uleb128 0x14
 3092 0439 24000000 		.4byte	.LVL33
 3093 043d 9B010000 		.4byte	0x19b
 3094 0441 4B040000 		.4byte	0x44b
 3095 0445 15       		.uleb128 0x15
 3096 0446 01       		.byte	0x1
 3097 0447 50       		.byte	0x50
 3098 0448 01       		.byte	0x1
 3099 0449 30       		.byte	0x30
 3100 044a 00       		.byte	0
 3101 044b 16       		.uleb128 0x16
 3102 044c 2C000000 		.4byte	.LVL36
 3103 0450 6B160000 		.4byte	0x166b
 3104 0454 15       		.uleb128 0x15
 3105 0455 01       		.byte	0x1
 3106 0456 50       		.byte	0x50
 3107 0457 01       		.byte	0x1
 3108 0458 31       		.byte	0x31
 3109 0459 00       		.byte	0
 3110 045a 00       		.byte	0
 3111 045b 0B       		.uleb128 0xb
 3112 045c 01       		.byte	0x1
 3113 045d BA000000 		.4byte	.LASF33
 3114 0461 01       		.byte	0x1
 3115 0462 86       		.byte	0x86
ARM GAS  C:\Users\atsu\AppData\Local\Temp\ccNplIXy.s 			page 71


 3116 0463 01       		.byte	0x1
 3117 0464 88000000 		.4byte	0x88
 3118 0468 00000000 		.4byte	.LFB44
 3119 046c 46000000 		.4byte	.LFE44
 3120 0470 E9010000 		.4byte	.LLST15
 3121 0474 01       		.byte	0x1
 3122 0475 1F050000 		.4byte	0x51f
 3123 0479 0C       		.uleb128 0xc
 3124 047a 79010000 		.4byte	.LASF30
 3125 047e 01       		.byte	0x1
 3126 047f 86       		.byte	0x86
 3127 0480 88000000 		.4byte	0x88
 3128 0484 09020000 		.4byte	.LLST16
 3129 0488 0F       		.uleb128 0xf
 3130 0489 62756600 		.ascii	"buf\000"
 3131 048d 01       		.byte	0x1
 3132 048e 86       		.byte	0x86
 3133 048f ED000000 		.4byte	0xed
 3134 0493 3F020000 		.4byte	.LLST17
 3135 0497 0F       		.uleb128 0xf
 3136 0498 6C656E00 		.ascii	"len\000"
 3137 049c 01       		.byte	0x1
 3138 049d 86       		.byte	0x86
 3139 049e 88000000 		.4byte	0x88
 3140 04a2 60020000 		.4byte	.LLST18
 3141 04a6 18       		.uleb128 0x18
 3142 04a7 69647800 		.ascii	"idx\000"
 3143 04ab 01       		.byte	0x1
 3144 04ac 88       		.byte	0x88
 3145 04ad 88000000 		.4byte	0x88
 3146 04b1 81020000 		.4byte	.LLST19
 3147 04b5 14       		.uleb128 0x14
 3148 04b6 16000000 		.4byte	.LVL40
 3149 04ba 6B160000 		.4byte	0x166b
 3150 04be C8040000 		.4byte	0x4c8
 3151 04c2 15       		.uleb128 0x15
 3152 04c3 01       		.byte	0x1
 3153 04c4 50       		.byte	0x50
 3154 04c5 01       		.byte	0x1
 3155 04c6 30       		.byte	0x30
 3156 04c7 00       		.byte	0
 3157 04c8 14       		.uleb128 0x14
 3158 04c9 1E000000 		.4byte	.LVL41
 3159 04cd 9B010000 		.4byte	0x19b
 3160 04d1 DC040000 		.4byte	0x4dc
 3161 04d5 15       		.uleb128 0x15
 3162 04d6 01       		.byte	0x1
 3163 04d7 50       		.byte	0x50
 3164 04d8 02       		.byte	0x2
 3165 04d9 09       		.byte	0x9
 3166 04da F0       		.byte	0xf0
 3167 04db 00       		.byte	0
 3168 04dc 14       		.uleb128 0x14
 3169 04dd 26000000 		.4byte	.LVL42
 3170 04e1 9B010000 		.4byte	0x19b
 3171 04e5 F2040000 		.4byte	0x4f2
 3172 04e9 15       		.uleb128 0x15
ARM GAS  C:\Users\atsu\AppData\Local\Temp\ccNplIXy.s 			page 72


 3173 04ea 01       		.byte	0x1
 3174 04eb 50       		.byte	0x50
 3175 04ec 04       		.byte	0x4
 3176 04ed 74       		.byte	0x74
 3177 04ee 00       		.sleb128 0
 3178 04ef 38       		.byte	0x38
 3179 04f0 25       		.byte	0x25
 3180 04f1 00       		.byte	0
 3181 04f2 14       		.uleb128 0x14
 3182 04f3 2C000000 		.4byte	.LVL43
 3183 04f7 9B010000 		.4byte	0x19b
 3184 04fb 06050000 		.4byte	0x506
 3185 04ff 15       		.uleb128 0x15
 3186 0500 01       		.byte	0x1
 3187 0501 50       		.byte	0x50
 3188 0502 02       		.byte	0x2
 3189 0503 74       		.byte	0x74
 3190 0504 00       		.sleb128 0
 3191 0505 00       		.byte	0
 3192 0506 0D       		.uleb128 0xd
 3193 0507 34000000 		.4byte	.LVL44
 3194 050b 9B010000 		.4byte	0x19b
 3195 050f 16       		.uleb128 0x16
 3196 0510 3E000000 		.4byte	.LVL47
 3197 0514 6B160000 		.4byte	0x166b
 3198 0518 15       		.uleb128 0x15
 3199 0519 01       		.byte	0x1
 3200 051a 50       		.byte	0x50
 3201 051b 01       		.byte	0x1
 3202 051c 31       		.byte	0x31
 3203 051d 00       		.byte	0
 3204 051e 00       		.byte	0
 3205 051f 0B       		.uleb128 0xb
 3206 0520 01       		.byte	0x1
 3207 0521 15040000 		.4byte	.LASF34
 3208 0525 01       		.byte	0x1
 3209 0526 99       		.byte	0x99
 3210 0527 01       		.byte	0x1
 3211 0528 88000000 		.4byte	0x88
 3212 052c 00000000 		.4byte	.LFB45
 3213 0530 44000000 		.4byte	.LFE45
 3214 0534 95020000 		.4byte	.LLST20
 3215 0538 01       		.byte	0x1
 3216 0539 EC050000 		.4byte	0x5ec
 3217 053d 0C       		.uleb128 0xc
 3218 053e 79010000 		.4byte	.LASF30
 3219 0542 01       		.byte	0x1
 3220 0543 99       		.byte	0x99
 3221 0544 88000000 		.4byte	0x88
 3222 0548 B5020000 		.4byte	.LLST21
 3223 054c 0F       		.uleb128 0xf
 3224 054d 62756600 		.ascii	"buf\000"
 3225 0551 01       		.byte	0x1
 3226 0552 99       		.byte	0x99
 3227 0553 ED000000 		.4byte	0xed
 3228 0557 EB020000 		.4byte	.LLST22
 3229 055b 0F       		.uleb128 0xf
ARM GAS  C:\Users\atsu\AppData\Local\Temp\ccNplIXy.s 			page 73


 3230 055c 6C656E00 		.ascii	"len\000"
 3231 0560 01       		.byte	0x1
 3232 0561 99       		.byte	0x99
 3233 0562 88000000 		.4byte	0x88
 3234 0566 0C030000 		.4byte	.LLST23
 3235 056a 18       		.uleb128 0x18
 3236 056b 69647800 		.ascii	"idx\000"
 3237 056f 01       		.byte	0x1
 3238 0570 9B       		.byte	0x9b
 3239 0571 88000000 		.4byte	0x88
 3240 0575 2D030000 		.4byte	.LLST24
 3241 0579 14       		.uleb128 0x14
 3242 057a 16000000 		.4byte	.LVL51
 3243 057e 6B160000 		.4byte	0x166b
 3244 0582 8C050000 		.4byte	0x58c
 3245 0586 15       		.uleb128 0x15
 3246 0587 01       		.byte	0x1
 3247 0588 50       		.byte	0x50
 3248 0589 01       		.byte	0x1
 3249 058a 30       		.byte	0x30
 3250 058b 00       		.byte	0
 3251 058c 14       		.uleb128 0x14
 3252 058d 1C000000 		.4byte	.LVL52
 3253 0591 9B010000 		.4byte	0x19b
 3254 0595 9F050000 		.4byte	0x59f
 3255 0599 15       		.uleb128 0x15
 3256 059a 01       		.byte	0x1
 3257 059b 50       		.byte	0x50
 3258 059c 01       		.byte	0x1
 3259 059d 3F       		.byte	0x3f
 3260 059e 00       		.byte	0
 3261 059f 14       		.uleb128 0x14
 3262 05a0 24000000 		.4byte	.LVL53
 3263 05a4 9B010000 		.4byte	0x19b
 3264 05a8 B5050000 		.4byte	0x5b5
 3265 05ac 15       		.uleb128 0x15
 3266 05ad 01       		.byte	0x1
 3267 05ae 50       		.byte	0x50
 3268 05af 04       		.byte	0x4
 3269 05b0 74       		.byte	0x74
 3270 05b1 00       		.sleb128 0
 3271 05b2 38       		.byte	0x38
 3272 05b3 25       		.byte	0x25
 3273 05b4 00       		.byte	0
 3274 05b5 14       		.uleb128 0x14
 3275 05b6 2A000000 		.4byte	.LVL54
 3276 05ba 9B010000 		.4byte	0x19b
 3277 05be C9050000 		.4byte	0x5c9
 3278 05c2 15       		.uleb128 0x15
 3279 05c3 01       		.byte	0x1
 3280 05c4 50       		.byte	0x50
 3281 05c5 02       		.byte	0x2
 3282 05c6 74       		.byte	0x74
 3283 05c7 00       		.sleb128 0
 3284 05c8 00       		.byte	0
 3285 05c9 14       		.uleb128 0x14
 3286 05ca 30000000 		.4byte	.LVL55
ARM GAS  C:\Users\atsu\AppData\Local\Temp\ccNplIXy.s 			page 74


 3287 05ce 9B010000 		.4byte	0x19b
 3288 05d2 DC050000 		.4byte	0x5dc
 3289 05d6 15       		.uleb128 0x15
 3290 05d7 01       		.byte	0x1
 3291 05d8 50       		.byte	0x50
 3292 05d9 01       		.byte	0x1
 3293 05da 30       		.byte	0x30
 3294 05db 00       		.byte	0
 3295 05dc 16       		.uleb128 0x16
 3296 05dd 3C000000 		.4byte	.LVL58
 3297 05e1 6B160000 		.4byte	0x166b
 3298 05e5 15       		.uleb128 0x15
 3299 05e6 01       		.byte	0x1
 3300 05e7 50       		.byte	0x50
 3301 05e8 01       		.byte	0x1
 3302 05e9 31       		.byte	0x31
 3303 05ea 00       		.byte	0
 3304 05eb 00       		.byte	0
 3305 05ec 19       		.uleb128 0x19
 3306 05ed 01       		.byte	0x1
 3307 05ee F3030000 		.4byte	.LASF36
 3308 05f2 01       		.byte	0x1
 3309 05f3 1101     		.2byte	0x111
 3310 05f5 01       		.byte	0x1
 3311 05f6 00000000 		.4byte	.LFB47
 3312 05fa 40010000 		.4byte	.LFE47
 3313 05fe 41030000 		.4byte	.LLST25
 3314 0602 01       		.byte	0x1
 3315 0603 88060000 		.4byte	0x688
 3316 0607 1A       		.uleb128 0x1a
 3317 0608 47020000 		.4byte	.LASF37
 3318 060c 01       		.byte	0x1
 3319 060d 1201     		.2byte	0x112
 3320 060f 7D000000 		.4byte	0x7d
 3321 0613 6D030000 		.4byte	.LLST26
 3322 0617 1A       		.uleb128 0x1a
 3323 0618 39030000 		.4byte	.LASF38
 3324 061c 01       		.byte	0x1
 3325 061d 1301     		.2byte	0x113
 3326 061f 7D000000 		.4byte	0x7d
 3327 0623 8E030000 		.4byte	.LLST27
 3328 0627 1B       		.uleb128 0x1b
 3329 0628 6900     		.ascii	"i\000"
 3330 062a 01       		.byte	0x1
 3331 062b 1601     		.2byte	0x116
 3332 062d A9000000 		.4byte	0xa9
 3333 0631 AF030000 		.4byte	.LLST28
 3334 0635 1C       		.uleb128 0x1c
 3335 0636 47010000 		.4byte	.LASF39
 3336 063a 01       		.byte	0x1
 3337 063b 1701     		.2byte	0x117
 3338 063d A9000000 		.4byte	0xa9
 3339 0641 CE030000 		.4byte	.LLST29
 3340 0645 1C       		.uleb128 0x1c
 3341 0646 27000000 		.4byte	.LASF40
 3342 064a 01       		.byte	0x1
 3343 064b 1701     		.2byte	0x117
ARM GAS  C:\Users\atsu\AppData\Local\Temp\ccNplIXy.s 			page 75


 3344 064d A9000000 		.4byte	0xa9
 3345 0651 ED030000 		.4byte	.LLST30
 3346 0655 14       		.uleb128 0x14
 3347 0656 10000000 		.4byte	.LVL63
 3348 065a FB020000 		.4byte	0x2fb
 3349 065e 70060000 		.4byte	0x670
 3350 0662 15       		.uleb128 0x15
 3351 0663 01       		.byte	0x1
 3352 0664 51       		.byte	0x51
 3353 0665 04       		.byte	0x4
 3354 0666 91       		.byte	0x91
 3355 0667 60       		.sleb128 -32
 3356 0668 94       		.byte	0x94
 3357 0669 01       		.byte	0x1
 3358 066a 15       		.uleb128 0x15
 3359 066b 01       		.byte	0x1
 3360 066c 50       		.byte	0x50
 3361 066d 01       		.byte	0x1
 3362 066e 4B       		.byte	0x4b
 3363 066f 00       		.byte	0
 3364 0670 16       		.uleb128 0x16
 3365 0671 18000000 		.4byte	.LVL64
 3366 0675 FB020000 		.4byte	0x2fb
 3367 0679 15       		.uleb128 0x15
 3368 067a 01       		.byte	0x1
 3369 067b 51       		.byte	0x51
 3370 067c 04       		.byte	0x4
 3371 067d 91       		.byte	0x91
 3372 067e 64       		.sleb128 -28
 3373 067f 94       		.byte	0x94
 3374 0680 01       		.byte	0x1
 3375 0681 15       		.uleb128 0x15
 3376 0682 01       		.byte	0x1
 3377 0683 50       		.byte	0x50
 3378 0684 01       		.byte	0x1
 3379 0685 4A       		.byte	0x4a
 3380 0686 00       		.byte	0
 3381 0687 00       		.byte	0
 3382 0688 19       		.uleb128 0x19
 3383 0689 01       		.byte	0x1
 3384 068a E1010000 		.4byte	.LASF41
 3385 068e 01       		.byte	0x1
 3386 068f 6901     		.2byte	0x169
 3387 0691 01       		.byte	0x1
 3388 0692 00000000 		.4byte	.LFB48
 3389 0696 0E000000 		.4byte	.LFE48
 3390 069a 19040000 		.4byte	.LLST31
 3391 069e 01       		.byte	0x1
 3392 069f C5060000 		.4byte	0x6c5
 3393 06a3 1D       		.uleb128 0x1d
 3394 06a4 76616C00 		.ascii	"val\000"
 3395 06a8 01       		.byte	0x1
 3396 06a9 6901     		.2byte	0x169
 3397 06ab 7D000000 		.4byte	0x7d
 3398 06af 39040000 		.4byte	.LLST32
 3399 06b3 16       		.uleb128 0x16
 3400 06b4 0C000000 		.4byte	.LVL75
ARM GAS  C:\Users\atsu\AppData\Local\Temp\ccNplIXy.s 			page 76


 3401 06b8 FB020000 		.4byte	0x2fb
 3402 06bc 15       		.uleb128 0x15
 3403 06bd 01       		.byte	0x1
 3404 06be 50       		.byte	0x50
 3405 06bf 03       		.byte	0x3
 3406 06c0 0B       		.byte	0xb
 3407 06c1 0080     		.2byte	0x8000
 3408 06c3 00       		.byte	0
 3409 06c4 00       		.byte	0
 3410 06c5 1E       		.uleb128 0x1e
 3411 06c6 01       		.byte	0x1
 3412 06c7 AD000000 		.4byte	.LASF42
 3413 06cb 01       		.byte	0x1
 3414 06cc F2       		.byte	0xf2
 3415 06cd 01       		.byte	0x1
 3416 06ce 00000000 		.4byte	.LFB46
 3417 06d2 16000000 		.4byte	.LFE46
 3418 06d6 5A040000 		.4byte	.LLST33
 3419 06da 01       		.byte	0x1
 3420 06db 0E070000 		.4byte	0x70e
 3421 06df 14       		.uleb128 0x14
 3422 06e0 0A000000 		.4byte	.LVL76
 3423 06e4 7F160000 		.4byte	0x167f
 3424 06e8 F4060000 		.4byte	0x6f4
 3425 06ec 15       		.uleb128 0x15
 3426 06ed 01       		.byte	0x1
 3427 06ee 50       		.byte	0x50
 3428 06ef 03       		.byte	0x3
 3429 06f0 0A       		.byte	0xa
 3430 06f1 2C01     		.2byte	0x12c
 3431 06f3 00       		.byte	0
 3432 06f4 0D       		.uleb128 0xd
 3433 06f5 0E000000 		.4byte	.LVL77
 3434 06f9 93160000 		.4byte	0x1693
 3435 06fd 16       		.uleb128 0x16
 3436 06fe 14000000 		.4byte	.LVL78
 3437 0702 88060000 		.4byte	0x688
 3438 0706 15       		.uleb128 0x15
 3439 0707 01       		.byte	0x1
 3440 0708 50       		.byte	0x50
 3441 0709 02       		.byte	0x2
 3442 070a 09       		.byte	0x9
 3443 070b 80       		.byte	0x80
 3444 070c 00       		.byte	0
 3445 070d 00       		.byte	0
 3446 070e 19       		.uleb128 0x19
 3447 070f 01       		.byte	0x1
 3448 0710 AC010000 		.4byte	.LASF43
 3449 0714 01       		.byte	0x1
 3450 0715 7301     		.2byte	0x173
 3451 0717 01       		.byte	0x1
 3452 0718 00000000 		.4byte	.LFB49
 3453 071c 26000000 		.4byte	.LFE49
 3454 0720 7A040000 		.4byte	.LLST34
 3455 0724 01       		.byte	0x1
 3456 0725 82070000 		.4byte	0x782
 3457 0729 1A       		.uleb128 0x1a
ARM GAS  C:\Users\atsu\AppData\Local\Temp\ccNplIXy.s 			page 77


 3458 072a 79010000 		.4byte	.LASF30
 3459 072e 01       		.byte	0x1
 3460 072f 7401     		.2byte	0x174
 3461 0731 ED000000 		.4byte	0xed
 3462 0735 9A040000 		.4byte	.LLST35
 3463 0739 14       		.uleb128 0x14
 3464 073a 0C000000 		.4byte	.LVL81
 3465 073e FB020000 		.4byte	0x2fb
 3466 0742 4C070000 		.4byte	0x74c
 3467 0746 15       		.uleb128 0x15
 3468 0747 01       		.byte	0x1
 3469 0748 50       		.byte	0x50
 3470 0749 01       		.byte	0x1
 3471 074a 31       		.byte	0x31
 3472 074b 00       		.byte	0
 3473 074c 14       		.uleb128 0x14
 3474 074d 14000000 		.4byte	.LVL82
 3475 0751 FB020000 		.4byte	0x2fb
 3476 0755 5F070000 		.4byte	0x75f
 3477 0759 15       		.uleb128 0x15
 3478 075a 01       		.byte	0x1
 3479 075b 50       		.byte	0x50
 3480 075c 01       		.byte	0x1
 3481 075d 32       		.byte	0x32
 3482 075e 00       		.byte	0
 3483 075f 14       		.uleb128 0x14
 3484 0760 1C000000 		.4byte	.LVL83
 3485 0764 FB020000 		.4byte	0x2fb
 3486 0768 72070000 		.4byte	0x772
 3487 076c 15       		.uleb128 0x15
 3488 076d 01       		.byte	0x1
 3489 076e 50       		.byte	0x50
 3490 076f 01       		.byte	0x1
 3491 0770 33       		.byte	0x33
 3492 0771 00       		.byte	0
 3493 0772 16       		.uleb128 0x16
 3494 0773 24000000 		.4byte	.LVL84
 3495 0777 FB020000 		.4byte	0x2fb
 3496 077b 15       		.uleb128 0x15
 3497 077c 01       		.byte	0x1
 3498 077d 50       		.byte	0x50
 3499 077e 01       		.byte	0x1
 3500 077f 34       		.byte	0x34
 3501 0780 00       		.byte	0
 3502 0781 00       		.byte	0
 3503 0782 19       		.uleb128 0x19
 3504 0783 01       		.byte	0x1
 3505 0784 20020000 		.4byte	.LASF44
 3506 0788 01       		.byte	0x1
 3507 0789 7C01     		.2byte	0x17c
 3508 078b 01       		.byte	0x1
 3509 078c 00000000 		.4byte	.LFB50
 3510 0790 26000000 		.4byte	.LFE50
 3511 0794 C6040000 		.4byte	.LLST36
 3512 0798 01       		.byte	0x1
 3513 0799 F6070000 		.4byte	0x7f6
 3514 079d 1A       		.uleb128 0x1a
ARM GAS  C:\Users\atsu\AppData\Local\Temp\ccNplIXy.s 			page 78


 3515 079e 79010000 		.4byte	.LASF30
 3516 07a2 01       		.byte	0x1
 3517 07a3 7C01     		.2byte	0x17c
 3518 07a5 ED000000 		.4byte	0xed
 3519 07a9 E6040000 		.4byte	.LLST37
 3520 07ad 14       		.uleb128 0x14
 3521 07ae 0A000000 		.4byte	.LVL88
 3522 07b2 AC030000 		.4byte	0x3ac
 3523 07b6 C0070000 		.4byte	0x7c0
 3524 07ba 15       		.uleb128 0x15
 3525 07bb 01       		.byte	0x1
 3526 07bc 50       		.byte	0x50
 3527 07bd 01       		.byte	0x1
 3528 07be 31       		.byte	0x31
 3529 07bf 00       		.byte	0
 3530 07c0 14       		.uleb128 0x14
 3531 07c1 12000000 		.4byte	.LVL89
 3532 07c5 AC030000 		.4byte	0x3ac
 3533 07c9 D3070000 		.4byte	0x7d3
 3534 07cd 15       		.uleb128 0x15
 3535 07ce 01       		.byte	0x1
 3536 07cf 50       		.byte	0x50
 3537 07d0 01       		.byte	0x1
 3538 07d1 32       		.byte	0x32
 3539 07d2 00       		.byte	0
 3540 07d3 14       		.uleb128 0x14
 3541 07d4 1A000000 		.4byte	.LVL90
 3542 07d8 AC030000 		.4byte	0x3ac
 3543 07dc E6070000 		.4byte	0x7e6
 3544 07e0 15       		.uleb128 0x15
 3545 07e1 01       		.byte	0x1
 3546 07e2 50       		.byte	0x50
 3547 07e3 01       		.byte	0x1
 3548 07e4 33       		.byte	0x33
 3549 07e5 00       		.byte	0
 3550 07e6 16       		.uleb128 0x16
 3551 07e7 22000000 		.4byte	.LVL91
 3552 07eb AC030000 		.4byte	0x3ac
 3553 07ef 15       		.uleb128 0x15
 3554 07f0 01       		.byte	0x1
 3555 07f1 50       		.byte	0x50
 3556 07f2 01       		.byte	0x1
 3557 07f3 34       		.byte	0x34
 3558 07f4 00       		.byte	0
 3559 07f5 00       		.byte	0
 3560 07f6 19       		.uleb128 0x19
 3561 07f7 01       		.byte	0x1
 3562 07f8 08000000 		.4byte	.LASF45
 3563 07fc 01       		.byte	0x1
 3564 07fd 8801     		.2byte	0x188
 3565 07ff 01       		.byte	0x1
 3566 0800 00000000 		.4byte	.LFB51
 3567 0804 26000000 		.4byte	.LFE51
 3568 0808 12050000 		.4byte	.LLST38
 3569 080c 01       		.byte	0x1
 3570 080d 6A080000 		.4byte	0x86a
 3571 0811 1A       		.uleb128 0x1a
ARM GAS  C:\Users\atsu\AppData\Local\Temp\ccNplIXy.s 			page 79


 3572 0812 79010000 		.4byte	.LASF30
 3573 0816 01       		.byte	0x1
 3574 0817 8901     		.2byte	0x189
 3575 0819 ED000000 		.4byte	0xed
 3576 081d 32050000 		.4byte	.LLST39
 3577 0821 14       		.uleb128 0x14
 3578 0822 0C000000 		.4byte	.LVL95
 3579 0826 FB020000 		.4byte	0x2fb
 3580 082a 34080000 		.4byte	0x834
 3581 082e 15       		.uleb128 0x15
 3582 082f 01       		.byte	0x1
 3583 0830 50       		.byte	0x50
 3584 0831 01       		.byte	0x1
 3585 0832 35       		.byte	0x35
 3586 0833 00       		.byte	0
 3587 0834 14       		.uleb128 0x14
 3588 0835 14000000 		.4byte	.LVL96
 3589 0839 FB020000 		.4byte	0x2fb
 3590 083d 47080000 		.4byte	0x847
 3591 0841 15       		.uleb128 0x15
 3592 0842 01       		.byte	0x1
 3593 0843 50       		.byte	0x50
 3594 0844 01       		.byte	0x1
 3595 0845 36       		.byte	0x36
 3596 0846 00       		.byte	0
 3597 0847 14       		.uleb128 0x14
 3598 0848 1C000000 		.4byte	.LVL97
 3599 084c FB020000 		.4byte	0x2fb
 3600 0850 5A080000 		.4byte	0x85a
 3601 0854 15       		.uleb128 0x15
 3602 0855 01       		.byte	0x1
 3603 0856 50       		.byte	0x50
 3604 0857 01       		.byte	0x1
 3605 0858 37       		.byte	0x37
 3606 0859 00       		.byte	0
 3607 085a 16       		.uleb128 0x16
 3608 085b 24000000 		.4byte	.LVL98
 3609 085f FB020000 		.4byte	0x2fb
 3610 0863 15       		.uleb128 0x15
 3611 0864 01       		.byte	0x1
 3612 0865 50       		.byte	0x50
 3613 0866 01       		.byte	0x1
 3614 0867 38       		.byte	0x38
 3615 0868 00       		.byte	0
 3616 0869 00       		.byte	0
 3617 086a 19       		.uleb128 0x19
 3618 086b 01       		.byte	0x1
 3619 086c 06010000 		.4byte	.LASF46
 3620 0870 01       		.byte	0x1
 3621 0871 9601     		.2byte	0x196
 3622 0873 01       		.byte	0x1
 3623 0874 00000000 		.4byte	.LFB52
 3624 0878 36000000 		.4byte	.LFE52
 3625 087c 5E050000 		.4byte	.LLST40
 3626 0880 01       		.byte	0x1
 3627 0881 04090000 		.4byte	0x904
 3628 0885 1A       		.uleb128 0x1a
ARM GAS  C:\Users\atsu\AppData\Local\Temp\ccNplIXy.s 			page 80


 3629 0886 79010000 		.4byte	.LASF30
 3630 088a 01       		.byte	0x1
 3631 088b 9701     		.2byte	0x197
 3632 088d ED000000 		.4byte	0xed
 3633 0891 7E050000 		.4byte	.LLST41
 3634 0895 14       		.uleb128 0x14
 3635 0896 0C000000 		.4byte	.LVL102
 3636 089a FB020000 		.4byte	0x2fb
 3637 089e A8080000 		.4byte	0x8a8
 3638 08a2 15       		.uleb128 0x15
 3639 08a3 01       		.byte	0x1
 3640 08a4 50       		.byte	0x50
 3641 08a5 01       		.byte	0x1
 3642 08a6 39       		.byte	0x39
 3643 08a7 00       		.byte	0
 3644 08a8 14       		.uleb128 0x14
 3645 08a9 14000000 		.4byte	.LVL103
 3646 08ad FB020000 		.4byte	0x2fb
 3647 08b1 BB080000 		.4byte	0x8bb
 3648 08b5 15       		.uleb128 0x15
 3649 08b6 01       		.byte	0x1
 3650 08b7 50       		.byte	0x50
 3651 08b8 01       		.byte	0x1
 3652 08b9 3A       		.byte	0x3a
 3653 08ba 00       		.byte	0
 3654 08bb 14       		.uleb128 0x14
 3655 08bc 1C000000 		.4byte	.LVL104
 3656 08c0 FB020000 		.4byte	0x2fb
 3657 08c4 CE080000 		.4byte	0x8ce
 3658 08c8 15       		.uleb128 0x15
 3659 08c9 01       		.byte	0x1
 3660 08ca 50       		.byte	0x50
 3661 08cb 01       		.byte	0x1
 3662 08cc 3B       		.byte	0x3b
 3663 08cd 00       		.byte	0
 3664 08ce 14       		.uleb128 0x14
 3665 08cf 24000000 		.4byte	.LVL105
 3666 08d3 FB020000 		.4byte	0x2fb
 3667 08d7 E1080000 		.4byte	0x8e1
 3668 08db 15       		.uleb128 0x15
 3669 08dc 01       		.byte	0x1
 3670 08dd 50       		.byte	0x50
 3671 08de 01       		.byte	0x1
 3672 08df 3C       		.byte	0x3c
 3673 08e0 00       		.byte	0
 3674 08e1 14       		.uleb128 0x14
 3675 08e2 2C000000 		.4byte	.LVL106
 3676 08e6 FB020000 		.4byte	0x2fb
 3677 08ea F4080000 		.4byte	0x8f4
 3678 08ee 15       		.uleb128 0x15
 3679 08ef 01       		.byte	0x1
 3680 08f0 50       		.byte	0x50
 3681 08f1 01       		.byte	0x1
 3682 08f2 3D       		.byte	0x3d
 3683 08f3 00       		.byte	0
 3684 08f4 16       		.uleb128 0x16
 3685 08f5 34000000 		.4byte	.LVL107
ARM GAS  C:\Users\atsu\AppData\Local\Temp\ccNplIXy.s 			page 81


 3686 08f9 FB020000 		.4byte	0x2fb
 3687 08fd 15       		.uleb128 0x15
 3688 08fe 01       		.byte	0x1
 3689 08ff 50       		.byte	0x50
 3690 0900 01       		.byte	0x1
 3691 0901 3E       		.byte	0x3e
 3692 0902 00       		.byte	0
 3693 0903 00       		.byte	0
 3694 0904 19       		.uleb128 0x19
 3695 0905 01       		.byte	0x1
 3696 0906 5E000000 		.4byte	.LASF47
 3697 090a 01       		.byte	0x1
 3698 090b A601     		.2byte	0x1a6
 3699 090d 01       		.byte	0x1
 3700 090e 00000000 		.4byte	.LFB53
 3701 0912 26000000 		.4byte	.LFE53
 3702 0916 AA050000 		.4byte	.LLST42
 3703 091a 01       		.byte	0x1
 3704 091b 78090000 		.4byte	0x978
 3705 091f 1A       		.uleb128 0x1a
 3706 0920 79010000 		.4byte	.LASF30
 3707 0924 01       		.byte	0x1
 3708 0925 A701     		.2byte	0x1a7
 3709 0927 ED000000 		.4byte	0xed
 3710 092b CA050000 		.4byte	.LLST43
 3711 092f 14       		.uleb128 0x14
 3712 0930 0C000000 		.4byte	.LVL111
 3713 0934 FB020000 		.4byte	0x2fb
 3714 0938 42090000 		.4byte	0x942
 3715 093c 15       		.uleb128 0x15
 3716 093d 01       		.byte	0x1
 3717 093e 50       		.byte	0x50
 3718 093f 01       		.byte	0x1
 3719 0940 3F       		.byte	0x3f
 3720 0941 00       		.byte	0
 3721 0942 14       		.uleb128 0x14
 3722 0943 14000000 		.4byte	.LVL112
 3723 0947 FB020000 		.4byte	0x2fb
 3724 094b 55090000 		.4byte	0x955
 3725 094f 15       		.uleb128 0x15
 3726 0950 01       		.byte	0x1
 3727 0951 50       		.byte	0x50
 3728 0952 01       		.byte	0x1
 3729 0953 40       		.byte	0x40
 3730 0954 00       		.byte	0
 3731 0955 14       		.uleb128 0x14
 3732 0956 1C000000 		.4byte	.LVL113
 3733 095a FB020000 		.4byte	0x2fb
 3734 095e 68090000 		.4byte	0x968
 3735 0962 15       		.uleb128 0x15
 3736 0963 01       		.byte	0x1
 3737 0964 50       		.byte	0x50
 3738 0965 01       		.byte	0x1
 3739 0966 41       		.byte	0x41
 3740 0967 00       		.byte	0
 3741 0968 16       		.uleb128 0x16
 3742 0969 24000000 		.4byte	.LVL114
ARM GAS  C:\Users\atsu\AppData\Local\Temp\ccNplIXy.s 			page 82


 3743 096d FB020000 		.4byte	0x2fb
 3744 0971 15       		.uleb128 0x15
 3745 0972 01       		.byte	0x1
 3746 0973 50       		.byte	0x50
 3747 0974 01       		.byte	0x1
 3748 0975 42       		.byte	0x42
 3749 0976 00       		.byte	0
 3750 0977 00       		.byte	0
 3751 0978 1F       		.uleb128 0x1f
 3752 0979 01       		.byte	0x1
 3753 097a 24030000 		.4byte	.LASF48
 3754 097e 01       		.byte	0x1
 3755 097f B401     		.2byte	0x1b4
 3756 0981 01       		.byte	0x1
 3757 0982 7D000000 		.4byte	0x7d
 3758 0986 00000000 		.4byte	.LFB54
 3759 098a 0A000000 		.4byte	.LFE54
 3760 098e F6050000 		.4byte	.LLST44
 3761 0992 01       		.byte	0x1
 3762 0993 A7090000 		.4byte	0x9a7
 3763 0997 16       		.uleb128 0x16
 3764 0998 08000000 		.4byte	.LVL116
 3765 099c AC030000 		.4byte	0x3ac
 3766 09a0 15       		.uleb128 0x15
 3767 09a1 01       		.byte	0x1
 3768 09a2 50       		.byte	0x50
 3769 09a3 01       		.byte	0x1
 3770 09a4 45       		.byte	0x45
 3771 09a5 00       		.byte	0
 3772 09a6 00       		.byte	0
 3773 09a7 19       		.uleb128 0x19
 3774 09a8 01       		.byte	0x1
 3775 09a9 0E010000 		.4byte	.LASF49
 3776 09ad 01       		.byte	0x1
 3777 09ae C101     		.2byte	0x1c1
 3778 09b0 01       		.byte	0x1
 3779 09b1 00000000 		.4byte	.LFB55
 3780 09b5 16000000 		.4byte	.LFE55
 3781 09b9 16060000 		.4byte	.LLST45
 3782 09bd 01       		.byte	0x1
 3783 09be 030A0000 		.4byte	0xa03
 3784 09c2 1A       		.uleb128 0x1a
 3785 09c3 56040000 		.4byte	.LASF50
 3786 09c7 01       		.byte	0x1
 3787 09c8 C101     		.2byte	0x1c1
 3788 09ca 88000000 		.4byte	0x88
 3789 09ce 36060000 		.4byte	.LLST46
 3790 09d2 14       		.uleb128 0x14
 3791 09d3 0C000000 		.4byte	.LVL119
 3792 09d7 FB020000 		.4byte	0x2fb
 3793 09db ED090000 		.4byte	0x9ed
 3794 09df 15       		.uleb128 0x15
 3795 09e0 01       		.byte	0x1
 3796 09e1 51       		.byte	0x51
 3797 09e2 04       		.byte	0x4
 3798 09e3 74       		.byte	0x74
 3799 09e4 00       		.sleb128 0
ARM GAS  C:\Users\atsu\AppData\Local\Temp\ccNplIXy.s 			page 83


 3800 09e5 38       		.byte	0x38
 3801 09e6 25       		.byte	0x25
 3802 09e7 15       		.uleb128 0x15
 3803 09e8 01       		.byte	0x1
 3804 09e9 50       		.byte	0x50
 3805 09ea 01       		.byte	0x1
 3806 09eb 47       		.byte	0x47
 3807 09ec 00       		.byte	0
 3808 09ed 16       		.uleb128 0x16
 3809 09ee 14000000 		.4byte	.LVL120
 3810 09f2 FB020000 		.4byte	0x2fb
 3811 09f6 15       		.uleb128 0x15
 3812 09f7 01       		.byte	0x1
 3813 09f8 51       		.byte	0x51
 3814 09f9 02       		.byte	0x2
 3815 09fa 74       		.byte	0x74
 3816 09fb 00       		.sleb128 0
 3817 09fc 15       		.uleb128 0x15
 3818 09fd 01       		.byte	0x1
 3819 09fe 50       		.byte	0x50
 3820 09ff 01       		.byte	0x1
 3821 0a00 48       		.byte	0x48
 3822 0a01 00       		.byte	0
 3823 0a02 00       		.byte	0
 3824 0a03 19       		.uleb128 0x19
 3825 0a04 01       		.byte	0x1
 3826 0a05 10000000 		.4byte	.LASF51
 3827 0a09 01       		.byte	0x1
 3828 0a0a CE01     		.2byte	0x1ce
 3829 0a0c 01       		.byte	0x1
 3830 0a0d 00000000 		.4byte	.LFB56
 3831 0a11 0C000000 		.4byte	.LFE56
 3832 0a15 57060000 		.4byte	.LLST47
 3833 0a19 01       		.byte	0x1
 3834 0a1a 3E0A0000 		.4byte	0xa3e
 3835 0a1e 1A       		.uleb128 0x1a
 3836 0a1f A7000000 		.4byte	.LASF52
 3837 0a23 01       		.byte	0x1
 3838 0a24 CE01     		.2byte	0x1ce
 3839 0a26 7D000000 		.4byte	0x7d
 3840 0a2a 77060000 		.4byte	.LLST48
 3841 0a2e 16       		.uleb128 0x16
 3842 0a2f 0A000000 		.4byte	.LVL123
 3843 0a33 FB020000 		.4byte	0x2fb
 3844 0a37 15       		.uleb128 0x15
 3845 0a38 01       		.byte	0x1
 3846 0a39 50       		.byte	0x50
 3847 0a3a 01       		.byte	0x1
 3848 0a3b 49       		.byte	0x49
 3849 0a3c 00       		.byte	0
 3850 0a3d 00       		.byte	0
 3851 0a3e 19       		.uleb128 0x19
 3852 0a3f 01       		.byte	0x1
 3853 0a40 89010000 		.4byte	.LASF53
 3854 0a44 01       		.byte	0x1
 3855 0a45 DA01     		.2byte	0x1da
 3856 0a47 01       		.byte	0x1
ARM GAS  C:\Users\atsu\AppData\Local\Temp\ccNplIXy.s 			page 84


 3857 0a48 00000000 		.4byte	.LFB57
 3858 0a4c 0C000000 		.4byte	.LFE57
 3859 0a50 98060000 		.4byte	.LLST49
 3860 0a54 01       		.byte	0x1
 3861 0a55 790A0000 		.4byte	0xa79
 3862 0a59 1A       		.uleb128 0x1a
 3863 0a5a 7A040000 		.4byte	.LASF54
 3864 0a5e 01       		.byte	0x1
 3865 0a5f DA01     		.2byte	0x1da
 3866 0a61 7D000000 		.4byte	0x7d
 3867 0a65 B8060000 		.4byte	.LLST50
 3868 0a69 16       		.uleb128 0x16
 3869 0a6a 0A000000 		.4byte	.LVL126
 3870 0a6e FB020000 		.4byte	0x2fb
 3871 0a72 15       		.uleb128 0x15
 3872 0a73 01       		.byte	0x1
 3873 0a74 50       		.byte	0x50
 3874 0a75 01       		.byte	0x1
 3875 0a76 46       		.byte	0x46
 3876 0a77 00       		.byte	0
 3877 0a78 00       		.byte	0
 3878 0a79 19       		.uleb128 0x19
 3879 0a7a 01       		.byte	0x1
 3880 0a7b 28020000 		.4byte	.LASF55
 3881 0a7f 01       		.byte	0x1
 3882 0a80 E401     		.2byte	0x1e4
 3883 0a82 01       		.byte	0x1
 3884 0a83 00000000 		.4byte	.LFB58
 3885 0a87 26000000 		.4byte	.LFE58
 3886 0a8b D9060000 		.4byte	.LLST51
 3887 0a8f 01       		.byte	0x1
 3888 0a90 ED0A0000 		.4byte	0xaed
 3889 0a94 1A       		.uleb128 0x1a
 3890 0a95 79010000 		.4byte	.LASF30
 3891 0a99 01       		.byte	0x1
 3892 0a9a E401     		.2byte	0x1e4
 3893 0a9c ED000000 		.4byte	0xed
 3894 0aa0 F9060000 		.4byte	.LLST52
 3895 0aa4 14       		.uleb128 0x14
 3896 0aa5 0A000000 		.4byte	.LVL129
 3897 0aa9 AC030000 		.4byte	0x3ac
 3898 0aad B70A0000 		.4byte	0xab7
 3899 0ab1 15       		.uleb128 0x15
 3900 0ab2 01       		.byte	0x1
 3901 0ab3 50       		.byte	0x50
 3902 0ab4 01       		.byte	0x1
 3903 0ab5 31       		.byte	0x31
 3904 0ab6 00       		.byte	0
 3905 0ab7 14       		.uleb128 0x14
 3906 0ab8 12000000 		.4byte	.LVL130
 3907 0abc AC030000 		.4byte	0x3ac
 3908 0ac0 CA0A0000 		.4byte	0xaca
 3909 0ac4 15       		.uleb128 0x15
 3910 0ac5 01       		.byte	0x1
 3911 0ac6 50       		.byte	0x50
 3912 0ac7 01       		.byte	0x1
 3913 0ac8 32       		.byte	0x32
ARM GAS  C:\Users\atsu\AppData\Local\Temp\ccNplIXy.s 			page 85


 3914 0ac9 00       		.byte	0
 3915 0aca 14       		.uleb128 0x14
 3916 0acb 1A000000 		.4byte	.LVL131
 3917 0acf AC030000 		.4byte	0x3ac
 3918 0ad3 DD0A0000 		.4byte	0xadd
 3919 0ad7 15       		.uleb128 0x15
 3920 0ad8 01       		.byte	0x1
 3921 0ad9 50       		.byte	0x50
 3922 0ada 01       		.byte	0x1
 3923 0adb 33       		.byte	0x33
 3924 0adc 00       		.byte	0
 3925 0add 16       		.uleb128 0x16
 3926 0ade 22000000 		.4byte	.LVL132
 3927 0ae2 AC030000 		.4byte	0x3ac
 3928 0ae6 15       		.uleb128 0x15
 3929 0ae7 01       		.byte	0x1
 3930 0ae8 50       		.byte	0x50
 3931 0ae9 01       		.byte	0x1
 3932 0aea 34       		.byte	0x34
 3933 0aeb 00       		.byte	0
 3934 0aec 00       		.byte	0
 3935 0aed 19       		.uleb128 0x19
 3936 0aee 01       		.byte	0x1
 3937 0aef 00000000 		.4byte	.LASF56
 3938 0af3 01       		.byte	0x1
 3939 0af4 EB01     		.2byte	0x1eb
 3940 0af6 01       		.byte	0x1
 3941 0af7 00000000 		.4byte	.LFB59
 3942 0afb 26000000 		.4byte	.LFE59
 3943 0aff 25070000 		.4byte	.LLST53
 3944 0b03 01       		.byte	0x1
 3945 0b04 610B0000 		.4byte	0xb61
 3946 0b08 1A       		.uleb128 0x1a
 3947 0b09 79010000 		.4byte	.LASF30
 3948 0b0d 01       		.byte	0x1
 3949 0b0e EB01     		.2byte	0x1eb
 3950 0b10 ED000000 		.4byte	0xed
 3951 0b14 45070000 		.4byte	.LLST54
 3952 0b18 14       		.uleb128 0x14
 3953 0b19 0A000000 		.4byte	.LVL136
 3954 0b1d AC030000 		.4byte	0x3ac
 3955 0b21 2B0B0000 		.4byte	0xb2b
 3956 0b25 15       		.uleb128 0x15
 3957 0b26 01       		.byte	0x1
 3958 0b27 50       		.byte	0x50
 3959 0b28 01       		.byte	0x1
 3960 0b29 35       		.byte	0x35
 3961 0b2a 00       		.byte	0
 3962 0b2b 14       		.uleb128 0x14
 3963 0b2c 12000000 		.4byte	.LVL137
 3964 0b30 AC030000 		.4byte	0x3ac
 3965 0b34 3E0B0000 		.4byte	0xb3e
 3966 0b38 15       		.uleb128 0x15
 3967 0b39 01       		.byte	0x1
 3968 0b3a 50       		.byte	0x50
 3969 0b3b 01       		.byte	0x1
 3970 0b3c 36       		.byte	0x36
ARM GAS  C:\Users\atsu\AppData\Local\Temp\ccNplIXy.s 			page 86


 3971 0b3d 00       		.byte	0
 3972 0b3e 14       		.uleb128 0x14
 3973 0b3f 1A000000 		.4byte	.LVL138
 3974 0b43 AC030000 		.4byte	0x3ac
 3975 0b47 510B0000 		.4byte	0xb51
 3976 0b4b 15       		.uleb128 0x15
 3977 0b4c 01       		.byte	0x1
 3978 0b4d 50       		.byte	0x50
 3979 0b4e 01       		.byte	0x1
 3980 0b4f 37       		.byte	0x37
 3981 0b50 00       		.byte	0
 3982 0b51 16       		.uleb128 0x16
 3983 0b52 22000000 		.4byte	.LVL139
 3984 0b56 AC030000 		.4byte	0x3ac
 3985 0b5a 15       		.uleb128 0x15
 3986 0b5b 01       		.byte	0x1
 3987 0b5c 50       		.byte	0x50
 3988 0b5d 01       		.byte	0x1
 3989 0b5e 38       		.byte	0x38
 3990 0b5f 00       		.byte	0
 3991 0b60 00       		.byte	0
 3992 0b61 19       		.uleb128 0x19
 3993 0b62 01       		.byte	0x1
 3994 0b63 F8000000 		.4byte	.LASF57
 3995 0b67 01       		.byte	0x1
 3996 0b68 F201     		.2byte	0x1f2
 3997 0b6a 01       		.byte	0x1
 3998 0b6b 00000000 		.4byte	.LFB60
 3999 0b6f 36000000 		.4byte	.LFE60
 4000 0b73 71070000 		.4byte	.LLST55
 4001 0b77 01       		.byte	0x1
 4002 0b78 FB0B0000 		.4byte	0xbfb
 4003 0b7c 1A       		.uleb128 0x1a
 4004 0b7d 79010000 		.4byte	.LASF30
 4005 0b81 01       		.byte	0x1
 4006 0b82 F201     		.2byte	0x1f2
 4007 0b84 ED000000 		.4byte	0xed
 4008 0b88 91070000 		.4byte	.LLST56
 4009 0b8c 14       		.uleb128 0x14
 4010 0b8d 0A000000 		.4byte	.LVL143
 4011 0b91 AC030000 		.4byte	0x3ac
 4012 0b95 9F0B0000 		.4byte	0xb9f
 4013 0b99 15       		.uleb128 0x15
 4014 0b9a 01       		.byte	0x1
 4015 0b9b 50       		.byte	0x50
 4016 0b9c 01       		.byte	0x1
 4017 0b9d 39       		.byte	0x39
 4018 0b9e 00       		.byte	0
 4019 0b9f 14       		.uleb128 0x14
 4020 0ba0 12000000 		.4byte	.LVL144
 4021 0ba4 AC030000 		.4byte	0x3ac
 4022 0ba8 B20B0000 		.4byte	0xbb2
 4023 0bac 15       		.uleb128 0x15
 4024 0bad 01       		.byte	0x1
 4025 0bae 50       		.byte	0x50
 4026 0baf 01       		.byte	0x1
 4027 0bb0 3A       		.byte	0x3a
ARM GAS  C:\Users\atsu\AppData\Local\Temp\ccNplIXy.s 			page 87


 4028 0bb1 00       		.byte	0
 4029 0bb2 14       		.uleb128 0x14
 4030 0bb3 1A000000 		.4byte	.LVL145
 4031 0bb7 AC030000 		.4byte	0x3ac
 4032 0bbb C50B0000 		.4byte	0xbc5
 4033 0bbf 15       		.uleb128 0x15
 4034 0bc0 01       		.byte	0x1
 4035 0bc1 50       		.byte	0x50
 4036 0bc2 01       		.byte	0x1
 4037 0bc3 3B       		.byte	0x3b
 4038 0bc4 00       		.byte	0
 4039 0bc5 14       		.uleb128 0x14
 4040 0bc6 22000000 		.4byte	.LVL146
 4041 0bca AC030000 		.4byte	0x3ac
 4042 0bce D80B0000 		.4byte	0xbd8
 4043 0bd2 15       		.uleb128 0x15
 4044 0bd3 01       		.byte	0x1
 4045 0bd4 50       		.byte	0x50
 4046 0bd5 01       		.byte	0x1
 4047 0bd6 3C       		.byte	0x3c
 4048 0bd7 00       		.byte	0
 4049 0bd8 14       		.uleb128 0x14
 4050 0bd9 2A000000 		.4byte	.LVL147
 4051 0bdd AC030000 		.4byte	0x3ac
 4052 0be1 EB0B0000 		.4byte	0xbeb
 4053 0be5 15       		.uleb128 0x15
 4054 0be6 01       		.byte	0x1
 4055 0be7 50       		.byte	0x50
 4056 0be8 01       		.byte	0x1
 4057 0be9 3D       		.byte	0x3d
 4058 0bea 00       		.byte	0
 4059 0beb 16       		.uleb128 0x16
 4060 0bec 32000000 		.4byte	.LVL148
 4061 0bf0 AC030000 		.4byte	0x3ac
 4062 0bf4 15       		.uleb128 0x15
 4063 0bf5 01       		.byte	0x1
 4064 0bf6 50       		.byte	0x50
 4065 0bf7 01       		.byte	0x1
 4066 0bf8 3E       		.byte	0x3e
 4067 0bf9 00       		.byte	0
 4068 0bfa 00       		.byte	0
 4069 0bfb 19       		.uleb128 0x19
 4070 0bfc 01       		.byte	0x1
 4071 0bfd 56000000 		.4byte	.LASF58
 4072 0c01 01       		.byte	0x1
 4073 0c02 FB01     		.2byte	0x1fb
 4074 0c04 01       		.byte	0x1
 4075 0c05 00000000 		.4byte	.LFB61
 4076 0c09 26000000 		.4byte	.LFE61
 4077 0c0d BD070000 		.4byte	.LLST57
 4078 0c11 01       		.byte	0x1
 4079 0c12 6F0C0000 		.4byte	0xc6f
 4080 0c16 1A       		.uleb128 0x1a
 4081 0c17 79010000 		.4byte	.LASF30
 4082 0c1b 01       		.byte	0x1
 4083 0c1c FB01     		.2byte	0x1fb
 4084 0c1e ED000000 		.4byte	0xed
ARM GAS  C:\Users\atsu\AppData\Local\Temp\ccNplIXy.s 			page 88


 4085 0c22 DD070000 		.4byte	.LLST58
 4086 0c26 14       		.uleb128 0x14
 4087 0c27 0A000000 		.4byte	.LVL152
 4088 0c2b AC030000 		.4byte	0x3ac
 4089 0c2f 390C0000 		.4byte	0xc39
 4090 0c33 15       		.uleb128 0x15
 4091 0c34 01       		.byte	0x1
 4092 0c35 50       		.byte	0x50
 4093 0c36 01       		.byte	0x1
 4094 0c37 3F       		.byte	0x3f
 4095 0c38 00       		.byte	0
 4096 0c39 14       		.uleb128 0x14
 4097 0c3a 12000000 		.4byte	.LVL153
 4098 0c3e AC030000 		.4byte	0x3ac
 4099 0c42 4C0C0000 		.4byte	0xc4c
 4100 0c46 15       		.uleb128 0x15
 4101 0c47 01       		.byte	0x1
 4102 0c48 50       		.byte	0x50
 4103 0c49 01       		.byte	0x1
 4104 0c4a 40       		.byte	0x40
 4105 0c4b 00       		.byte	0
 4106 0c4c 14       		.uleb128 0x14
 4107 0c4d 1A000000 		.4byte	.LVL154
 4108 0c51 AC030000 		.4byte	0x3ac
 4109 0c55 5F0C0000 		.4byte	0xc5f
 4110 0c59 15       		.uleb128 0x15
 4111 0c5a 01       		.byte	0x1
 4112 0c5b 50       		.byte	0x50
 4113 0c5c 01       		.byte	0x1
 4114 0c5d 41       		.byte	0x41
 4115 0c5e 00       		.byte	0
 4116 0c5f 16       		.uleb128 0x16
 4117 0c60 22000000 		.4byte	.LVL155
 4118 0c64 AC030000 		.4byte	0x3ac
 4119 0c68 15       		.uleb128 0x15
 4120 0c69 01       		.byte	0x1
 4121 0c6a 50       		.byte	0x50
 4122 0c6b 01       		.byte	0x1
 4123 0c6c 42       		.byte	0x42
 4124 0c6d 00       		.byte	0
 4125 0c6e 00       		.byte	0
 4126 0c6f 19       		.uleb128 0x19
 4127 0c70 01       		.byte	0x1
 4128 0c71 D9020000 		.4byte	.LASF59
 4129 0c75 01       		.byte	0x1
 4130 0c76 0702     		.2byte	0x207
 4131 0c78 01       		.byte	0x1
 4132 0c79 00000000 		.4byte	.LFB62
 4133 0c7d 4E000000 		.4byte	.LFE62
 4134 0c81 09080000 		.4byte	.LLST59
 4135 0c85 01       		.byte	0x1
 4136 0c86 1D0D0000 		.4byte	0xd1d
 4137 0c8a 1D       		.uleb128 0x1d
 4138 0c8b 7300     		.ascii	"s\000"
 4139 0c8d 01       		.byte	0x1
 4140 0c8e 0702     		.2byte	0x207
 4141 0c90 E2000000 		.4byte	0xe2
ARM GAS  C:\Users\atsu\AppData\Local\Temp\ccNplIXy.s 			page 89


 4142 0c94 29080000 		.4byte	.LLST60
 4143 0c98 1A       		.uleb128 0x1a
 4144 0c99 79010000 		.4byte	.LASF30
 4145 0c9d 01       		.byte	0x1
 4146 0c9e 0702     		.2byte	0x207
 4147 0ca0 ED000000 		.4byte	0xed
 4148 0ca4 4A080000 		.4byte	.LLST61
 4149 0ca8 14       		.uleb128 0x14
 4150 0ca9 12000000 		.4byte	.LVL160
 4151 0cad AC030000 		.4byte	0x3ac
 4152 0cb1 BC0C0000 		.4byte	0xcbc
 4153 0cb5 15       		.uleb128 0x15
 4154 0cb6 01       		.byte	0x1
 4155 0cb7 50       		.byte	0x50
 4156 0cb8 02       		.byte	0x2
 4157 0cb9 75       		.byte	0x75
 4158 0cba 06       		.sleb128 6
 4159 0cbb 00       		.byte	0
 4160 0cbc 14       		.uleb128 0x14
 4161 0cbd 1C000000 		.4byte	.LVL161
 4162 0cc1 AC030000 		.4byte	0x3ac
 4163 0cc5 D00C0000 		.4byte	0xcd0
 4164 0cc9 15       		.uleb128 0x15
 4165 0cca 01       		.byte	0x1
 4166 0ccb 50       		.byte	0x50
 4167 0ccc 02       		.byte	0x2
 4168 0ccd 75       		.byte	0x75
 4169 0cce 07       		.sleb128 7
 4170 0ccf 00       		.byte	0
 4171 0cd0 14       		.uleb128 0x14
 4172 0cd1 28000000 		.4byte	.LVL162
 4173 0cd5 AC030000 		.4byte	0x3ac
 4174 0cd9 E40C0000 		.4byte	0xce4
 4175 0cdd 15       		.uleb128 0x15
 4176 0cde 01       		.byte	0x1
 4177 0cdf 50       		.byte	0x50
 4178 0ce0 02       		.byte	0x2
 4179 0ce1 75       		.byte	0x75
 4180 0ce2 08       		.sleb128 8
 4181 0ce3 00       		.byte	0
 4182 0ce4 14       		.uleb128 0x14
 4183 0ce5 34000000 		.4byte	.LVL163
 4184 0ce9 AC030000 		.4byte	0x3ac
 4185 0ced F80C0000 		.4byte	0xcf8
 4186 0cf1 15       		.uleb128 0x15
 4187 0cf2 01       		.byte	0x1
 4188 0cf3 50       		.byte	0x50
 4189 0cf4 02       		.byte	0x2
 4190 0cf5 75       		.byte	0x75
 4191 0cf6 09       		.sleb128 9
 4192 0cf7 00       		.byte	0
 4193 0cf8 14       		.uleb128 0x14
 4194 0cf9 40000000 		.4byte	.LVL164
 4195 0cfd AC030000 		.4byte	0x3ac
 4196 0d01 0C0D0000 		.4byte	0xd0c
 4197 0d05 15       		.uleb128 0x15
 4198 0d06 01       		.byte	0x1
ARM GAS  C:\Users\atsu\AppData\Local\Temp\ccNplIXy.s 			page 90


 4199 0d07 50       		.byte	0x50
 4200 0d08 02       		.byte	0x2
 4201 0d09 75       		.byte	0x75
 4202 0d0a 0A       		.sleb128 10
 4203 0d0b 00       		.byte	0
 4204 0d0c 16       		.uleb128 0x16
 4205 0d0d 4A000000 		.4byte	.LVL165
 4206 0d11 AC030000 		.4byte	0x3ac
 4207 0d15 15       		.uleb128 0x15
 4208 0d16 01       		.byte	0x1
 4209 0d17 50       		.byte	0x50
 4210 0d18 02       		.byte	0x2
 4211 0d19 75       		.byte	0x75
 4212 0d1a 00       		.sleb128 0
 4213 0d1b 00       		.byte	0
 4214 0d1c 00       		.byte	0
 4215 0d1d 19       		.uleb128 0x19
 4216 0d1e 01       		.byte	0x1
 4217 0d1f 7B000000 		.4byte	.LASF60
 4218 0d23 01       		.byte	0x1
 4219 0d24 1002     		.2byte	0x210
 4220 0d26 01       		.byte	0x1
 4221 0d27 00000000 		.4byte	.LFB63
 4222 0d2b 4E000000 		.4byte	.LFE63
 4223 0d2f 76080000 		.4byte	.LLST62
 4224 0d33 01       		.byte	0x1
 4225 0d34 CB0D0000 		.4byte	0xdcb
 4226 0d38 1D       		.uleb128 0x1d
 4227 0d39 7300     		.ascii	"s\000"
 4228 0d3b 01       		.byte	0x1
 4229 0d3c 1002     		.2byte	0x210
 4230 0d3e E2000000 		.4byte	0xe2
 4231 0d42 96080000 		.4byte	.LLST63
 4232 0d46 1A       		.uleb128 0x1a
 4233 0d47 79010000 		.4byte	.LASF30
 4234 0d4b 01       		.byte	0x1
 4235 0d4c 1002     		.2byte	0x210
 4236 0d4e ED000000 		.4byte	0xed
 4237 0d52 B7080000 		.4byte	.LLST64
 4238 0d56 14       		.uleb128 0x14
 4239 0d57 14000000 		.4byte	.LVL170
 4240 0d5b FB020000 		.4byte	0x2fb
 4241 0d5f 6A0D0000 		.4byte	0xd6a
 4242 0d63 15       		.uleb128 0x15
 4243 0d64 01       		.byte	0x1
 4244 0d65 50       		.byte	0x50
 4245 0d66 02       		.byte	0x2
 4246 0d67 75       		.byte	0x75
 4247 0d68 06       		.sleb128 6
 4248 0d69 00       		.byte	0
 4249 0d6a 14       		.uleb128 0x14
 4250 0d6b 1E000000 		.4byte	.LVL171
 4251 0d6f FB020000 		.4byte	0x2fb
 4252 0d73 7E0D0000 		.4byte	0xd7e
 4253 0d77 15       		.uleb128 0x15
 4254 0d78 01       		.byte	0x1
 4255 0d79 50       		.byte	0x50
ARM GAS  C:\Users\atsu\AppData\Local\Temp\ccNplIXy.s 			page 91


 4256 0d7a 02       		.byte	0x2
 4257 0d7b 75       		.byte	0x75
 4258 0d7c 07       		.sleb128 7
 4259 0d7d 00       		.byte	0
 4260 0d7e 14       		.uleb128 0x14
 4261 0d7f 2A000000 		.4byte	.LVL172
 4262 0d83 FB020000 		.4byte	0x2fb
 4263 0d87 920D0000 		.4byte	0xd92
 4264 0d8b 15       		.uleb128 0x15
 4265 0d8c 01       		.byte	0x1
 4266 0d8d 50       		.byte	0x50
 4267 0d8e 02       		.byte	0x2
 4268 0d8f 75       		.byte	0x75
 4269 0d90 08       		.sleb128 8
 4270 0d91 00       		.byte	0
 4271 0d92 14       		.uleb128 0x14
 4272 0d93 36000000 		.4byte	.LVL173
 4273 0d97 FB020000 		.4byte	0x2fb
 4274 0d9b A60D0000 		.4byte	0xda6
 4275 0d9f 15       		.uleb128 0x15
 4276 0da0 01       		.byte	0x1
 4277 0da1 50       		.byte	0x50
 4278 0da2 02       		.byte	0x2
 4279 0da3 75       		.byte	0x75
 4280 0da4 09       		.sleb128 9
 4281 0da5 00       		.byte	0
 4282 0da6 14       		.uleb128 0x14
 4283 0da7 44000000 		.4byte	.LVL174
 4284 0dab FB020000 		.4byte	0x2fb
 4285 0daf BA0D0000 		.4byte	0xdba
 4286 0db3 15       		.uleb128 0x15
 4287 0db4 01       		.byte	0x1
 4288 0db5 50       		.byte	0x50
 4289 0db6 02       		.byte	0x2
 4290 0db7 75       		.byte	0x75
 4291 0db8 7F       		.sleb128 -1
 4292 0db9 00       		.byte	0
 4293 0dba 16       		.uleb128 0x16
 4294 0dbb 4C000000 		.4byte	.LVL175
 4295 0dbf FB020000 		.4byte	0x2fb
 4296 0dc3 15       		.uleb128 0x15
 4297 0dc4 01       		.byte	0x1
 4298 0dc5 50       		.byte	0x50
 4299 0dc6 02       		.byte	0x2
 4300 0dc7 75       		.byte	0x75
 4301 0dc8 00       		.sleb128 0
 4302 0dc9 00       		.byte	0
 4303 0dca 00       		.byte	0
 4304 0dcb 19       		.uleb128 0x19
 4305 0dcc 01       		.byte	0x1
 4306 0dcd 3C020000 		.4byte	.LASF61
 4307 0dd1 01       		.byte	0x1
 4308 0dd2 1902     		.2byte	0x219
 4309 0dd4 01       		.byte	0x1
 4310 0dd5 00000000 		.4byte	.LFB64
 4311 0dd9 3A000000 		.4byte	.LFE64
 4312 0ddd E3080000 		.4byte	.LLST65
ARM GAS  C:\Users\atsu\AppData\Local\Temp\ccNplIXy.s 			page 92


 4313 0de1 01       		.byte	0x1
 4314 0de2 510E0000 		.4byte	0xe51
 4315 0de6 1D       		.uleb128 0x1d
 4316 0de7 7300     		.ascii	"s\000"
 4317 0de9 01       		.byte	0x1
 4318 0dea 1902     		.2byte	0x219
 4319 0dec E2000000 		.4byte	0xe2
 4320 0df0 03090000 		.4byte	.LLST66
 4321 0df4 1A       		.uleb128 0x1a
 4322 0df5 79010000 		.4byte	.LASF30
 4323 0df9 01       		.byte	0x1
 4324 0dfa 1902     		.2byte	0x219
 4325 0dfc ED000000 		.4byte	0xed
 4326 0e00 24090000 		.4byte	.LLST67
 4327 0e04 14       		.uleb128 0x14
 4328 0e05 14000000 		.4byte	.LVL180
 4329 0e09 AC030000 		.4byte	0x3ac
 4330 0e0d 180E0000 		.4byte	0xe18
 4331 0e11 15       		.uleb128 0x15
 4332 0e12 01       		.byte	0x1
 4333 0e13 50       		.byte	0x50
 4334 0e14 02       		.byte	0x2
 4335 0e15 75       		.byte	0x75
 4336 0e16 0C       		.sleb128 12
 4337 0e17 00       		.byte	0
 4338 0e18 14       		.uleb128 0x14
 4339 0e19 20000000 		.4byte	.LVL181
 4340 0e1d AC030000 		.4byte	0x3ac
 4341 0e21 2C0E0000 		.4byte	0xe2c
 4342 0e25 15       		.uleb128 0x15
 4343 0e26 01       		.byte	0x1
 4344 0e27 50       		.byte	0x50
 4345 0e28 02       		.byte	0x2
 4346 0e29 75       		.byte	0x75
 4347 0e2a 0D       		.sleb128 13
 4348 0e2b 00       		.byte	0
 4349 0e2c 14       		.uleb128 0x14
 4350 0e2d 2C000000 		.4byte	.LVL182
 4351 0e31 AC030000 		.4byte	0x3ac
 4352 0e35 400E0000 		.4byte	0xe40
 4353 0e39 15       		.uleb128 0x15
 4354 0e3a 01       		.byte	0x1
 4355 0e3b 50       		.byte	0x50
 4356 0e3c 02       		.byte	0x2
 4357 0e3d 75       		.byte	0x75
 4358 0e3e 0E       		.sleb128 14
 4359 0e3f 00       		.byte	0
 4360 0e40 16       		.uleb128 0x16
 4361 0e41 36000000 		.4byte	.LVL183
 4362 0e45 AC030000 		.4byte	0x3ac
 4363 0e49 15       		.uleb128 0x15
 4364 0e4a 01       		.byte	0x1
 4365 0e4b 50       		.byte	0x50
 4366 0e4c 02       		.byte	0x2
 4367 0e4d 75       		.byte	0x75
 4368 0e4e 00       		.sleb128 0
 4369 0e4f 00       		.byte	0
ARM GAS  C:\Users\atsu\AppData\Local\Temp\ccNplIXy.s 			page 93


 4370 0e50 00       		.byte	0
 4371 0e51 19       		.uleb128 0x19
 4372 0e52 01       		.byte	0x1
 4373 0e53 E8030000 		.4byte	.LASF62
 4374 0e57 01       		.byte	0x1
 4375 0e58 2002     		.2byte	0x220
 4376 0e5a 01       		.byte	0x1
 4377 0e5b 00000000 		.4byte	.LFB65
 4378 0e5f 3A000000 		.4byte	.LFE65
 4379 0e63 50090000 		.4byte	.LLST68
 4380 0e67 01       		.byte	0x1
 4381 0e68 D70E0000 		.4byte	0xed7
 4382 0e6c 1D       		.uleb128 0x1d
 4383 0e6d 7300     		.ascii	"s\000"
 4384 0e6f 01       		.byte	0x1
 4385 0e70 2002     		.2byte	0x220
 4386 0e72 E2000000 		.4byte	0xe2
 4387 0e76 70090000 		.4byte	.LLST69
 4388 0e7a 1A       		.uleb128 0x1a
 4389 0e7b 79010000 		.4byte	.LASF30
 4390 0e7f 01       		.byte	0x1
 4391 0e80 2002     		.2byte	0x220
 4392 0e82 ED000000 		.4byte	0xed
 4393 0e86 91090000 		.4byte	.LLST70
 4394 0e8a 14       		.uleb128 0x14
 4395 0e8b 16000000 		.4byte	.LVL188
 4396 0e8f FB020000 		.4byte	0x2fb
 4397 0e93 9E0E0000 		.4byte	0xe9e
 4398 0e97 15       		.uleb128 0x15
 4399 0e98 01       		.byte	0x1
 4400 0e99 50       		.byte	0x50
 4401 0e9a 02       		.byte	0x2
 4402 0e9b 75       		.byte	0x75
 4403 0e9c 0C       		.sleb128 12
 4404 0e9d 00       		.byte	0
 4405 0e9e 14       		.uleb128 0x14
 4406 0e9f 22000000 		.4byte	.LVL189
 4407 0ea3 FB020000 		.4byte	0x2fb
 4408 0ea7 B20E0000 		.4byte	0xeb2
 4409 0eab 15       		.uleb128 0x15
 4410 0eac 01       		.byte	0x1
 4411 0ead 50       		.byte	0x50
 4412 0eae 02       		.byte	0x2
 4413 0eaf 75       		.byte	0x75
 4414 0eb0 0D       		.sleb128 13
 4415 0eb1 00       		.byte	0
 4416 0eb2 14       		.uleb128 0x14
 4417 0eb3 30000000 		.4byte	.LVL190
 4418 0eb7 FB020000 		.4byte	0x2fb
 4419 0ebb C60E0000 		.4byte	0xec6
 4420 0ebf 15       		.uleb128 0x15
 4421 0ec0 01       		.byte	0x1
 4422 0ec1 50       		.byte	0x50
 4423 0ec2 02       		.byte	0x2
 4424 0ec3 75       		.byte	0x75
 4425 0ec4 7F       		.sleb128 -1
 4426 0ec5 00       		.byte	0
ARM GAS  C:\Users\atsu\AppData\Local\Temp\ccNplIXy.s 			page 94


 4427 0ec6 16       		.uleb128 0x16
 4428 0ec7 38000000 		.4byte	.LVL191
 4429 0ecb FB020000 		.4byte	0x2fb
 4430 0ecf 15       		.uleb128 0x15
 4431 0ed0 01       		.byte	0x1
 4432 0ed1 50       		.byte	0x50
 4433 0ed2 02       		.byte	0x2
 4434 0ed3 75       		.byte	0x75
 4435 0ed4 00       		.sleb128 0
 4436 0ed5 00       		.byte	0
 4437 0ed6 00       		.byte	0
 4438 0ed7 19       		.uleb128 0x19
 4439 0ed8 01       		.byte	0x1
 4440 0ed9 97020000 		.4byte	.LASF63
 4441 0edd 01       		.byte	0x1
 4442 0ede 2702     		.2byte	0x227
 4443 0ee0 01       		.byte	0x1
 4444 0ee1 00000000 		.4byte	.LFB66
 4445 0ee5 22000000 		.4byte	.LFE66
 4446 0ee9 BD090000 		.4byte	.LLST71
 4447 0eed 01       		.byte	0x1
 4448 0eee 350F0000 		.4byte	0xf35
 4449 0ef2 1D       		.uleb128 0x1d
 4450 0ef3 7300     		.ascii	"s\000"
 4451 0ef5 01       		.byte	0x1
 4452 0ef6 2702     		.2byte	0x227
 4453 0ef8 E2000000 		.4byte	0xe2
 4454 0efc DD090000 		.4byte	.LLST72
 4455 0f00 1A       		.uleb128 0x1a
 4456 0f01 79010000 		.4byte	.LASF30
 4457 0f05 01       		.byte	0x1
 4458 0f06 2702     		.2byte	0x227
 4459 0f08 ED000000 		.4byte	0xed
 4460 0f0c FE090000 		.4byte	.LLST73
 4461 0f10 14       		.uleb128 0x14
 4462 0f11 14000000 		.4byte	.LVL196
 4463 0f15 AC030000 		.4byte	0x3ac
 4464 0f19 240F0000 		.4byte	0xf24
 4465 0f1d 15       		.uleb128 0x15
 4466 0f1e 01       		.byte	0x1
 4467 0f1f 50       		.byte	0x50
 4468 0f20 02       		.byte	0x2
 4469 0f21 75       		.byte	0x75
 4470 0f22 10       		.sleb128 16
 4471 0f23 00       		.byte	0
 4472 0f24 16       		.uleb128 0x16
 4473 0f25 1E000000 		.4byte	.LVL197
 4474 0f29 AC030000 		.4byte	0x3ac
 4475 0f2d 15       		.uleb128 0x15
 4476 0f2e 01       		.byte	0x1
 4477 0f2f 50       		.byte	0x50
 4478 0f30 02       		.byte	0x2
 4479 0f31 75       		.byte	0x75
 4480 0f32 00       		.sleb128 0
 4481 0f33 00       		.byte	0
 4482 0f34 00       		.byte	0
 4483 0f35 19       		.uleb128 0x19
ARM GAS  C:\Users\atsu\AppData\Local\Temp\ccNplIXy.s 			page 95


 4484 0f36 01       		.byte	0x1
 4485 0f37 5E040000 		.4byte	.LASF64
 4486 0f3b 01       		.byte	0x1
 4487 0f3c 2C02     		.2byte	0x22c
 4488 0f3e 01       		.byte	0x1
 4489 0f3f 00000000 		.4byte	.LFB67
 4490 0f43 22000000 		.4byte	.LFE67
 4491 0f47 2A0A0000 		.4byte	.LLST74
 4492 0f4b 01       		.byte	0x1
 4493 0f4c 930F0000 		.4byte	0xf93
 4494 0f50 1D       		.uleb128 0x1d
 4495 0f51 7300     		.ascii	"s\000"
 4496 0f53 01       		.byte	0x1
 4497 0f54 2C02     		.2byte	0x22c
 4498 0f56 E2000000 		.4byte	0xe2
 4499 0f5a 4A0A0000 		.4byte	.LLST75
 4500 0f5e 1A       		.uleb128 0x1a
 4501 0f5f 79010000 		.4byte	.LASF30
 4502 0f63 01       		.byte	0x1
 4503 0f64 2C02     		.2byte	0x22c
 4504 0f66 ED000000 		.4byte	0xed
 4505 0f6a 6B0A0000 		.4byte	.LLST76
 4506 0f6e 14       		.uleb128 0x14
 4507 0f6f 18000000 		.4byte	.LVL202
 4508 0f73 FB020000 		.4byte	0x2fb
 4509 0f77 820F0000 		.4byte	0xf82
 4510 0f7b 15       		.uleb128 0x15
 4511 0f7c 01       		.byte	0x1
 4512 0f7d 50       		.byte	0x50
 4513 0f7e 02       		.byte	0x2
 4514 0f7f 75       		.byte	0x75
 4515 0f80 7F       		.sleb128 -1
 4516 0f81 00       		.byte	0
 4517 0f82 16       		.uleb128 0x16
 4518 0f83 20000000 		.4byte	.LVL203
 4519 0f87 FB020000 		.4byte	0x2fb
 4520 0f8b 15       		.uleb128 0x15
 4521 0f8c 01       		.byte	0x1
 4522 0f8d 50       		.byte	0x50
 4523 0f8e 02       		.byte	0x2
 4524 0f8f 75       		.byte	0x75
 4525 0f90 00       		.sleb128 0
 4526 0f91 00       		.byte	0
 4527 0f92 00       		.byte	0
 4528 0f93 19       		.uleb128 0x19
 4529 0f94 01       		.byte	0x1
 4530 0f95 60020000 		.4byte	.LASF65
 4531 0f99 01       		.byte	0x1
 4532 0f9a 3602     		.2byte	0x236
 4533 0f9c 01       		.byte	0x1
 4534 0f9d 00000000 		.4byte	.LFB68
 4535 0fa1 22000000 		.4byte	.LFE68
 4536 0fa5 970A0000 		.4byte	.LLST77
 4537 0fa9 01       		.byte	0x1
 4538 0faa FF0F0000 		.4byte	0xfff
 4539 0fae 1D       		.uleb128 0x1d
 4540 0faf 7300     		.ascii	"s\000"
ARM GAS  C:\Users\atsu\AppData\Local\Temp\ccNplIXy.s 			page 96


 4541 0fb1 01       		.byte	0x1
 4542 0fb2 3602     		.2byte	0x236
 4543 0fb4 E2000000 		.4byte	0xe2
 4544 0fb8 B70A0000 		.4byte	.LLST78
 4545 0fbc 1A       		.uleb128 0x1a
 4546 0fbd 14030000 		.4byte	.LASF66
 4547 0fc1 01       		.byte	0x1
 4548 0fc2 3602     		.2byte	0x236
 4549 0fc4 88000000 		.4byte	0x88
 4550 0fc8 D80A0000 		.4byte	.LLST79
 4551 0fcc 14       		.uleb128 0x14
 4552 0fcd 18000000 		.4byte	.LVL208
 4553 0fd1 FB020000 		.4byte	0x2fb
 4554 0fd5 E80F0000 		.4byte	0xfe8
 4555 0fd9 15       		.uleb128 0x15
 4556 0fda 01       		.byte	0x1
 4557 0fdb 51       		.byte	0x51
 4558 0fdc 04       		.byte	0x4
 4559 0fdd 74       		.byte	0x74
 4560 0fde 00       		.sleb128 0
 4561 0fdf 38       		.byte	0x38
 4562 0fe0 25       		.byte	0x25
 4563 0fe1 15       		.uleb128 0x15
 4564 0fe2 01       		.byte	0x1
 4565 0fe3 50       		.byte	0x50
 4566 0fe4 02       		.byte	0x2
 4567 0fe5 75       		.byte	0x75
 4568 0fe6 7F       		.sleb128 -1
 4569 0fe7 00       		.byte	0
 4570 0fe8 16       		.uleb128 0x16
 4571 0fe9 20000000 		.4byte	.LVL209
 4572 0fed FB020000 		.4byte	0x2fb
 4573 0ff1 15       		.uleb128 0x15
 4574 0ff2 01       		.byte	0x1
 4575 0ff3 51       		.byte	0x51
 4576 0ff4 02       		.byte	0x2
 4577 0ff5 74       		.byte	0x74
 4578 0ff6 00       		.sleb128 0
 4579 0ff7 15       		.uleb128 0x15
 4580 0ff8 01       		.byte	0x1
 4581 0ff9 50       		.byte	0x50
 4582 0ffa 02       		.byte	0x2
 4583 0ffb 75       		.byte	0x75
 4584 0ffc 00       		.sleb128 0
 4585 0ffd 00       		.byte	0
 4586 0ffe 00       		.byte	0
 4587 0fff 19       		.uleb128 0x19
 4588 1000 01       		.byte	0x1
 4589 1001 17000000 		.4byte	.LASF67
 4590 1005 01       		.byte	0x1
 4591 1006 3C02     		.2byte	0x23c
 4592 1008 01       		.byte	0x1
 4593 1009 00000000 		.4byte	.LFB69
 4594 100d 14000000 		.4byte	.LFE69
 4595 1011 F90A0000 		.4byte	.LLST80
 4596 1015 01       		.byte	0x1
 4597 1016 42100000 		.4byte	0x1042
ARM GAS  C:\Users\atsu\AppData\Local\Temp\ccNplIXy.s 			page 97


 4598 101a 1D       		.uleb128 0x1d
 4599 101b 7300     		.ascii	"s\000"
 4600 101d 01       		.byte	0x1
 4601 101e 3C02     		.2byte	0x23c
 4602 1020 E2000000 		.4byte	0xe2
 4603 1024 190B0000 		.4byte	.LLST81
 4604 1028 1D       		.uleb128 0x1d
 4605 1029 74746C00 		.ascii	"ttl\000"
 4606 102d 01       		.byte	0x1
 4607 102e 3C02     		.2byte	0x23c
 4608 1030 7D000000 		.4byte	0x7d
 4609 1034 3A0B0000 		.4byte	.LLST82
 4610 1038 0D       		.uleb128 0xd
 4611 1039 0E000000 		.4byte	.LVL212
 4612 103d FB020000 		.4byte	0x2fb
 4613 1041 00       		.byte	0
 4614 1042 19       		.uleb128 0x19
 4615 1043 01       		.byte	0x1
 4616 1044 86020000 		.4byte	.LASF68
 4617 1048 01       		.byte	0x1
 4618 1049 4602     		.2byte	0x246
 4619 104b 01       		.byte	0x1
 4620 104c 00000000 		.4byte	.LFB70
 4621 1050 14000000 		.4byte	.LFE70
 4622 1054 5B0B0000 		.4byte	.LLST83
 4623 1058 01       		.byte	0x1
 4624 1059 85100000 		.4byte	0x1085
 4625 105d 1D       		.uleb128 0x1d
 4626 105e 7300     		.ascii	"s\000"
 4627 1060 01       		.byte	0x1
 4628 1061 4602     		.2byte	0x246
 4629 1063 E2000000 		.4byte	0xe2
 4630 1067 7B0B0000 		.4byte	.LLST84
 4631 106b 1A       		.uleb128 0x1a
 4632 106c 83010000 		.4byte	.LASF69
 4633 1070 01       		.byte	0x1
 4634 1071 4602     		.2byte	0x246
 4635 1073 7D000000 		.4byte	0x7d
 4636 1077 9C0B0000 		.4byte	.LLST85
 4637 107b 0D       		.uleb128 0xd
 4638 107c 0E000000 		.4byte	.LVL215
 4639 1080 FB020000 		.4byte	0x2fb
 4640 1084 00       		.byte	0
 4641 1085 1F       		.uleb128 0x1f
 4642 1086 01       		.byte	0x1
 4643 1087 D2010000 		.4byte	.LASF70
 4644 108b 01       		.byte	0x1
 4645 108c 5102     		.2byte	0x251
 4646 108e 01       		.byte	0x1
 4647 108f 7D000000 		.4byte	0x7d
 4648 1093 00000000 		.4byte	.LFB71
 4649 1097 14000000 		.4byte	.LFE71
 4650 109b BD0B0000 		.4byte	.LLST86
 4651 109f 01       		.byte	0x1
 4652 10a0 BC100000 		.4byte	0x10bc
 4653 10a4 1D       		.uleb128 0x1d
 4654 10a5 7300     		.ascii	"s\000"
ARM GAS  C:\Users\atsu\AppData\Local\Temp\ccNplIXy.s 			page 98


 4655 10a7 01       		.byte	0x1
 4656 10a8 5102     		.2byte	0x251
 4657 10aa E2000000 		.4byte	0xe2
 4658 10ae DD0B0000 		.4byte	.LLST87
 4659 10b2 0D       		.uleb128 0xd
 4660 10b3 0E000000 		.4byte	.LVL218
 4661 10b7 AC030000 		.4byte	0x3ac
 4662 10bb 00       		.byte	0
 4663 10bc 1F       		.uleb128 0x1f
 4664 10bd 01       		.byte	0x1
 4665 10be 05040000 		.4byte	.LASF71
 4666 10c2 01       		.byte	0x1
 4667 10c3 5A02     		.2byte	0x25a
 4668 10c5 01       		.byte	0x1
 4669 10c6 7D000000 		.4byte	0x7d
 4670 10ca 00000000 		.4byte	.LFB72
 4671 10ce 14000000 		.4byte	.LFE72
 4672 10d2 FE0B0000 		.4byte	.LLST88
 4673 10d6 01       		.byte	0x1
 4674 10d7 F3100000 		.4byte	0x10f3
 4675 10db 1D       		.uleb128 0x1d
 4676 10dc 7300     		.ascii	"s\000"
 4677 10de 01       		.byte	0x1
 4678 10df 5A02     		.2byte	0x25a
 4679 10e1 E2000000 		.4byte	0xe2
 4680 10e5 1E0C0000 		.4byte	.LLST89
 4681 10e9 0D       		.uleb128 0xd
 4682 10ea 0E000000 		.4byte	.LVL221
 4683 10ee AC030000 		.4byte	0x3ac
 4684 10f2 00       		.byte	0
 4685 10f3 1F       		.uleb128 0x1f
 4686 10f4 01       		.byte	0x1
 4687 10f5 53030000 		.4byte	.LASF72
 4688 10f9 01       		.byte	0x1
 4689 10fa 6602     		.2byte	0x266
 4690 10fc 01       		.byte	0x1
 4691 10fd 88000000 		.4byte	0x88
 4692 1101 00000000 		.4byte	.LFB73
 4693 1105 48000000 		.4byte	.LFE73
 4694 1109 3F0C0000 		.4byte	.LLST90
 4695 110d 01       		.byte	0x1
 4696 110e 8D110000 		.4byte	0x118d
 4697 1112 1D       		.uleb128 0x1d
 4698 1113 7300     		.ascii	"s\000"
 4699 1115 01       		.byte	0x1
 4700 1116 6602     		.2byte	0x266
 4701 1118 E2000000 		.4byte	0xe2
 4702 111c 5F0C0000 		.4byte	.LLST91
 4703 1120 1B       		.uleb128 0x1b
 4704 1121 76616C00 		.ascii	"val\000"
 4705 1125 01       		.byte	0x1
 4706 1126 6802     		.2byte	0x268
 4707 1128 88000000 		.4byte	0x88
 4708 112c 800C0000 		.4byte	.LLST92
 4709 1130 1C       		.uleb128 0x1c
 4710 1131 22040000 		.4byte	.LASF73
 4711 1135 01       		.byte	0x1
ARM GAS  C:\Users\atsu\AppData\Local\Temp\ccNplIXy.s 			page 99


 4712 1136 6802     		.2byte	0x268
 4713 1138 88000000 		.4byte	0x88
 4714 113c C50C0000 		.4byte	.LLST93
 4715 1140 14       		.uleb128 0x14
 4716 1141 1A000000 		.4byte	.LVL225
 4717 1145 AC030000 		.4byte	0x3ac
 4718 1149 54110000 		.4byte	0x1154
 4719 114d 15       		.uleb128 0x15
 4720 114e 01       		.byte	0x1
 4721 114f 50       		.byte	0x50
 4722 1150 02       		.byte	0x2
 4723 1151 76       		.byte	0x76
 4724 1152 00       		.sleb128 0
 4725 1153 00       		.byte	0
 4726 1154 14       		.uleb128 0x14
 4727 1155 22000000 		.4byte	.LVL227
 4728 1159 AC030000 		.4byte	0x3ac
 4729 115d 68110000 		.4byte	0x1168
 4730 1161 15       		.uleb128 0x15
 4731 1162 01       		.byte	0x1
 4732 1163 50       		.byte	0x50
 4733 1164 02       		.byte	0x2
 4734 1165 77       		.byte	0x77
 4735 1166 00       		.sleb128 0
 4736 1167 00       		.byte	0
 4737 1168 14       		.uleb128 0x14
 4738 1169 32000000 		.4byte	.LVL229
 4739 116d AC030000 		.4byte	0x3ac
 4740 1171 7C110000 		.4byte	0x117c
 4741 1175 15       		.uleb128 0x15
 4742 1176 01       		.byte	0x1
 4743 1177 50       		.byte	0x50
 4744 1178 02       		.byte	0x2
 4745 1179 76       		.byte	0x76
 4746 117a 00       		.sleb128 0
 4747 117b 00       		.byte	0
 4748 117c 16       		.uleb128 0x16
 4749 117d 3A000000 		.4byte	.LVL231
 4750 1181 AC030000 		.4byte	0x3ac
 4751 1185 15       		.uleb128 0x15
 4752 1186 01       		.byte	0x1
 4753 1187 50       		.byte	0x50
 4754 1188 02       		.byte	0x2
 4755 1189 77       		.byte	0x77
 4756 118a 00       		.sleb128 0
 4757 118b 00       		.byte	0
 4758 118c 00       		.byte	0
 4759 118d 1F       		.uleb128 0x1f
 4760 118e 01       		.byte	0x1
 4761 118f 37040000 		.4byte	.LASF74
 4762 1193 01       		.byte	0x1
 4763 1194 7C02     		.2byte	0x27c
 4764 1196 01       		.byte	0x1
 4765 1197 88000000 		.4byte	0x88
 4766 119b 00000000 		.4byte	.LFB74
 4767 119f 48000000 		.4byte	.LFE74
 4768 11a3 FF0C0000 		.4byte	.LLST94
ARM GAS  C:\Users\atsu\AppData\Local\Temp\ccNplIXy.s 			page 100


 4769 11a7 01       		.byte	0x1
 4770 11a8 27120000 		.4byte	0x1227
 4771 11ac 1D       		.uleb128 0x1d
 4772 11ad 7300     		.ascii	"s\000"
 4773 11af 01       		.byte	0x1
 4774 11b0 7C02     		.2byte	0x27c
 4775 11b2 E2000000 		.4byte	0xe2
 4776 11b6 1F0D0000 		.4byte	.LLST95
 4777 11ba 1B       		.uleb128 0x1b
 4778 11bb 76616C00 		.ascii	"val\000"
 4779 11bf 01       		.byte	0x1
 4780 11c0 7E02     		.2byte	0x27e
 4781 11c2 88000000 		.4byte	0x88
 4782 11c6 400D0000 		.4byte	.LLST96
 4783 11ca 1C       		.uleb128 0x1c
 4784 11cb 22040000 		.4byte	.LASF73
 4785 11cf 01       		.byte	0x1
 4786 11d0 7E02     		.2byte	0x27e
 4787 11d2 88000000 		.4byte	0x88
 4788 11d6 850D0000 		.4byte	.LLST97
 4789 11da 14       		.uleb128 0x14
 4790 11db 1A000000 		.4byte	.LVL238
 4791 11df AC030000 		.4byte	0x3ac
 4792 11e3 EE110000 		.4byte	0x11ee
 4793 11e7 15       		.uleb128 0x15
 4794 11e8 01       		.byte	0x1
 4795 11e9 50       		.byte	0x50
 4796 11ea 02       		.byte	0x2
 4797 11eb 76       		.byte	0x76
 4798 11ec 00       		.sleb128 0
 4799 11ed 00       		.byte	0
 4800 11ee 14       		.uleb128 0x14
 4801 11ef 22000000 		.4byte	.LVL240
 4802 11f3 AC030000 		.4byte	0x3ac
 4803 11f7 02120000 		.4byte	0x1202
 4804 11fb 15       		.uleb128 0x15
 4805 11fc 01       		.byte	0x1
 4806 11fd 50       		.byte	0x50
 4807 11fe 02       		.byte	0x2
 4808 11ff 77       		.byte	0x77
 4809 1200 00       		.sleb128 0
 4810 1201 00       		.byte	0
 4811 1202 14       		.uleb128 0x14
 4812 1203 32000000 		.4byte	.LVL242
 4813 1207 AC030000 		.4byte	0x3ac
 4814 120b 16120000 		.4byte	0x1216
 4815 120f 15       		.uleb128 0x15
 4816 1210 01       		.byte	0x1
 4817 1211 50       		.byte	0x50
 4818 1212 02       		.byte	0x2
 4819 1213 76       		.byte	0x76
 4820 1214 00       		.sleb128 0
 4821 1215 00       		.byte	0
 4822 1216 16       		.uleb128 0x16
 4823 1217 3A000000 		.4byte	.LVL244
 4824 121b AC030000 		.4byte	0x3ac
 4825 121f 15       		.uleb128 0x15
ARM GAS  C:\Users\atsu\AppData\Local\Temp\ccNplIXy.s 			page 101


 4826 1220 01       		.byte	0x1
 4827 1221 50       		.byte	0x50
 4828 1222 02       		.byte	0x2
 4829 1223 77       		.byte	0x77
 4830 1224 00       		.sleb128 0
 4831 1225 00       		.byte	0
 4832 1226 00       		.byte	0
 4833 1227 19       		.uleb128 0x19
 4834 1228 01       		.byte	0x1
 4835 1229 15010000 		.4byte	.LASF75
 4836 122d 01       		.byte	0x1
 4837 122e BD02     		.2byte	0x2bd
 4838 1230 01       		.byte	0x1
 4839 1231 00000000 		.4byte	.LFB77
 4840 1235 44000000 		.4byte	.LFE77
 4841 1239 BF0D0000 		.4byte	.LLST98
 4842 123d 01       		.byte	0x1
 4843 123e 0C130000 		.4byte	0x130c
 4844 1242 1D       		.uleb128 0x1d
 4845 1243 7300     		.ascii	"s\000"
 4846 1245 01       		.byte	0x1
 4847 1246 BD02     		.2byte	0x2bd
 4848 1248 E2000000 		.4byte	0xe2
 4849 124c DF0D0000 		.4byte	.LLST99
 4850 1250 1D       		.uleb128 0x1d
 4851 1251 73726300 		.ascii	"src\000"
 4852 1255 01       		.byte	0x1
 4853 1256 BD02     		.2byte	0x2bd
 4854 1258 0C130000 		.4byte	0x130c
 4855 125c 000E0000 		.4byte	.LLST100
 4856 1260 1D       		.uleb128 0x1d
 4857 1261 64737400 		.ascii	"dst\000"
 4858 1265 01       		.byte	0x1
 4859 1266 BD02     		.2byte	0x2bd
 4860 1268 0C130000 		.4byte	0x130c
 4861 126c 520E0000 		.4byte	.LLST101
 4862 1270 1D       		.uleb128 0x1d
 4863 1271 6C656E00 		.ascii	"len\000"
 4864 1275 01       		.byte	0x1
 4865 1276 BD02     		.2byte	0x2bd
 4866 1278 88000000 		.4byte	0x88
 4867 127c 730E0000 		.4byte	.LLST102
 4868 1280 1C       		.uleb128 0x1c
 4869 1281 C7030000 		.4byte	.LASF76
 4870 1285 01       		.byte	0x1
 4871 1286 BF02     		.2byte	0x2bf
 4872 1288 88000000 		.4byte	0x88
 4873 128c 940E0000 		.4byte	.LLST103
 4874 1290 1C       		.uleb128 0x1c
 4875 1291 6A020000 		.4byte	.LASF77
 4876 1295 01       		.byte	0x1
 4877 1296 C002     		.2byte	0x2c0
 4878 1298 88000000 		.4byte	0x88
 4879 129c C20E0000 		.4byte	.LLST104
 4880 12a0 1C       		.uleb128 0x1c
 4881 12a1 2A030000 		.4byte	.LASF78
 4882 12a5 01       		.byte	0x1
ARM GAS  C:\Users\atsu\AppData\Local\Temp\ccNplIXy.s 			page 102


 4883 12a6 C102     		.2byte	0x2c1
 4884 12a8 ED000000 		.4byte	0xed
 4885 12ac F70E0000 		.4byte	.LLST105
 4886 12b0 20       		.uleb128 0x20
 4887 12b1 F3000000 		.4byte	0xf3
 4888 12b5 02000000 		.4byte	.LBB22
 4889 12b9 08000000 		.4byte	.LBE22
 4890 12bd 01       		.byte	0x1
 4891 12be C302     		.2byte	0x2c3
 4892 12c0 CE120000 		.4byte	0x12ce
 4893 12c4 13       		.uleb128 0x13
 4894 12c5 05010000 		.4byte	0x105
 4895 12c9 7A0F0000 		.4byte	.LLST106
 4896 12cd 00       		.byte	0
 4897 12ce 20       		.uleb128 0x20
 4898 12cf 2B010000 		.4byte	0x12b
 4899 12d3 10000000 		.4byte	.LBB24
 4900 12d7 12000000 		.4byte	.LBE24
 4901 12db 01       		.byte	0x1
 4902 12dc C602     		.2byte	0x2c6
 4903 12de E8120000 		.4byte	0x12e8
 4904 12e2 21       		.uleb128 0x21
 4905 12e3 3D010000 		.4byte	0x13d
 4906 12e7 00       		.byte	0
 4907 12e8 14       		.uleb128 0x14
 4908 12e9 2A000000 		.4byte	.LVL258
 4909 12ed 5B040000 		.4byte	0x45b
 4910 12f1 02130000 		.4byte	0x1302
 4911 12f5 15       		.uleb128 0x15
 4912 12f6 01       		.byte	0x1
 4913 12f7 52       		.byte	0x52
 4914 12f8 02       		.byte	0x2
 4915 12f9 77       		.byte	0x77
 4916 12fa 00       		.sleb128 0
 4917 12fb 15       		.uleb128 0x15
 4918 12fc 01       		.byte	0x1
 4919 12fd 51       		.byte	0x51
 4920 12fe 02       		.byte	0x2
 4921 12ff 76       		.byte	0x76
 4922 1300 00       		.sleb128 0
 4923 1301 00       		.byte	0
 4924 1302 0D       		.uleb128 0xd
 4925 1303 3C000000 		.4byte	.LVL263
 4926 1307 5B040000 		.4byte	0x45b
 4927 130b 00       		.byte	0
 4928 130c 08       		.uleb128 0x8
 4929 130d 04       		.byte	0x4
 4930 130e C2000000 		.4byte	0xc2
 4931 1312 19       		.uleb128 0x19
 4932 1313 01       		.byte	0x1
 4933 1314 D9000000 		.4byte	.LASF79
 4934 1318 01       		.byte	0x1
 4935 1319 9302     		.2byte	0x293
 4936 131b 01       		.byte	0x1
 4937 131c 00000000 		.4byte	.LFB75
 4938 1320 50000000 		.4byte	.LFE75
 4939 1324 8D0F0000 		.4byte	.LLST107
ARM GAS  C:\Users\atsu\AppData\Local\Temp\ccNplIXy.s 			page 103


 4940 1328 01       		.byte	0x1
 4941 1329 EF130000 		.4byte	0x13ef
 4942 132d 1D       		.uleb128 0x1d
 4943 132e 7300     		.ascii	"s\000"
 4944 1330 01       		.byte	0x1
 4945 1331 9302     		.2byte	0x293
 4946 1333 E2000000 		.4byte	0xe2
 4947 1337 AD0F0000 		.4byte	.LLST108
 4948 133b 1A       		.uleb128 0x1a
 4949 133c 0F030000 		.4byte	.LASF31
 4950 1340 01       		.byte	0x1
 4951 1341 9302     		.2byte	0x293
 4952 1343 ED000000 		.4byte	0xed
 4953 1347 CE0F0000 		.4byte	.LLST109
 4954 134b 1D       		.uleb128 0x1d
 4955 134c 6C656E00 		.ascii	"len\000"
 4956 1350 01       		.byte	0x1
 4957 1351 9302     		.2byte	0x293
 4958 1353 88000000 		.4byte	0x88
 4959 1357 ED0F0000 		.4byte	.LLST110
 4960 135b 1B       		.uleb128 0x1b
 4961 135c 70747200 		.ascii	"ptr\000"
 4962 1360 01       		.byte	0x1
 4963 1361 9502     		.2byte	0x295
 4964 1363 88000000 		.4byte	0x88
 4965 1367 0E100000 		.4byte	.LLST111
 4966 136b 14       		.uleb128 0x14
 4967 136c 1A000000 		.4byte	.LVL266
 4968 1370 AC030000 		.4byte	0x3ac
 4969 1374 7F130000 		.4byte	0x137f
 4970 1378 15       		.uleb128 0x15
 4971 1379 01       		.byte	0x1
 4972 137a 50       		.byte	0x50
 4973 137b 02       		.byte	0x2
 4974 137c 75       		.byte	0x75
 4975 137d 00       		.sleb128 0
 4976 137e 00       		.byte	0
 4977 137f 14       		.uleb128 0x14
 4978 1380 26000000 		.4byte	.LVL269
 4979 1384 AC030000 		.4byte	0x3ac
 4980 1388 93130000 		.4byte	0x1393
 4981 138c 15       		.uleb128 0x15
 4982 138d 01       		.byte	0x1
 4983 138e 50       		.byte	0x50
 4984 138f 02       		.byte	0x2
 4985 1390 74       		.byte	0x74
 4986 1391 00       		.sleb128 0
 4987 1392 00       		.byte	0
 4988 1393 14       		.uleb128 0x14
 4989 1394 38000000 		.4byte	.LVL271
 4990 1398 27120000 		.4byte	0x1227
 4991 139c BC130000 		.4byte	0x13bc
 4992 13a0 15       		.uleb128 0x15
 4993 13a1 01       		.byte	0x1
 4994 13a2 53       		.byte	0x53
 4995 13a3 04       		.byte	0x4
 4996 13a4 91       		.byte	0x91
ARM GAS  C:\Users\atsu\AppData\Local\Temp\ccNplIXy.s 			page 104


 4997 13a5 60       		.sleb128 -32
 4998 13a6 94       		.byte	0x94
 4999 13a7 02       		.byte	0x2
 5000 13a8 15       		.uleb128 0x15
 5001 13a9 01       		.byte	0x1
 5002 13aa 52       		.byte	0x52
 5003 13ab 02       		.byte	0x2
 5004 13ac 76       		.byte	0x76
 5005 13ad 00       		.sleb128 0
 5006 13ae 15       		.uleb128 0x15
 5007 13af 01       		.byte	0x1
 5008 13b0 51       		.byte	0x51
 5009 13b1 03       		.byte	0x3
 5010 13b2 91       		.byte	0x91
 5011 13b3 64       		.sleb128 -28
 5012 13b4 06       		.byte	0x6
 5013 13b5 15       		.uleb128 0x15
 5014 13b6 01       		.byte	0x1
 5015 13b7 50       		.byte	0x50
 5016 13b8 02       		.byte	0x2
 5017 13b9 77       		.byte	0x77
 5018 13ba 00       		.sleb128 0
 5019 13bb 00       		.byte	0
 5020 13bc 14       		.uleb128 0x14
 5021 13bd 46000000 		.4byte	.LVL273
 5022 13c1 FB020000 		.4byte	0x2fb
 5023 13c5 D8130000 		.4byte	0x13d8
 5024 13c9 15       		.uleb128 0x15
 5025 13ca 01       		.byte	0x1
 5026 13cb 51       		.byte	0x51
 5027 13cc 04       		.byte	0x4
 5028 13cd 76       		.byte	0x76
 5029 13ce 00       		.sleb128 0
 5030 13cf 38       		.byte	0x38
 5031 13d0 25       		.byte	0x25
 5032 13d1 15       		.uleb128 0x15
 5033 13d2 01       		.byte	0x1
 5034 13d3 50       		.byte	0x50
 5035 13d4 02       		.byte	0x2
 5036 13d5 75       		.byte	0x75
 5037 13d6 00       		.sleb128 0
 5038 13d7 00       		.byte	0
 5039 13d8 16       		.uleb128 0x16
 5040 13d9 4E000000 		.4byte	.LVL274
 5041 13dd FB020000 		.4byte	0x2fb
 5042 13e1 15       		.uleb128 0x15
 5043 13e2 01       		.byte	0x1
 5044 13e3 51       		.byte	0x51
 5045 13e4 02       		.byte	0x2
 5046 13e5 76       		.byte	0x76
 5047 13e6 00       		.sleb128 0
 5048 13e7 15       		.uleb128 0x15
 5049 13e8 01       		.byte	0x1
 5050 13e9 50       		.byte	0x50
 5051 13ea 02       		.byte	0x2
 5052 13eb 74       		.byte	0x74
 5053 13ec 00       		.sleb128 0
ARM GAS  C:\Users\atsu\AppData\Local\Temp\ccNplIXy.s 			page 105


 5054 13ed 00       		.byte	0
 5055 13ee 00       		.byte	0
 5056 13ef 19       		.uleb128 0x19
 5057 13f0 01       		.byte	0x1
 5058 13f1 EE000000 		.4byte	.LASF80
 5059 13f5 01       		.byte	0x1
 5060 13f6 DD02     		.2byte	0x2dd
 5061 13f8 01       		.byte	0x1
 5062 13f9 00000000 		.4byte	.LFB78
 5063 13fd 44000000 		.4byte	.LFE78
 5064 1401 57100000 		.4byte	.LLST112
 5065 1405 01       		.byte	0x1
 5066 1406 D4140000 		.4byte	0x14d4
 5067 140a 1D       		.uleb128 0x1d
 5068 140b 7300     		.ascii	"s\000"
 5069 140d 01       		.byte	0x1
 5070 140e DD02     		.2byte	0x2dd
 5071 1410 E2000000 		.4byte	0xe2
 5072 1414 77100000 		.4byte	.LLST113
 5073 1418 1D       		.uleb128 0x1d
 5074 1419 73726300 		.ascii	"src\000"
 5075 141d 01       		.byte	0x1
 5076 141e DD02     		.2byte	0x2dd
 5077 1420 0C130000 		.4byte	0x130c
 5078 1424 98100000 		.4byte	.LLST114
 5079 1428 1D       		.uleb128 0x1d
 5080 1429 64737400 		.ascii	"dst\000"
 5081 142d 01       		.byte	0x1
 5082 142e DD02     		.2byte	0x2dd
 5083 1430 0C130000 		.4byte	0x130c
 5084 1434 B9100000 		.4byte	.LLST115
 5085 1438 1D       		.uleb128 0x1d
 5086 1439 6C656E00 		.ascii	"len\000"
 5087 143d 01       		.byte	0x1
 5088 143e DD02     		.2byte	0x2dd
 5089 1440 88000000 		.4byte	0x88
 5090 1444 0B110000 		.4byte	.LLST116
 5091 1448 1C       		.uleb128 0x1c
 5092 1449 C7030000 		.4byte	.LASF76
 5093 144d 01       		.byte	0x1
 5094 144e DF02     		.2byte	0x2df
 5095 1450 88000000 		.4byte	0x88
 5096 1454 2C110000 		.4byte	.LLST117
 5097 1458 1C       		.uleb128 0x1c
 5098 1459 D6030000 		.4byte	.LASF81
 5099 145d 01       		.byte	0x1
 5100 145e E002     		.2byte	0x2e0
 5101 1460 88000000 		.4byte	0x88
 5102 1464 65110000 		.4byte	.LLST118
 5103 1468 1C       		.uleb128 0x1c
 5104 1469 27040000 		.4byte	.LASF82
 5105 146d 01       		.byte	0x1
 5106 146e E102     		.2byte	0x2e1
 5107 1470 ED000000 		.4byte	0xed
 5108 1474 B1110000 		.4byte	.LLST119
 5109 1478 20       		.uleb128 0x20
 5110 1479 47010000 		.4byte	0x147
ARM GAS  C:\Users\atsu\AppData\Local\Temp\ccNplIXy.s 			page 106


 5111 147d 02000000 		.4byte	.LBB26
 5112 1481 08000000 		.4byte	.LBE26
 5113 1485 01       		.byte	0x1
 5114 1486 E302     		.2byte	0x2e3
 5115 1488 96140000 		.4byte	0x1496
 5116 148c 13       		.uleb128 0x13
 5117 148d 59010000 		.4byte	0x159
 5118 1491 38120000 		.4byte	.LLST120
 5119 1495 00       		.byte	0
 5120 1496 20       		.uleb128 0x20
 5121 1497 7F010000 		.4byte	0x17f
 5122 149b 10000000 		.4byte	.LBB28
 5123 149f 12000000 		.4byte	.LBE28
 5124 14a3 01       		.byte	0x1
 5125 14a4 E602     		.2byte	0x2e6
 5126 14a6 B0140000 		.4byte	0x14b0
 5127 14aa 21       		.uleb128 0x21
 5128 14ab 91010000 		.4byte	0x191
 5129 14af 00       		.byte	0
 5130 14b0 14       		.uleb128 0x14
 5131 14b1 2A000000 		.4byte	.LVL287
 5132 14b5 1F050000 		.4byte	0x51f
 5133 14b9 CA140000 		.4byte	0x14ca
 5134 14bd 15       		.uleb128 0x15
 5135 14be 01       		.byte	0x1
 5136 14bf 52       		.byte	0x52
 5137 14c0 02       		.byte	0x2
 5138 14c1 77       		.byte	0x77
 5139 14c2 00       		.sleb128 0
 5140 14c3 15       		.uleb128 0x15
 5141 14c4 01       		.byte	0x1
 5142 14c5 51       		.byte	0x51
 5143 14c6 02       		.byte	0x2
 5144 14c7 76       		.byte	0x76
 5145 14c8 00       		.sleb128 0
 5146 14c9 00       		.byte	0
 5147 14ca 0D       		.uleb128 0xd
 5148 14cb 3C000000 		.4byte	.LVL292
 5149 14cf 1F050000 		.4byte	0x51f
 5150 14d3 00       		.byte	0
 5151 14d4 19       		.uleb128 0x19
 5152 14d5 01       		.byte	0x1
 5153 14d6 66000000 		.4byte	.LASF83
 5154 14da 01       		.byte	0x1
 5155 14db A602     		.2byte	0x2a6
 5156 14dd 01       		.byte	0x1
 5157 14de 00000000 		.4byte	.LFB76
 5158 14e2 50000000 		.4byte	.LFE76
 5159 14e6 4B120000 		.4byte	.LLST121
 5160 14ea 01       		.byte	0x1
 5161 14eb B1150000 		.4byte	0x15b1
 5162 14ef 1D       		.uleb128 0x1d
 5163 14f0 7300     		.ascii	"s\000"
 5164 14f2 01       		.byte	0x1
 5165 14f3 A602     		.2byte	0x2a6
 5166 14f5 E2000000 		.4byte	0xe2
 5167 14f9 6B120000 		.4byte	.LLST122
ARM GAS  C:\Users\atsu\AppData\Local\Temp\ccNplIXy.s 			page 107


 5168 14fd 1A       		.uleb128 0x1a
 5169 14fe 0F030000 		.4byte	.LASF31
 5170 1502 01       		.byte	0x1
 5171 1503 A602     		.2byte	0x2a6
 5172 1505 ED000000 		.4byte	0xed
 5173 1509 8C120000 		.4byte	.LLST123
 5174 150d 1D       		.uleb128 0x1d
 5175 150e 6C656E00 		.ascii	"len\000"
 5176 1512 01       		.byte	0x1
 5177 1513 A602     		.2byte	0x2a6
 5178 1515 88000000 		.4byte	0x88
 5179 1519 AB120000 		.4byte	.LLST124
 5180 151d 1B       		.uleb128 0x1b
 5181 151e 70747200 		.ascii	"ptr\000"
 5182 1522 01       		.byte	0x1
 5183 1523 A802     		.2byte	0x2a8
 5184 1525 88000000 		.4byte	0x88
 5185 1529 CC120000 		.4byte	.LLST125
 5186 152d 14       		.uleb128 0x14
 5187 152e 1A000000 		.4byte	.LVL295
 5188 1532 AC030000 		.4byte	0x3ac
 5189 1536 41150000 		.4byte	0x1541
 5190 153a 15       		.uleb128 0x15
 5191 153b 01       		.byte	0x1
 5192 153c 50       		.byte	0x50
 5193 153d 02       		.byte	0x2
 5194 153e 75       		.byte	0x75
 5195 153f 00       		.sleb128 0
 5196 1540 00       		.byte	0
 5197 1541 14       		.uleb128 0x14
 5198 1542 26000000 		.4byte	.LVL298
 5199 1546 AC030000 		.4byte	0x3ac
 5200 154a 55150000 		.4byte	0x1555
 5201 154e 15       		.uleb128 0x15
 5202 154f 01       		.byte	0x1
 5203 1550 50       		.byte	0x50
 5204 1551 02       		.byte	0x2
 5205 1552 74       		.byte	0x74
 5206 1553 00       		.sleb128 0
 5207 1554 00       		.byte	0
 5208 1555 14       		.uleb128 0x14
 5209 1556 38000000 		.4byte	.LVL301
 5210 155a EF130000 		.4byte	0x13ef
 5211 155e 7E150000 		.4byte	0x157e
 5212 1562 15       		.uleb128 0x15
 5213 1563 01       		.byte	0x1
 5214 1564 53       		.byte	0x53
 5215 1565 04       		.byte	0x4
 5216 1566 91       		.byte	0x91
 5217 1567 60       		.sleb128 -32
 5218 1568 94       		.byte	0x94
 5219 1569 02       		.byte	0x2
 5220 156a 15       		.uleb128 0x15
 5221 156b 01       		.byte	0x1
 5222 156c 52       		.byte	0x52
 5223 156d 03       		.byte	0x3
 5224 156e 91       		.byte	0x91
ARM GAS  C:\Users\atsu\AppData\Local\Temp\ccNplIXy.s 			page 108


 5225 156f 64       		.sleb128 -28
 5226 1570 06       		.byte	0x6
 5227 1571 15       		.uleb128 0x15
 5228 1572 01       		.byte	0x1
 5229 1573 51       		.byte	0x51
 5230 1574 02       		.byte	0x2
 5231 1575 76       		.byte	0x76
 5232 1576 00       		.sleb128 0
 5233 1577 15       		.uleb128 0x15
 5234 1578 01       		.byte	0x1
 5235 1579 50       		.byte	0x50
 5236 157a 02       		.byte	0x2
 5237 157b 77       		.byte	0x77
 5238 157c 00       		.sleb128 0
 5239 157d 00       		.byte	0
 5240 157e 14       		.uleb128 0x14
 5241 157f 46000000 		.4byte	.LVL303
 5242 1583 FB020000 		.4byte	0x2fb
 5243 1587 9A150000 		.4byte	0x159a
 5244 158b 15       		.uleb128 0x15
 5245 158c 01       		.byte	0x1
 5246 158d 51       		.byte	0x51
 5247 158e 04       		.byte	0x4
 5248 158f 76       		.byte	0x76
 5249 1590 00       		.sleb128 0
 5250 1591 38       		.byte	0x38
 5251 1592 25       		.byte	0x25
 5252 1593 15       		.uleb128 0x15
 5253 1594 01       		.byte	0x1
 5254 1595 50       		.byte	0x50
 5255 1596 02       		.byte	0x2
 5256 1597 75       		.byte	0x75
 5257 1598 00       		.sleb128 0
 5258 1599 00       		.byte	0
 5259 159a 16       		.uleb128 0x16
 5260 159b 4E000000 		.4byte	.LVL304
 5261 159f FB020000 		.4byte	0x2fb
 5262 15a3 15       		.uleb128 0x15
 5263 15a4 01       		.byte	0x1
 5264 15a5 51       		.byte	0x51
 5265 15a6 02       		.byte	0x2
 5266 15a7 76       		.byte	0x76
 5267 15a8 00       		.sleb128 0
 5268 15a9 15       		.uleb128 0x15
 5269 15aa 01       		.byte	0x1
 5270 15ab 50       		.byte	0x50
 5271 15ac 02       		.byte	0x2
 5272 15ad 74       		.byte	0x74
 5273 15ae 00       		.sleb128 0
 5274 15af 00       		.byte	0
 5275 15b0 00       		.byte	0
 5276 15b1 22       		.uleb128 0x22
 5277 15b2 DF030000 		.4byte	.LASF84
 5278 15b6 01       		.byte	0x1
 5279 15b7 35       		.byte	0x35
 5280 15b8 D2000000 		.4byte	0xd2
 5281 15bc 05       		.byte	0x5
ARM GAS  C:\Users\atsu\AppData\Local\Temp\ccNplIXy.s 			page 109


 5282 15bd 03       		.byte	0x3
 5283 15be 00000000 		.4byte	I_STATUS
 5284 15c2 06       		.uleb128 0x6
 5285 15c3 88000000 		.4byte	0x88
 5286 15c7 D2150000 		.4byte	0x15d2
 5287 15cb 07       		.uleb128 0x7
 5288 15cc 68000000 		.4byte	0x68
 5289 15d0 03       		.byte	0x3
 5290 15d1 00       		.byte	0
 5291 15d2 22       		.uleb128 0x22
 5292 15d3 21000000 		.4byte	.LASF85
 5293 15d7 01       		.byte	0x1
 5294 15d8 36       		.byte	0x36
 5295 15d9 C2150000 		.4byte	0x15c2
 5296 15dd 05       		.byte	0x5
 5297 15de 03       		.byte	0x3
 5298 15df 1C000000 		.4byte	SMASK
 5299 15e3 22       		.uleb128 0x22
 5300 15e4 09030000 		.4byte	.LASF86
 5301 15e8 01       		.byte	0x1
 5302 15e9 37       		.byte	0x37
 5303 15ea C2150000 		.4byte	0x15c2
 5304 15ee 05       		.byte	0x5
 5305 15ef 03       		.byte	0x3
 5306 15f0 14000000 		.4byte	RMASK
 5307 15f4 22       		.uleb128 0x22
 5308 15f5 DB010000 		.4byte	.LASF87
 5309 15f9 01       		.byte	0x1
 5310 15fa 38       		.byte	0x38
 5311 15fb C2150000 		.4byte	0x15c2
 5312 15ff 05       		.byte	0x5
 5313 1600 03       		.byte	0x3
 5314 1601 0C000000 		.4byte	SSIZE
 5315 1605 22       		.uleb128 0x22
 5316 1606 86000000 		.4byte	.LASF88
 5317 160a 01       		.byte	0x1
 5318 160b 39       		.byte	0x39
 5319 160c C2150000 		.4byte	0x15c2
 5320 1610 05       		.byte	0x5
 5321 1611 03       		.byte	0x3
 5322 1612 04000000 		.4byte	RSIZE
 5323 1616 22       		.uleb128 0x22
 5324 1617 2C000000 		.4byte	.LASF89
 5325 161b 01       		.byte	0x1
 5326 161c 3A       		.byte	0x3a
 5327 161d C2150000 		.4byte	0x15c2
 5328 1621 05       		.byte	0x5
 5329 1622 03       		.byte	0x3
 5330 1623 2C000000 		.4byte	SBUFBASEADDRESS
 5331 1627 22       		.uleb128 0x22
 5332 1628 6A040000 		.4byte	.LASF90
 5333 162c 01       		.byte	0x1
 5334 162d 3B       		.byte	0x3b
 5335 162e C2150000 		.4byte	0x15c2
 5336 1632 05       		.byte	0x5
 5337 1633 03       		.byte	0x3
 5338 1634 24000000 		.4byte	RBUFBASEADDRESS
ARM GAS  C:\Users\atsu\AppData\Local\Temp\ccNplIXy.s 			page 110


 5339 1638 23       		.uleb128 0x23
 5340 1639 01       		.byte	0x1
 5341 163a B0030000 		.4byte	.LASF93
 5342 163e 05       		.byte	0x5
 5343 163f 3B01     		.2byte	0x13b
 5344 1641 01       		.byte	0x1
 5345 1642 01       		.byte	0x1
 5346 1643 4D160000 		.4byte	0x164d
 5347 1647 24       		.uleb128 0x24
 5348 1648 93000000 		.4byte	0x93
 5349 164c 00       		.byte	0
 5350 164d 25       		.uleb128 0x25
 5351 164e 01       		.byte	0x1
 5352 164f 8C000000 		.4byte	.LASF91
 5353 1653 05       		.byte	0x5
 5354 1654 3501     		.2byte	0x135
 5355 1656 01       		.byte	0x1
 5356 1657 93000000 		.4byte	0x93
 5357 165b 01       		.byte	0x1
 5358 165c 25       		.uleb128 0x25
 5359 165d 01       		.byte	0x1
 5360 165e E7010000 		.4byte	.LASF92
 5361 1662 05       		.byte	0x5
 5362 1663 3401     		.2byte	0x134
 5363 1665 01       		.byte	0x1
 5364 1666 93000000 		.4byte	0x93
 5365 166a 01       		.byte	0x1
 5366 166b 26       		.uleb128 0x26
 5367 166c 01       		.byte	0x1
 5368 166d 26010000 		.4byte	.LASF94
 5369 1671 06       		.byte	0x6
 5370 1672 1D       		.byte	0x1d
 5371 1673 01       		.byte	0x1
 5372 1674 01       		.byte	0x1
 5373 1675 7F160000 		.4byte	0x167f
 5374 1679 24       		.uleb128 0x24
 5375 167a 7D000000 		.4byte	0x7d
 5376 167e 00       		.byte	0
 5377 167f 26       		.uleb128 0x26
 5378 1680 01       		.byte	0x1
 5379 1681 2F040000 		.4byte	.LASF95
 5380 1685 07       		.byte	0x7
 5381 1686 69       		.byte	0x69
 5382 1687 01       		.byte	0x1
 5383 1688 01       		.byte	0x1
 5384 1689 93160000 		.4byte	0x1693
 5385 168d 24       		.uleb128 0x24
 5386 168e 93000000 		.4byte	0x93
 5387 1692 00       		.byte	0
 5388 1693 27       		.uleb128 0x27
 5389 1694 01       		.byte	0x1
 5390 1695 FB030000 		.4byte	.LASF99
 5391 1699 08       		.byte	0x8
 5392 169a 6C       		.byte	0x6c
 5393 169b 01       		.byte	0x1
 5394 169c 01       		.byte	0x1
 5395 169d 00       		.byte	0
ARM GAS  C:\Users\atsu\AppData\Local\Temp\ccNplIXy.s 			page 111


 5396              		.section	.debug_abbrev,"",%progbits
 5397              	.Ldebug_abbrev0:
 5398 0000 01       		.uleb128 0x1
 5399 0001 11       		.uleb128 0x11
 5400 0002 01       		.byte	0x1
 5401 0003 25       		.uleb128 0x25
 5402 0004 0E       		.uleb128 0xe
 5403 0005 13       		.uleb128 0x13
 5404 0006 0B       		.uleb128 0xb
 5405 0007 03       		.uleb128 0x3
 5406 0008 0E       		.uleb128 0xe
 5407 0009 1B       		.uleb128 0x1b
 5408 000a 0E       		.uleb128 0xe
 5409 000b 55       		.uleb128 0x55
 5410 000c 06       		.uleb128 0x6
 5411 000d 11       		.uleb128 0x11
 5412 000e 01       		.uleb128 0x1
 5413 000f 52       		.uleb128 0x52
 5414 0010 01       		.uleb128 0x1
 5415 0011 10       		.uleb128 0x10
 5416 0012 06       		.uleb128 0x6
 5417 0013 00       		.byte	0
 5418 0014 00       		.byte	0
 5419 0015 02       		.uleb128 0x2
 5420 0016 24       		.uleb128 0x24
 5421 0017 00       		.byte	0
 5422 0018 0B       		.uleb128 0xb
 5423 0019 0B       		.uleb128 0xb
 5424 001a 3E       		.uleb128 0x3e
 5425 001b 0B       		.uleb128 0xb
 5426 001c 03       		.uleb128 0x3
 5427 001d 0E       		.uleb128 0xe
 5428 001e 00       		.byte	0
 5429 001f 00       		.byte	0
 5430 0020 03       		.uleb128 0x3
 5431 0021 24       		.uleb128 0x24
 5432 0022 00       		.byte	0
 5433 0023 0B       		.uleb128 0xb
 5434 0024 0B       		.uleb128 0xb
 5435 0025 3E       		.uleb128 0x3e
 5436 0026 0B       		.uleb128 0xb
 5437 0027 03       		.uleb128 0x3
 5438 0028 08       		.uleb128 0x8
 5439 0029 00       		.byte	0
 5440 002a 00       		.byte	0
 5441 002b 04       		.uleb128 0x4
 5442 002c 16       		.uleb128 0x16
 5443 002d 00       		.byte	0
 5444 002e 03       		.uleb128 0x3
 5445 002f 0E       		.uleb128 0xe
 5446 0030 3A       		.uleb128 0x3a
 5447 0031 0B       		.uleb128 0xb
 5448 0032 3B       		.uleb128 0x3b
 5449 0033 0B       		.uleb128 0xb
 5450 0034 49       		.uleb128 0x49
 5451 0035 13       		.uleb128 0x13
 5452 0036 00       		.byte	0
ARM GAS  C:\Users\atsu\AppData\Local\Temp\ccNplIXy.s 			page 112


 5453 0037 00       		.byte	0
 5454 0038 05       		.uleb128 0x5
 5455 0039 35       		.uleb128 0x35
 5456 003a 00       		.byte	0
 5457 003b 49       		.uleb128 0x49
 5458 003c 13       		.uleb128 0x13
 5459 003d 00       		.byte	0
 5460 003e 00       		.byte	0
 5461 003f 06       		.uleb128 0x6
 5462 0040 01       		.uleb128 0x1
 5463 0041 01       		.byte	0x1
 5464 0042 49       		.uleb128 0x49
 5465 0043 13       		.uleb128 0x13
 5466 0044 01       		.uleb128 0x1
 5467 0045 13       		.uleb128 0x13
 5468 0046 00       		.byte	0
 5469 0047 00       		.byte	0
 5470 0048 07       		.uleb128 0x7
 5471 0049 21       		.uleb128 0x21
 5472 004a 00       		.byte	0
 5473 004b 49       		.uleb128 0x49
 5474 004c 13       		.uleb128 0x13
 5475 004d 2F       		.uleb128 0x2f
 5476 004e 0B       		.uleb128 0xb
 5477 004f 00       		.byte	0
 5478 0050 00       		.byte	0
 5479 0051 08       		.uleb128 0x8
 5480 0052 0F       		.uleb128 0xf
 5481 0053 00       		.byte	0
 5482 0054 0B       		.uleb128 0xb
 5483 0055 0B       		.uleb128 0xb
 5484 0056 49       		.uleb128 0x49
 5485 0057 13       		.uleb128 0x13
 5486 0058 00       		.byte	0
 5487 0059 00       		.byte	0
 5488 005a 09       		.uleb128 0x9
 5489 005b 2E       		.uleb128 0x2e
 5490 005c 01       		.byte	0x1
 5491 005d 3F       		.uleb128 0x3f
 5492 005e 0C       		.uleb128 0xc
 5493 005f 03       		.uleb128 0x3
 5494 0060 0E       		.uleb128 0xe
 5495 0061 3A       		.uleb128 0x3a
 5496 0062 0B       		.uleb128 0xb
 5497 0063 3B       		.uleb128 0x3b
 5498 0064 0B       		.uleb128 0xb
 5499 0065 27       		.uleb128 0x27
 5500 0066 0C       		.uleb128 0xc
 5501 0067 49       		.uleb128 0x49
 5502 0068 13       		.uleb128 0x13
 5503 0069 20       		.uleb128 0x20
 5504 006a 0B       		.uleb128 0xb
 5505 006b 01       		.uleb128 0x1
 5506 006c 13       		.uleb128 0x13
 5507 006d 00       		.byte	0
 5508 006e 00       		.byte	0
 5509 006f 0A       		.uleb128 0xa
ARM GAS  C:\Users\atsu\AppData\Local\Temp\ccNplIXy.s 			page 113


 5510 0070 05       		.uleb128 0x5
 5511 0071 00       		.byte	0
 5512 0072 03       		.uleb128 0x3
 5513 0073 08       		.uleb128 0x8
 5514 0074 3A       		.uleb128 0x3a
 5515 0075 0B       		.uleb128 0xb
 5516 0076 3B       		.uleb128 0x3b
 5517 0077 0B       		.uleb128 0xb
 5518 0078 49       		.uleb128 0x49
 5519 0079 13       		.uleb128 0x13
 5520 007a 00       		.byte	0
 5521 007b 00       		.byte	0
 5522 007c 0B       		.uleb128 0xb
 5523 007d 2E       		.uleb128 0x2e
 5524 007e 01       		.byte	0x1
 5525 007f 3F       		.uleb128 0x3f
 5526 0080 0C       		.uleb128 0xc
 5527 0081 03       		.uleb128 0x3
 5528 0082 0E       		.uleb128 0xe
 5529 0083 3A       		.uleb128 0x3a
 5530 0084 0B       		.uleb128 0xb
 5531 0085 3B       		.uleb128 0x3b
 5532 0086 0B       		.uleb128 0xb
 5533 0087 27       		.uleb128 0x27
 5534 0088 0C       		.uleb128 0xc
 5535 0089 49       		.uleb128 0x49
 5536 008a 13       		.uleb128 0x13
 5537 008b 11       		.uleb128 0x11
 5538 008c 01       		.uleb128 0x1
 5539 008d 12       		.uleb128 0x12
 5540 008e 01       		.uleb128 0x1
 5541 008f 40       		.uleb128 0x40
 5542 0090 06       		.uleb128 0x6
 5543 0091 9742     		.uleb128 0x2117
 5544 0093 0C       		.uleb128 0xc
 5545 0094 01       		.uleb128 0x1
 5546 0095 13       		.uleb128 0x13
 5547 0096 00       		.byte	0
 5548 0097 00       		.byte	0
 5549 0098 0C       		.uleb128 0xc
 5550 0099 05       		.uleb128 0x5
 5551 009a 00       		.byte	0
 5552 009b 03       		.uleb128 0x3
 5553 009c 0E       		.uleb128 0xe
 5554 009d 3A       		.uleb128 0x3a
 5555 009e 0B       		.uleb128 0xb
 5556 009f 3B       		.uleb128 0x3b
 5557 00a0 0B       		.uleb128 0xb
 5558 00a1 49       		.uleb128 0x49
 5559 00a2 13       		.uleb128 0x13
 5560 00a3 02       		.uleb128 0x2
 5561 00a4 06       		.uleb128 0x6
 5562 00a5 00       		.byte	0
 5563 00a6 00       		.byte	0
 5564 00a7 0D       		.uleb128 0xd
 5565 00a8 898201   		.uleb128 0x4109
 5566 00ab 00       		.byte	0
ARM GAS  C:\Users\atsu\AppData\Local\Temp\ccNplIXy.s 			page 114


 5567 00ac 11       		.uleb128 0x11
 5568 00ad 01       		.uleb128 0x1
 5569 00ae 31       		.uleb128 0x31
 5570 00af 13       		.uleb128 0x13
 5571 00b0 00       		.byte	0
 5572 00b1 00       		.byte	0
 5573 00b2 0E       		.uleb128 0xe
 5574 00b3 2E       		.uleb128 0x2e
 5575 00b4 01       		.byte	0x1
 5576 00b5 3F       		.uleb128 0x3f
 5577 00b6 0C       		.uleb128 0xc
 5578 00b7 03       		.uleb128 0x3
 5579 00b8 0E       		.uleb128 0xe
 5580 00b9 3A       		.uleb128 0x3a
 5581 00ba 0B       		.uleb128 0xb
 5582 00bb 3B       		.uleb128 0x3b
 5583 00bc 0B       		.uleb128 0xb
 5584 00bd 27       		.uleb128 0x27
 5585 00be 0C       		.uleb128 0xc
 5586 00bf 49       		.uleb128 0x49
 5587 00c0 13       		.uleb128 0x13
 5588 00c1 11       		.uleb128 0x11
 5589 00c2 01       		.uleb128 0x1
 5590 00c3 12       		.uleb128 0x12
 5591 00c4 01       		.uleb128 0x1
 5592 00c5 40       		.uleb128 0x40
 5593 00c6 0A       		.uleb128 0xa
 5594 00c7 9742     		.uleb128 0x2117
 5595 00c9 0C       		.uleb128 0xc
 5596 00ca 01       		.uleb128 0x1
 5597 00cb 13       		.uleb128 0x13
 5598 00cc 00       		.byte	0
 5599 00cd 00       		.byte	0
 5600 00ce 0F       		.uleb128 0xf
 5601 00cf 05       		.uleb128 0x5
 5602 00d0 00       		.byte	0
 5603 00d1 03       		.uleb128 0x3
 5604 00d2 08       		.uleb128 0x8
 5605 00d3 3A       		.uleb128 0x3a
 5606 00d4 0B       		.uleb128 0xb
 5607 00d5 3B       		.uleb128 0x3b
 5608 00d6 0B       		.uleb128 0xb
 5609 00d7 49       		.uleb128 0x49
 5610 00d8 13       		.uleb128 0x13
 5611 00d9 02       		.uleb128 0x2
 5612 00da 06       		.uleb128 0x6
 5613 00db 00       		.byte	0
 5614 00dc 00       		.byte	0
 5615 00dd 10       		.uleb128 0x10
 5616 00de 2E       		.uleb128 0x2e
 5617 00df 01       		.byte	0x1
 5618 00e0 3F       		.uleb128 0x3f
 5619 00e1 0C       		.uleb128 0xc
 5620 00e2 03       		.uleb128 0x3
 5621 00e3 0E       		.uleb128 0xe
 5622 00e4 3A       		.uleb128 0x3a
 5623 00e5 0B       		.uleb128 0xb
ARM GAS  C:\Users\atsu\AppData\Local\Temp\ccNplIXy.s 			page 115


 5624 00e6 3B       		.uleb128 0x3b
 5625 00e7 0B       		.uleb128 0xb
 5626 00e8 27       		.uleb128 0x27
 5627 00e9 0C       		.uleb128 0xc
 5628 00ea 11       		.uleb128 0x11
 5629 00eb 01       		.uleb128 0x1
 5630 00ec 12       		.uleb128 0x12
 5631 00ed 01       		.uleb128 0x1
 5632 00ee 40       		.uleb128 0x40
 5633 00ef 0A       		.uleb128 0xa
 5634 00f0 9742     		.uleb128 0x2117
 5635 00f2 0C       		.uleb128 0xc
 5636 00f3 01       		.uleb128 0x1
 5637 00f4 13       		.uleb128 0x13
 5638 00f5 00       		.byte	0
 5639 00f6 00       		.byte	0
 5640 00f7 11       		.uleb128 0x11
 5641 00f8 05       		.uleb128 0x5
 5642 00f9 00       		.byte	0
 5643 00fa 03       		.uleb128 0x3
 5644 00fb 08       		.uleb128 0x8
 5645 00fc 3A       		.uleb128 0x3a
 5646 00fd 0B       		.uleb128 0xb
 5647 00fe 3B       		.uleb128 0x3b
 5648 00ff 0B       		.uleb128 0xb
 5649 0100 49       		.uleb128 0x49
 5650 0101 13       		.uleb128 0x13
 5651 0102 02       		.uleb128 0x2
 5652 0103 0A       		.uleb128 0xa
 5653 0104 00       		.byte	0
 5654 0105 00       		.byte	0
 5655 0106 12       		.uleb128 0x12
 5656 0107 2E       		.uleb128 0x2e
 5657 0108 01       		.byte	0x1
 5658 0109 31       		.uleb128 0x31
 5659 010a 13       		.uleb128 0x13
 5660 010b 11       		.uleb128 0x11
 5661 010c 01       		.uleb128 0x1
 5662 010d 12       		.uleb128 0x12
 5663 010e 01       		.uleb128 0x1
 5664 010f 40       		.uleb128 0x40
 5665 0110 0A       		.uleb128 0xa
 5666 0111 9742     		.uleb128 0x2117
 5667 0113 0C       		.uleb128 0xc
 5668 0114 01       		.uleb128 0x1
 5669 0115 13       		.uleb128 0x13
 5670 0116 00       		.byte	0
 5671 0117 00       		.byte	0
 5672 0118 13       		.uleb128 0x13
 5673 0119 05       		.uleb128 0x5
 5674 011a 00       		.byte	0
 5675 011b 31       		.uleb128 0x31
 5676 011c 13       		.uleb128 0x13
 5677 011d 02       		.uleb128 0x2
 5678 011e 06       		.uleb128 0x6
 5679 011f 00       		.byte	0
 5680 0120 00       		.byte	0
ARM GAS  C:\Users\atsu\AppData\Local\Temp\ccNplIXy.s 			page 116


 5681 0121 14       		.uleb128 0x14
 5682 0122 898201   		.uleb128 0x4109
 5683 0125 01       		.byte	0x1
 5684 0126 11       		.uleb128 0x11
 5685 0127 01       		.uleb128 0x1
 5686 0128 31       		.uleb128 0x31
 5687 0129 13       		.uleb128 0x13
 5688 012a 01       		.uleb128 0x1
 5689 012b 13       		.uleb128 0x13
 5690 012c 00       		.byte	0
 5691 012d 00       		.byte	0
 5692 012e 15       		.uleb128 0x15
 5693 012f 8A8201   		.uleb128 0x410a
 5694 0132 00       		.byte	0
 5695 0133 02       		.uleb128 0x2
 5696 0134 0A       		.uleb128 0xa
 5697 0135 9142     		.uleb128 0x2111
 5698 0137 0A       		.uleb128 0xa
 5699 0138 00       		.byte	0
 5700 0139 00       		.byte	0
 5701 013a 16       		.uleb128 0x16
 5702 013b 898201   		.uleb128 0x4109
 5703 013e 01       		.byte	0x1
 5704 013f 11       		.uleb128 0x11
 5705 0140 01       		.uleb128 0x1
 5706 0141 31       		.uleb128 0x31
 5707 0142 13       		.uleb128 0x13
 5708 0143 00       		.byte	0
 5709 0144 00       		.byte	0
 5710 0145 17       		.uleb128 0x17
 5711 0146 34       		.uleb128 0x34
 5712 0147 00       		.byte	0
 5713 0148 03       		.uleb128 0x3
 5714 0149 0E       		.uleb128 0xe
 5715 014a 3A       		.uleb128 0x3a
 5716 014b 0B       		.uleb128 0xb
 5717 014c 3B       		.uleb128 0x3b
 5718 014d 0B       		.uleb128 0xb
 5719 014e 49       		.uleb128 0x49
 5720 014f 13       		.uleb128 0x13
 5721 0150 02       		.uleb128 0x2
 5722 0151 06       		.uleb128 0x6
 5723 0152 00       		.byte	0
 5724 0153 00       		.byte	0
 5725 0154 18       		.uleb128 0x18
 5726 0155 34       		.uleb128 0x34
 5727 0156 00       		.byte	0
 5728 0157 03       		.uleb128 0x3
 5729 0158 08       		.uleb128 0x8
 5730 0159 3A       		.uleb128 0x3a
 5731 015a 0B       		.uleb128 0xb
 5732 015b 3B       		.uleb128 0x3b
 5733 015c 0B       		.uleb128 0xb
 5734 015d 49       		.uleb128 0x49
 5735 015e 13       		.uleb128 0x13
 5736 015f 02       		.uleb128 0x2
 5737 0160 06       		.uleb128 0x6
ARM GAS  C:\Users\atsu\AppData\Local\Temp\ccNplIXy.s 			page 117


 5738 0161 00       		.byte	0
 5739 0162 00       		.byte	0
 5740 0163 19       		.uleb128 0x19
 5741 0164 2E       		.uleb128 0x2e
 5742 0165 01       		.byte	0x1
 5743 0166 3F       		.uleb128 0x3f
 5744 0167 0C       		.uleb128 0xc
 5745 0168 03       		.uleb128 0x3
 5746 0169 0E       		.uleb128 0xe
 5747 016a 3A       		.uleb128 0x3a
 5748 016b 0B       		.uleb128 0xb
 5749 016c 3B       		.uleb128 0x3b
 5750 016d 05       		.uleb128 0x5
 5751 016e 27       		.uleb128 0x27
 5752 016f 0C       		.uleb128 0xc
 5753 0170 11       		.uleb128 0x11
 5754 0171 01       		.uleb128 0x1
 5755 0172 12       		.uleb128 0x12
 5756 0173 01       		.uleb128 0x1
 5757 0174 40       		.uleb128 0x40
 5758 0175 06       		.uleb128 0x6
 5759 0176 9742     		.uleb128 0x2117
 5760 0178 0C       		.uleb128 0xc
 5761 0179 01       		.uleb128 0x1
 5762 017a 13       		.uleb128 0x13
 5763 017b 00       		.byte	0
 5764 017c 00       		.byte	0
 5765 017d 1A       		.uleb128 0x1a
 5766 017e 05       		.uleb128 0x5
 5767 017f 00       		.byte	0
 5768 0180 03       		.uleb128 0x3
 5769 0181 0E       		.uleb128 0xe
 5770 0182 3A       		.uleb128 0x3a
 5771 0183 0B       		.uleb128 0xb
 5772 0184 3B       		.uleb128 0x3b
 5773 0185 05       		.uleb128 0x5
 5774 0186 49       		.uleb128 0x49
 5775 0187 13       		.uleb128 0x13
 5776 0188 02       		.uleb128 0x2
 5777 0189 06       		.uleb128 0x6
 5778 018a 00       		.byte	0
 5779 018b 00       		.byte	0
 5780 018c 1B       		.uleb128 0x1b
 5781 018d 34       		.uleb128 0x34
 5782 018e 00       		.byte	0
 5783 018f 03       		.uleb128 0x3
 5784 0190 08       		.uleb128 0x8
 5785 0191 3A       		.uleb128 0x3a
 5786 0192 0B       		.uleb128 0xb
 5787 0193 3B       		.uleb128 0x3b
 5788 0194 05       		.uleb128 0x5
 5789 0195 49       		.uleb128 0x49
 5790 0196 13       		.uleb128 0x13
 5791 0197 02       		.uleb128 0x2
 5792 0198 06       		.uleb128 0x6
 5793 0199 00       		.byte	0
 5794 019a 00       		.byte	0
ARM GAS  C:\Users\atsu\AppData\Local\Temp\ccNplIXy.s 			page 118


 5795 019b 1C       		.uleb128 0x1c
 5796 019c 34       		.uleb128 0x34
 5797 019d 00       		.byte	0
 5798 019e 03       		.uleb128 0x3
 5799 019f 0E       		.uleb128 0xe
 5800 01a0 3A       		.uleb128 0x3a
 5801 01a1 0B       		.uleb128 0xb
 5802 01a2 3B       		.uleb128 0x3b
 5803 01a3 05       		.uleb128 0x5
 5804 01a4 49       		.uleb128 0x49
 5805 01a5 13       		.uleb128 0x13
 5806 01a6 02       		.uleb128 0x2
 5807 01a7 06       		.uleb128 0x6
 5808 01a8 00       		.byte	0
 5809 01a9 00       		.byte	0
 5810 01aa 1D       		.uleb128 0x1d
 5811 01ab 05       		.uleb128 0x5
 5812 01ac 00       		.byte	0
 5813 01ad 03       		.uleb128 0x3
 5814 01ae 08       		.uleb128 0x8
 5815 01af 3A       		.uleb128 0x3a
 5816 01b0 0B       		.uleb128 0xb
 5817 01b1 3B       		.uleb128 0x3b
 5818 01b2 05       		.uleb128 0x5
 5819 01b3 49       		.uleb128 0x49
 5820 01b4 13       		.uleb128 0x13
 5821 01b5 02       		.uleb128 0x2
 5822 01b6 06       		.uleb128 0x6
 5823 01b7 00       		.byte	0
 5824 01b8 00       		.byte	0
 5825 01b9 1E       		.uleb128 0x1e
 5826 01ba 2E       		.uleb128 0x2e
 5827 01bb 01       		.byte	0x1
 5828 01bc 3F       		.uleb128 0x3f
 5829 01bd 0C       		.uleb128 0xc
 5830 01be 03       		.uleb128 0x3
 5831 01bf 0E       		.uleb128 0xe
 5832 01c0 3A       		.uleb128 0x3a
 5833 01c1 0B       		.uleb128 0xb
 5834 01c2 3B       		.uleb128 0x3b
 5835 01c3 0B       		.uleb128 0xb
 5836 01c4 27       		.uleb128 0x27
 5837 01c5 0C       		.uleb128 0xc
 5838 01c6 11       		.uleb128 0x11
 5839 01c7 01       		.uleb128 0x1
 5840 01c8 12       		.uleb128 0x12
 5841 01c9 01       		.uleb128 0x1
 5842 01ca 40       		.uleb128 0x40
 5843 01cb 06       		.uleb128 0x6
 5844 01cc 9742     		.uleb128 0x2117
 5845 01ce 0C       		.uleb128 0xc
 5846 01cf 01       		.uleb128 0x1
 5847 01d0 13       		.uleb128 0x13
 5848 01d1 00       		.byte	0
 5849 01d2 00       		.byte	0
 5850 01d3 1F       		.uleb128 0x1f
 5851 01d4 2E       		.uleb128 0x2e
ARM GAS  C:\Users\atsu\AppData\Local\Temp\ccNplIXy.s 			page 119


 5852 01d5 01       		.byte	0x1
 5853 01d6 3F       		.uleb128 0x3f
 5854 01d7 0C       		.uleb128 0xc
 5855 01d8 03       		.uleb128 0x3
 5856 01d9 0E       		.uleb128 0xe
 5857 01da 3A       		.uleb128 0x3a
 5858 01db 0B       		.uleb128 0xb
 5859 01dc 3B       		.uleb128 0x3b
 5860 01dd 05       		.uleb128 0x5
 5861 01de 27       		.uleb128 0x27
 5862 01df 0C       		.uleb128 0xc
 5863 01e0 49       		.uleb128 0x49
 5864 01e1 13       		.uleb128 0x13
 5865 01e2 11       		.uleb128 0x11
 5866 01e3 01       		.uleb128 0x1
 5867 01e4 12       		.uleb128 0x12
 5868 01e5 01       		.uleb128 0x1
 5869 01e6 40       		.uleb128 0x40
 5870 01e7 06       		.uleb128 0x6
 5871 01e8 9742     		.uleb128 0x2117
 5872 01ea 0C       		.uleb128 0xc
 5873 01eb 01       		.uleb128 0x1
 5874 01ec 13       		.uleb128 0x13
 5875 01ed 00       		.byte	0
 5876 01ee 00       		.byte	0
 5877 01ef 20       		.uleb128 0x20
 5878 01f0 1D       		.uleb128 0x1d
 5879 01f1 01       		.byte	0x1
 5880 01f2 31       		.uleb128 0x31
 5881 01f3 13       		.uleb128 0x13
 5882 01f4 11       		.uleb128 0x11
 5883 01f5 01       		.uleb128 0x1
 5884 01f6 12       		.uleb128 0x12
 5885 01f7 01       		.uleb128 0x1
 5886 01f8 58       		.uleb128 0x58
 5887 01f9 0B       		.uleb128 0xb
 5888 01fa 59       		.uleb128 0x59
 5889 01fb 05       		.uleb128 0x5
 5890 01fc 01       		.uleb128 0x1
 5891 01fd 13       		.uleb128 0x13
 5892 01fe 00       		.byte	0
 5893 01ff 00       		.byte	0
 5894 0200 21       		.uleb128 0x21
 5895 0201 05       		.uleb128 0x5
 5896 0202 00       		.byte	0
 5897 0203 31       		.uleb128 0x31
 5898 0204 13       		.uleb128 0x13
 5899 0205 00       		.byte	0
 5900 0206 00       		.byte	0
 5901 0207 22       		.uleb128 0x22
 5902 0208 34       		.uleb128 0x34
 5903 0209 00       		.byte	0
 5904 020a 03       		.uleb128 0x3
 5905 020b 0E       		.uleb128 0xe
 5906 020c 3A       		.uleb128 0x3a
 5907 020d 0B       		.uleb128 0xb
 5908 020e 3B       		.uleb128 0x3b
ARM GAS  C:\Users\atsu\AppData\Local\Temp\ccNplIXy.s 			page 120


 5909 020f 0B       		.uleb128 0xb
 5910 0210 49       		.uleb128 0x49
 5911 0211 13       		.uleb128 0x13
 5912 0212 02       		.uleb128 0x2
 5913 0213 0A       		.uleb128 0xa
 5914 0214 00       		.byte	0
 5915 0215 00       		.byte	0
 5916 0216 23       		.uleb128 0x23
 5917 0217 2E       		.uleb128 0x2e
 5918 0218 01       		.byte	0x1
 5919 0219 3F       		.uleb128 0x3f
 5920 021a 0C       		.uleb128 0xc
 5921 021b 03       		.uleb128 0x3
 5922 021c 0E       		.uleb128 0xe
 5923 021d 3A       		.uleb128 0x3a
 5924 021e 0B       		.uleb128 0xb
 5925 021f 3B       		.uleb128 0x3b
 5926 0220 05       		.uleb128 0x5
 5927 0221 27       		.uleb128 0x27
 5928 0222 0C       		.uleb128 0xc
 5929 0223 3C       		.uleb128 0x3c
 5930 0224 0C       		.uleb128 0xc
 5931 0225 01       		.uleb128 0x1
 5932 0226 13       		.uleb128 0x13
 5933 0227 00       		.byte	0
 5934 0228 00       		.byte	0
 5935 0229 24       		.uleb128 0x24
 5936 022a 05       		.uleb128 0x5
 5937 022b 00       		.byte	0
 5938 022c 49       		.uleb128 0x49
 5939 022d 13       		.uleb128 0x13
 5940 022e 00       		.byte	0
 5941 022f 00       		.byte	0
 5942 0230 25       		.uleb128 0x25
 5943 0231 2E       		.uleb128 0x2e
 5944 0232 00       		.byte	0
 5945 0233 3F       		.uleb128 0x3f
 5946 0234 0C       		.uleb128 0xc
 5947 0235 03       		.uleb128 0x3
 5948 0236 0E       		.uleb128 0xe
 5949 0237 3A       		.uleb128 0x3a
 5950 0238 0B       		.uleb128 0xb
 5951 0239 3B       		.uleb128 0x3b
 5952 023a 05       		.uleb128 0x5
 5953 023b 27       		.uleb128 0x27
 5954 023c 0C       		.uleb128 0xc
 5955 023d 49       		.uleb128 0x49
 5956 023e 13       		.uleb128 0x13
 5957 023f 3C       		.uleb128 0x3c
 5958 0240 0C       		.uleb128 0xc
 5959 0241 00       		.byte	0
 5960 0242 00       		.byte	0
 5961 0243 26       		.uleb128 0x26
 5962 0244 2E       		.uleb128 0x2e
 5963 0245 01       		.byte	0x1
 5964 0246 3F       		.uleb128 0x3f
 5965 0247 0C       		.uleb128 0xc
ARM GAS  C:\Users\atsu\AppData\Local\Temp\ccNplIXy.s 			page 121


 5966 0248 03       		.uleb128 0x3
 5967 0249 0E       		.uleb128 0xe
 5968 024a 3A       		.uleb128 0x3a
 5969 024b 0B       		.uleb128 0xb
 5970 024c 3B       		.uleb128 0x3b
 5971 024d 0B       		.uleb128 0xb
 5972 024e 27       		.uleb128 0x27
 5973 024f 0C       		.uleb128 0xc
 5974 0250 3C       		.uleb128 0x3c
 5975 0251 0C       		.uleb128 0xc
 5976 0252 01       		.uleb128 0x1
 5977 0253 13       		.uleb128 0x13
 5978 0254 00       		.byte	0
 5979 0255 00       		.byte	0
 5980 0256 27       		.uleb128 0x27
 5981 0257 2E       		.uleb128 0x2e
 5982 0258 00       		.byte	0
 5983 0259 3F       		.uleb128 0x3f
 5984 025a 0C       		.uleb128 0xc
 5985 025b 03       		.uleb128 0x3
 5986 025c 0E       		.uleb128 0xe
 5987 025d 3A       		.uleb128 0x3a
 5988 025e 0B       		.uleb128 0xb
 5989 025f 3B       		.uleb128 0x3b
 5990 0260 0B       		.uleb128 0xb
 5991 0261 27       		.uleb128 0x27
 5992 0262 0C       		.uleb128 0xc
 5993 0263 3C       		.uleb128 0x3c
 5994 0264 0C       		.uleb128 0xc
 5995 0265 00       		.byte	0
 5996 0266 00       		.byte	0
 5997 0267 00       		.byte	0
 5998              		.section	.debug_loc,"",%progbits
 5999              	.Ldebug_loc0:
 6000              	.LLST0:
 6001 0000 00000000 		.4byte	.LFB33
 6002 0004 02000000 		.4byte	.LCFI0
 6003 0008 0200     		.2byte	0x2
 6004 000a 7D       		.byte	0x7d
 6005 000b 00       		.sleb128 0
 6006 000c 02000000 		.4byte	.LCFI0
 6007 0010 16000000 		.4byte	.LFE33
 6008 0014 0200     		.2byte	0x2
 6009 0016 7D       		.byte	0x7d
 6010 0017 08       		.sleb128 8
 6011 0018 00000000 		.4byte	0
 6012 001c 00000000 		.4byte	0
 6013              	.LLST1:
 6014 0020 00000000 		.4byte	.LVL0
 6015 0024 05000000 		.4byte	.LVL1-1
 6016 0028 0100     		.2byte	0x1
 6017 002a 50       		.byte	0x50
 6018 002b 05000000 		.4byte	.LVL1-1
 6019 002f 16000000 		.4byte	.LFE33
 6020 0033 0400     		.2byte	0x4
 6021 0035 F3       		.byte	0xf3
 6022 0036 01       		.uleb128 0x1
ARM GAS  C:\Users\atsu\AppData\Local\Temp\ccNplIXy.s 			page 122


 6023 0037 50       		.byte	0x50
 6024 0038 9F       		.byte	0x9f
 6025 0039 00000000 		.4byte	0
 6026 003d 00000000 		.4byte	0
 6027              	.LLST2:
 6028 0041 00000000 		.4byte	.LVL4
 6029 0045 04000000 		.4byte	.LVL5
 6030 0049 0100     		.2byte	0x1
 6031 004b 50       		.byte	0x50
 6032 004c 04000000 		.4byte	.LVL5
 6033 0050 0C000000 		.4byte	.LFE34
 6034 0054 0400     		.2byte	0x4
 6035 0056 F3       		.byte	0xf3
 6036 0057 01       		.uleb128 0x1
 6037 0058 50       		.byte	0x50
 6038 0059 9F       		.byte	0x9f
 6039 005a 00000000 		.4byte	0
 6040 005e 00000000 		.4byte	0
 6041              	.LLST3:
 6042 0062 00000000 		.4byte	.LVL7
 6043 0066 04000000 		.4byte	.LVL8
 6044 006a 0100     		.2byte	0x1
 6045 006c 50       		.byte	0x50
 6046 006d 04000000 		.4byte	.LVL8
 6047 0071 10000000 		.4byte	.LFE36
 6048 0075 0400     		.2byte	0x4
 6049 0077 F3       		.byte	0xf3
 6050 0078 01       		.uleb128 0x1
 6051 0079 50       		.byte	0x50
 6052 007a 9F       		.byte	0x9f
 6053 007b 00000000 		.4byte	0
 6054 007f 00000000 		.4byte	0
 6055              	.LLST4:
 6056 0083 00000000 		.4byte	.LVL9
 6057 0087 04000000 		.4byte	.LVL10
 6058 008b 0100     		.2byte	0x1
 6059 008d 50       		.byte	0x50
 6060 008e 04000000 		.4byte	.LVL10
 6061 0092 10000000 		.4byte	.LFE37
 6062 0096 0400     		.2byte	0x4
 6063 0098 F3       		.byte	0xf3
 6064 0099 01       		.uleb128 0x1
 6065 009a 50       		.byte	0x50
 6066 009b 9F       		.byte	0x9f
 6067 009c 00000000 		.4byte	0
 6068 00a0 00000000 		.4byte	0
 6069              	.LLST5:
 6070 00a4 00000000 		.4byte	.LVL11
 6071 00a8 04000000 		.4byte	.LVL12
 6072 00ac 0100     		.2byte	0x1
 6073 00ae 50       		.byte	0x50
 6074 00af 04000000 		.4byte	.LVL12
 6075 00b3 10000000 		.4byte	.LFE38
 6076 00b7 0400     		.2byte	0x4
 6077 00b9 F3       		.byte	0xf3
 6078 00ba 01       		.uleb128 0x1
 6079 00bb 50       		.byte	0x50
ARM GAS  C:\Users\atsu\AppData\Local\Temp\ccNplIXy.s 			page 123


 6080 00bc 9F       		.byte	0x9f
 6081 00bd 00000000 		.4byte	0
 6082 00c1 00000000 		.4byte	0
 6083              	.LLST6:
 6084 00c5 00000000 		.4byte	.LVL13
 6085 00c9 04000000 		.4byte	.LVL14
 6086 00cd 0100     		.2byte	0x1
 6087 00cf 50       		.byte	0x50
 6088 00d0 04000000 		.4byte	.LVL14
 6089 00d4 10000000 		.4byte	.LFE39
 6090 00d8 0400     		.2byte	0x4
 6091 00da F3       		.byte	0xf3
 6092 00db 01       		.uleb128 0x1
 6093 00dc 50       		.byte	0x50
 6094 00dd 9F       		.byte	0x9f
 6095 00de 00000000 		.4byte	0
 6096 00e2 00000000 		.4byte	0
 6097              	.LLST7:
 6098 00e6 00000000 		.4byte	.LVL15
 6099 00ea 04000000 		.4byte	.LVL16
 6100 00ee 0100     		.2byte	0x1
 6101 00f0 50       		.byte	0x50
 6102 00f1 04000000 		.4byte	.LVL16
 6103 00f5 10000000 		.4byte	.LFE40
 6104 00f9 0400     		.2byte	0x4
 6105 00fb F3       		.byte	0xf3
 6106 00fc 01       		.uleb128 0x1
 6107 00fd 50       		.byte	0x50
 6108 00fe 9F       		.byte	0x9f
 6109 00ff 00000000 		.4byte	0
 6110 0103 00000000 		.4byte	0
 6111              	.LLST8:
 6112 0107 00000000 		.4byte	.LVL17
 6113 010b 04000000 		.4byte	.LVL18
 6114 010f 0100     		.2byte	0x1
 6115 0111 50       		.byte	0x50
 6116 0112 04000000 		.4byte	.LVL18
 6117 0116 10000000 		.4byte	.LFE41
 6118 011a 0400     		.2byte	0x4
 6119 011c F3       		.byte	0xf3
 6120 011d 01       		.uleb128 0x1
 6121 011e 50       		.byte	0x50
 6122 011f 9F       		.byte	0x9f
 6123 0120 00000000 		.4byte	0
 6124 0124 00000000 		.4byte	0
 6125              	.LLST9:
 6126 0128 00000000 		.4byte	.LFB42
 6127 012c 02000000 		.4byte	.LCFI1
 6128 0130 0200     		.2byte	0x2
 6129 0132 7D       		.byte	0x7d
 6130 0133 00       		.sleb128 0
 6131 0134 02000000 		.4byte	.LCFI1
 6132 0138 32000000 		.4byte	.LFE42
 6133 013c 0200     		.2byte	0x2
 6134 013e 7D       		.byte	0x7d
 6135 013f 10       		.sleb128 16
 6136 0140 00000000 		.4byte	0
ARM GAS  C:\Users\atsu\AppData\Local\Temp\ccNplIXy.s 			page 124


 6137 0144 00000000 		.4byte	0
 6138              	.LLST10:
 6139 0148 00000000 		.4byte	.LVL19
 6140 014c 06000000 		.4byte	.LVL20
 6141 0150 0100     		.2byte	0x1
 6142 0152 50       		.byte	0x50
 6143 0153 06000000 		.4byte	.LVL20
 6144 0157 32000000 		.4byte	.LFE42
 6145 015b 0400     		.2byte	0x4
 6146 015d F3       		.byte	0xf3
 6147 015e 01       		.uleb128 0x1
 6148 015f 50       		.byte	0x50
 6149 0160 9F       		.byte	0x9f
 6150 0161 00000000 		.4byte	0
 6151 0165 00000000 		.4byte	0
 6152              	.LLST11:
 6153 0169 00000000 		.4byte	.LVL19
 6154 016d 0B000000 		.4byte	.LVL21-1
 6155 0171 0100     		.2byte	0x1
 6156 0173 51       		.byte	0x51
 6157 0174 0B000000 		.4byte	.LVL21-1
 6158 0178 32000000 		.4byte	.LFE42
 6159 017c 0400     		.2byte	0x4
 6160 017e F3       		.byte	0xf3
 6161 017f 01       		.uleb128 0x1
 6162 0180 51       		.byte	0x51
 6163 0181 9F       		.byte	0x9f
 6164 0182 00000000 		.4byte	0
 6165 0186 00000000 		.4byte	0
 6166              	.LLST12:
 6167 018a 00000000 		.4byte	.LFB43
 6168 018e 02000000 		.4byte	.LCFI2
 6169 0192 0200     		.2byte	0x2
 6170 0194 7D       		.byte	0x7d
 6171 0195 00       		.sleb128 0
 6172 0196 02000000 		.4byte	.LCFI2
 6173 019a 30000000 		.4byte	.LFE43
 6174 019e 0200     		.2byte	0x2
 6175 01a0 7D       		.byte	0x7d
 6176 01a1 08       		.sleb128 8
 6177 01a2 00000000 		.4byte	0
 6178 01a6 00000000 		.4byte	0
 6179              	.LLST13:
 6180 01aa 00000000 		.4byte	.LVL27
 6181 01ae 06000000 		.4byte	.LVL28
 6182 01b2 0100     		.2byte	0x1
 6183 01b4 50       		.byte	0x50
 6184 01b5 06000000 		.4byte	.LVL28
 6185 01b9 30000000 		.4byte	.LFE43
 6186 01bd 0400     		.2byte	0x4
 6187 01bf F3       		.byte	0xf3
 6188 01c0 01       		.uleb128 0x1
 6189 01c1 50       		.byte	0x50
 6190 01c2 9F       		.byte	0x9f
 6191 01c3 00000000 		.4byte	0
 6192 01c7 00000000 		.4byte	0
 6193              	.LLST14:
ARM GAS  C:\Users\atsu\AppData\Local\Temp\ccNplIXy.s 			page 125


 6194 01cb 26000000 		.4byte	.LVL34
 6195 01cf 28000000 		.4byte	.LVL35
 6196 01d3 0100     		.2byte	0x1
 6197 01d5 50       		.byte	0x50
 6198 01d6 28000000 		.4byte	.LVL35
 6199 01da 2E000000 		.4byte	.LVL37
 6200 01de 0100     		.2byte	0x1
 6201 01e0 54       		.byte	0x54
 6202 01e1 00000000 		.4byte	0
 6203 01e5 00000000 		.4byte	0
 6204              	.LLST15:
 6205 01e9 00000000 		.4byte	.LFB44
 6206 01ed 02000000 		.4byte	.LCFI3
 6207 01f1 0200     		.2byte	0x2
 6208 01f3 7D       		.byte	0x7d
 6209 01f4 00       		.sleb128 0
 6210 01f5 02000000 		.4byte	.LCFI3
 6211 01f9 46000000 		.4byte	.LFE44
 6212 01fd 0200     		.2byte	0x2
 6213 01ff 7D       		.byte	0x7d
 6214 0200 18       		.sleb128 24
 6215 0201 00000000 		.4byte	0
 6216 0205 00000000 		.4byte	0
 6217              	.LLST16:
 6218 0209 00000000 		.4byte	.LVL38
 6219 020d 0C000000 		.4byte	.LVL39
 6220 0211 0100     		.2byte	0x1
 6221 0213 50       		.byte	0x50
 6222 0214 0C000000 		.4byte	.LVL39
 6223 0218 36000000 		.4byte	.LVL45
 6224 021c 0100     		.2byte	0x1
 6225 021e 54       		.byte	0x54
 6226 021f 36000000 		.4byte	.LVL45
 6227 0223 3A000000 		.4byte	.LVL46
 6228 0227 0300     		.2byte	0x3
 6229 0229 74       		.byte	0x74
 6230 022a 7F       		.sleb128 -1
 6231 022b 9F       		.byte	0x9f
 6232 022c 3A000000 		.4byte	.LVL46
 6233 0230 44000000 		.4byte	.LVL48
 6234 0234 0100     		.2byte	0x1
 6235 0236 54       		.byte	0x54
 6236 0237 00000000 		.4byte	0
 6237 023b 00000000 		.4byte	0
 6238              	.LLST17:
 6239 023f 00000000 		.4byte	.LVL38
 6240 0243 0C000000 		.4byte	.LVL39
 6241 0247 0100     		.2byte	0x1
 6242 0249 51       		.byte	0x51
 6243 024a 0C000000 		.4byte	.LVL39
 6244 024e 46000000 		.4byte	.LFE44
 6245 0252 0400     		.2byte	0x4
 6246 0254 F3       		.byte	0xf3
 6247 0255 01       		.uleb128 0x1
 6248 0256 51       		.byte	0x51
 6249 0257 9F       		.byte	0x9f
 6250 0258 00000000 		.4byte	0
ARM GAS  C:\Users\atsu\AppData\Local\Temp\ccNplIXy.s 			page 126


 6251 025c 00000000 		.4byte	0
 6252              	.LLST18:
 6253 0260 00000000 		.4byte	.LVL38
 6254 0264 0C000000 		.4byte	.LVL39
 6255 0268 0100     		.2byte	0x1
 6256 026a 52       		.byte	0x52
 6257 026b 0C000000 		.4byte	.LVL39
 6258 026f 46000000 		.4byte	.LFE44
 6259 0273 0400     		.2byte	0x4
 6260 0275 F3       		.byte	0xf3
 6261 0276 01       		.uleb128 0x1
 6262 0277 52       		.byte	0x52
 6263 0278 9F       		.byte	0x9f
 6264 0279 00000000 		.4byte	0
 6265 027d 00000000 		.4byte	0
 6266              	.LLST19:
 6267 0281 00000000 		.4byte	.LVL38
 6268 0285 0C000000 		.4byte	.LVL39
 6269 0289 0200     		.2byte	0x2
 6270 028b 30       		.byte	0x30
 6271 028c 9F       		.byte	0x9f
 6272 028d 00000000 		.4byte	0
 6273 0291 00000000 		.4byte	0
 6274              	.LLST20:
 6275 0295 00000000 		.4byte	.LFB45
 6276 0299 02000000 		.4byte	.LCFI4
 6277 029d 0200     		.2byte	0x2
 6278 029f 7D       		.byte	0x7d
 6279 02a0 00       		.sleb128 0
 6280 02a1 02000000 		.4byte	.LCFI4
 6281 02a5 44000000 		.4byte	.LFE45
 6282 02a9 0200     		.2byte	0x2
 6283 02ab 7D       		.byte	0x7d
 6284 02ac 18       		.sleb128 24
 6285 02ad 00000000 		.4byte	0
 6286 02b1 00000000 		.4byte	0
 6287              	.LLST21:
 6288 02b5 00000000 		.4byte	.LVL49
 6289 02b9 0C000000 		.4byte	.LVL50
 6290 02bd 0100     		.2byte	0x1
 6291 02bf 50       		.byte	0x50
 6292 02c0 0C000000 		.4byte	.LVL50
 6293 02c4 32000000 		.4byte	.LVL56
 6294 02c8 0100     		.2byte	0x1
 6295 02ca 54       		.byte	0x54
 6296 02cb 32000000 		.4byte	.LVL56
 6297 02cf 38000000 		.4byte	.LVL57
 6298 02d3 0300     		.2byte	0x3
 6299 02d5 74       		.byte	0x74
 6300 02d6 7F       		.sleb128 -1
 6301 02d7 9F       		.byte	0x9f
 6302 02d8 38000000 		.4byte	.LVL57
 6303 02dc 42000000 		.4byte	.LVL59
 6304 02e0 0100     		.2byte	0x1
 6305 02e2 54       		.byte	0x54
 6306 02e3 00000000 		.4byte	0
 6307 02e7 00000000 		.4byte	0
ARM GAS  C:\Users\atsu\AppData\Local\Temp\ccNplIXy.s 			page 127


 6308              	.LLST22:
 6309 02eb 00000000 		.4byte	.LVL49
 6310 02ef 0C000000 		.4byte	.LVL50
 6311 02f3 0100     		.2byte	0x1
 6312 02f5 51       		.byte	0x51
 6313 02f6 0C000000 		.4byte	.LVL50
 6314 02fa 44000000 		.4byte	.LFE45
 6315 02fe 0400     		.2byte	0x4
 6316 0300 F3       		.byte	0xf3
 6317 0301 01       		.uleb128 0x1
 6318 0302 51       		.byte	0x51
 6319 0303 9F       		.byte	0x9f
 6320 0304 00000000 		.4byte	0
 6321 0308 00000000 		.4byte	0
 6322              	.LLST23:
 6323 030c 00000000 		.4byte	.LVL49
 6324 0310 0C000000 		.4byte	.LVL50
 6325 0314 0100     		.2byte	0x1
 6326 0316 52       		.byte	0x52
 6327 0317 0C000000 		.4byte	.LVL50
 6328 031b 44000000 		.4byte	.LFE45
 6329 031f 0400     		.2byte	0x4
 6330 0321 F3       		.byte	0xf3
 6331 0322 01       		.uleb128 0x1
 6332 0323 52       		.byte	0x52
 6333 0324 9F       		.byte	0x9f
 6334 0325 00000000 		.4byte	0
 6335 0329 00000000 		.4byte	0
 6336              	.LLST24:
 6337 032d 00000000 		.4byte	.LVL49
 6338 0331 0C000000 		.4byte	.LVL50
 6339 0335 0200     		.2byte	0x2
 6340 0337 30       		.byte	0x30
 6341 0338 9F       		.byte	0x9f
 6342 0339 00000000 		.4byte	0
 6343 033d 00000000 		.4byte	0
 6344              	.LLST25:
 6345 0341 00000000 		.4byte	.LFB47
 6346 0345 02000000 		.4byte	.LCFI5
 6347 0349 0200     		.2byte	0x2
 6348 034b 7D       		.byte	0x7d
 6349 034c 00       		.sleb128 0
 6350 034d 02000000 		.4byte	.LCFI5
 6351 0351 04000000 		.4byte	.LCFI6
 6352 0355 0200     		.2byte	0x2
 6353 0357 7D       		.byte	0x7d
 6354 0358 14       		.sleb128 20
 6355 0359 04000000 		.4byte	.LCFI6
 6356 035d 40010000 		.4byte	.LFE47
 6357 0361 0200     		.2byte	0x2
 6358 0363 7D       		.byte	0x7d
 6359 0364 28       		.sleb128 40
 6360 0365 00000000 		.4byte	0
 6361 0369 00000000 		.4byte	0
 6362              	.LLST26:
 6363 036d 00000000 		.4byte	.LVL60
 6364 0371 0A000000 		.4byte	.LVL61
ARM GAS  C:\Users\atsu\AppData\Local\Temp\ccNplIXy.s 			page 128


 6365 0375 0100     		.2byte	0x1
 6366 0377 50       		.byte	0x50
 6367 0378 0A000000 		.4byte	.LVL61
 6368 037c 40010000 		.4byte	.LFE47
 6369 0380 0400     		.2byte	0x4
 6370 0382 F3       		.byte	0xf3
 6371 0383 01       		.uleb128 0x1
 6372 0384 50       		.byte	0x50
 6373 0385 9F       		.byte	0x9f
 6374 0386 00000000 		.4byte	0
 6375 038a 00000000 		.4byte	0
 6376              	.LLST27:
 6377 038e 00000000 		.4byte	.LVL60
 6378 0392 0C000000 		.4byte	.LVL62
 6379 0396 0100     		.2byte	0x1
 6380 0398 51       		.byte	0x51
 6381 0399 0C000000 		.4byte	.LVL62
 6382 039d 40010000 		.4byte	.LFE47
 6383 03a1 0400     		.2byte	0x4
 6384 03a3 F3       		.byte	0xf3
 6385 03a4 01       		.uleb128 0x1
 6386 03a5 51       		.byte	0x51
 6387 03a6 9F       		.byte	0x9f
 6388 03a7 00000000 		.4byte	0
 6389 03ab 00000000 		.4byte	0
 6390              	.LLST28:
 6391 03af 24000000 		.4byte	.LVL65
 6392 03b3 2E000000 		.4byte	.LVL66
 6393 03b7 0200     		.2byte	0x2
 6394 03b9 30       		.byte	0x30
 6395 03ba 9F       		.byte	0x9f
 6396 03bb 22010000 		.4byte	.LVL69
 6397 03bf 2A010000 		.4byte	.LVL71
 6398 03c3 0100     		.2byte	0x1
 6399 03c5 54       		.byte	0x54
 6400 03c6 00000000 		.4byte	0
 6401 03ca 00000000 		.4byte	0
 6402              	.LLST29:
 6403 03ce 00000000 		.4byte	.LVL60
 6404 03d2 2E000000 		.4byte	.LVL66
 6405 03d6 0200     		.2byte	0x2
 6406 03d8 30       		.byte	0x30
 6407 03d9 9F       		.byte	0x9f
 6408 03da E6000000 		.4byte	.LVL67
 6409 03de 2A010000 		.4byte	.LVL72
 6410 03e2 0100     		.2byte	0x1
 6411 03e4 55       		.byte	0x55
 6412 03e5 00000000 		.4byte	0
 6413 03e9 00000000 		.4byte	0
 6414              	.LLST30:
 6415 03ed 00000000 		.4byte	.LVL60
 6416 03f1 2E000000 		.4byte	.LVL66
 6417 03f5 0200     		.2byte	0x2
 6418 03f7 30       		.byte	0x30
 6419 03f8 9F       		.byte	0x9f
 6420 03f9 EC000000 		.4byte	.LVL68
 6421 03fd 2A010000 		.4byte	.LVL70
ARM GAS  C:\Users\atsu\AppData\Local\Temp\ccNplIXy.s 			page 129


 6422 0401 0200     		.2byte	0x2
 6423 0403 7D       		.byte	0x7d
 6424 0404 00       		.sleb128 0
 6425 0405 2A010000 		.4byte	.LVL70
 6426 0409 40010000 		.4byte	.LFE47
 6427 040d 0200     		.2byte	0x2
 6428 040f 91       		.byte	0x91
 6429 0410 58       		.sleb128 -40
 6430 0411 00000000 		.4byte	0
 6431 0415 00000000 		.4byte	0
 6432              	.LLST31:
 6433 0419 00000000 		.4byte	.LFB48
 6434 041d 02000000 		.4byte	.LCFI7
 6435 0421 0200     		.2byte	0x2
 6436 0423 7D       		.byte	0x7d
 6437 0424 00       		.sleb128 0
 6438 0425 02000000 		.4byte	.LCFI7
 6439 0429 0E000000 		.4byte	.LFE48
 6440 042d 0200     		.2byte	0x2
 6441 042f 7D       		.byte	0x7d
 6442 0430 08       		.sleb128 8
 6443 0431 00000000 		.4byte	0
 6444 0435 00000000 		.4byte	0
 6445              	.LLST32:
 6446 0439 00000000 		.4byte	.LVL73
 6447 043d 06000000 		.4byte	.LVL74
 6448 0441 0100     		.2byte	0x1
 6449 0443 50       		.byte	0x50
 6450 0444 06000000 		.4byte	.LVL74
 6451 0448 0E000000 		.4byte	.LFE48
 6452 044c 0400     		.2byte	0x4
 6453 044e F3       		.byte	0xf3
 6454 044f 01       		.uleb128 0x1
 6455 0450 50       		.byte	0x50
 6456 0451 9F       		.byte	0x9f
 6457 0452 00000000 		.4byte	0
 6458 0456 00000000 		.4byte	0
 6459              	.LLST33:
 6460 045a 00000000 		.4byte	.LFB46
 6461 045e 02000000 		.4byte	.LCFI8
 6462 0462 0200     		.2byte	0x2
 6463 0464 7D       		.byte	0x7d
 6464 0465 00       		.sleb128 0
 6465 0466 02000000 		.4byte	.LCFI8
 6466 046a 16000000 		.4byte	.LFE46
 6467 046e 0200     		.2byte	0x2
 6468 0470 7D       		.byte	0x7d
 6469 0471 08       		.sleb128 8
 6470 0472 00000000 		.4byte	0
 6471 0476 00000000 		.4byte	0
 6472              	.LLST34:
 6473 047a 00000000 		.4byte	.LFB49
 6474 047e 02000000 		.4byte	.LCFI9
 6475 0482 0200     		.2byte	0x2
 6476 0484 7D       		.byte	0x7d
 6477 0485 00       		.sleb128 0
 6478 0486 02000000 		.4byte	.LCFI9
ARM GAS  C:\Users\atsu\AppData\Local\Temp\ccNplIXy.s 			page 130


 6479 048a 26000000 		.4byte	.LFE49
 6480 048e 0200     		.2byte	0x2
 6481 0490 7D       		.byte	0x7d
 6482 0491 08       		.sleb128 8
 6483 0492 00000000 		.4byte	0
 6484 0496 00000000 		.4byte	0
 6485              	.LLST35:
 6486 049a 00000000 		.4byte	.LVL79
 6487 049e 08000000 		.4byte	.LVL80
 6488 04a2 0100     		.2byte	0x1
 6489 04a4 50       		.byte	0x50
 6490 04a5 08000000 		.4byte	.LVL80
 6491 04a9 24000000 		.4byte	.LVL85
 6492 04ad 0100     		.2byte	0x1
 6493 04af 54       		.byte	0x54
 6494 04b0 24000000 		.4byte	.LVL85
 6495 04b4 26000000 		.4byte	.LFE49
 6496 04b8 0400     		.2byte	0x4
 6497 04ba F3       		.byte	0xf3
 6498 04bb 01       		.uleb128 0x1
 6499 04bc 50       		.byte	0x50
 6500 04bd 9F       		.byte	0x9f
 6501 04be 00000000 		.4byte	0
 6502 04c2 00000000 		.4byte	0
 6503              	.LLST36:
 6504 04c6 00000000 		.4byte	.LFB50
 6505 04ca 02000000 		.4byte	.LCFI10
 6506 04ce 0200     		.2byte	0x2
 6507 04d0 7D       		.byte	0x7d
 6508 04d1 00       		.sleb128 0
 6509 04d2 02000000 		.4byte	.LCFI10
 6510 04d6 26000000 		.4byte	.LFE50
 6511 04da 0200     		.2byte	0x2
 6512 04dc 7D       		.byte	0x7d
 6513 04dd 08       		.sleb128 8
 6514 04de 00000000 		.4byte	0
 6515 04e2 00000000 		.4byte	0
 6516              	.LLST37:
 6517 04e6 00000000 		.4byte	.LVL86
 6518 04ea 06000000 		.4byte	.LVL87
 6519 04ee 0100     		.2byte	0x1
 6520 04f0 50       		.byte	0x50
 6521 04f1 06000000 		.4byte	.LVL87
 6522 04f5 24000000 		.4byte	.LVL92
 6523 04f9 0100     		.2byte	0x1
 6524 04fb 54       		.byte	0x54
 6525 04fc 24000000 		.4byte	.LVL92
 6526 0500 26000000 		.4byte	.LFE50
 6527 0504 0400     		.2byte	0x4
 6528 0506 F3       		.byte	0xf3
 6529 0507 01       		.uleb128 0x1
 6530 0508 50       		.byte	0x50
 6531 0509 9F       		.byte	0x9f
 6532 050a 00000000 		.4byte	0
 6533 050e 00000000 		.4byte	0
 6534              	.LLST38:
 6535 0512 00000000 		.4byte	.LFB51
ARM GAS  C:\Users\atsu\AppData\Local\Temp\ccNplIXy.s 			page 131


 6536 0516 02000000 		.4byte	.LCFI11
 6537 051a 0200     		.2byte	0x2
 6538 051c 7D       		.byte	0x7d
 6539 051d 00       		.sleb128 0
 6540 051e 02000000 		.4byte	.LCFI11
 6541 0522 26000000 		.4byte	.LFE51
 6542 0526 0200     		.2byte	0x2
 6543 0528 7D       		.byte	0x7d
 6544 0529 08       		.sleb128 8
 6545 052a 00000000 		.4byte	0
 6546 052e 00000000 		.4byte	0
 6547              	.LLST39:
 6548 0532 00000000 		.4byte	.LVL93
 6549 0536 08000000 		.4byte	.LVL94
 6550 053a 0100     		.2byte	0x1
 6551 053c 50       		.byte	0x50
 6552 053d 08000000 		.4byte	.LVL94
 6553 0541 24000000 		.4byte	.LVL99
 6554 0545 0100     		.2byte	0x1
 6555 0547 54       		.byte	0x54
 6556 0548 24000000 		.4byte	.LVL99
 6557 054c 26000000 		.4byte	.LFE51
 6558 0550 0400     		.2byte	0x4
 6559 0552 F3       		.byte	0xf3
 6560 0553 01       		.uleb128 0x1
 6561 0554 50       		.byte	0x50
 6562 0555 9F       		.byte	0x9f
 6563 0556 00000000 		.4byte	0
 6564 055a 00000000 		.4byte	0
 6565              	.LLST40:
 6566 055e 00000000 		.4byte	.LFB52
 6567 0562 02000000 		.4byte	.LCFI12
 6568 0566 0200     		.2byte	0x2
 6569 0568 7D       		.byte	0x7d
 6570 0569 00       		.sleb128 0
 6571 056a 02000000 		.4byte	.LCFI12
 6572 056e 36000000 		.4byte	.LFE52
 6573 0572 0200     		.2byte	0x2
 6574 0574 7D       		.byte	0x7d
 6575 0575 08       		.sleb128 8
 6576 0576 00000000 		.4byte	0
 6577 057a 00000000 		.4byte	0
 6578              	.LLST41:
 6579 057e 00000000 		.4byte	.LVL100
 6580 0582 08000000 		.4byte	.LVL101
 6581 0586 0100     		.2byte	0x1
 6582 0588 50       		.byte	0x50
 6583 0589 08000000 		.4byte	.LVL101
 6584 058d 34000000 		.4byte	.LVL108
 6585 0591 0100     		.2byte	0x1
 6586 0593 54       		.byte	0x54
 6587 0594 34000000 		.4byte	.LVL108
 6588 0598 36000000 		.4byte	.LFE52
 6589 059c 0400     		.2byte	0x4
 6590 059e F3       		.byte	0xf3
 6591 059f 01       		.uleb128 0x1
 6592 05a0 50       		.byte	0x50
ARM GAS  C:\Users\atsu\AppData\Local\Temp\ccNplIXy.s 			page 132


 6593 05a1 9F       		.byte	0x9f
 6594 05a2 00000000 		.4byte	0
 6595 05a6 00000000 		.4byte	0
 6596              	.LLST42:
 6597 05aa 00000000 		.4byte	.LFB53
 6598 05ae 02000000 		.4byte	.LCFI13
 6599 05b2 0200     		.2byte	0x2
 6600 05b4 7D       		.byte	0x7d
 6601 05b5 00       		.sleb128 0
 6602 05b6 02000000 		.4byte	.LCFI13
 6603 05ba 26000000 		.4byte	.LFE53
 6604 05be 0200     		.2byte	0x2
 6605 05c0 7D       		.byte	0x7d
 6606 05c1 08       		.sleb128 8
 6607 05c2 00000000 		.4byte	0
 6608 05c6 00000000 		.4byte	0
 6609              	.LLST43:
 6610 05ca 00000000 		.4byte	.LVL109
 6611 05ce 08000000 		.4byte	.LVL110
 6612 05d2 0100     		.2byte	0x1
 6613 05d4 50       		.byte	0x50
 6614 05d5 08000000 		.4byte	.LVL110
 6615 05d9 24000000 		.4byte	.LVL115
 6616 05dd 0100     		.2byte	0x1
 6617 05df 54       		.byte	0x54
 6618 05e0 24000000 		.4byte	.LVL115
 6619 05e4 26000000 		.4byte	.LFE53
 6620 05e8 0400     		.2byte	0x4
 6621 05ea F3       		.byte	0xf3
 6622 05eb 01       		.uleb128 0x1
 6623 05ec 50       		.byte	0x50
 6624 05ed 9F       		.byte	0x9f
 6625 05ee 00000000 		.4byte	0
 6626 05f2 00000000 		.4byte	0
 6627              	.LLST44:
 6628 05f6 00000000 		.4byte	.LFB54
 6629 05fa 02000000 		.4byte	.LCFI14
 6630 05fe 0200     		.2byte	0x2
 6631 0600 7D       		.byte	0x7d
 6632 0601 00       		.sleb128 0
 6633 0602 02000000 		.4byte	.LCFI14
 6634 0606 0A000000 		.4byte	.LFE54
 6635 060a 0200     		.2byte	0x2
 6636 060c 7D       		.byte	0x7d
 6637 060d 08       		.sleb128 8
 6638 060e 00000000 		.4byte	0
 6639 0612 00000000 		.4byte	0
 6640              	.LLST45:
 6641 0616 00000000 		.4byte	.LFB55
 6642 061a 02000000 		.4byte	.LCFI15
 6643 061e 0200     		.2byte	0x2
 6644 0620 7D       		.byte	0x7d
 6645 0621 00       		.sleb128 0
 6646 0622 02000000 		.4byte	.LCFI15
 6647 0626 16000000 		.4byte	.LFE55
 6648 062a 0200     		.2byte	0x2
 6649 062c 7D       		.byte	0x7d
ARM GAS  C:\Users\atsu\AppData\Local\Temp\ccNplIXy.s 			page 133


 6650 062d 08       		.sleb128 8
 6651 062e 00000000 		.4byte	0
 6652 0632 00000000 		.4byte	0
 6653              	.LLST46:
 6654 0636 00000000 		.4byte	.LVL117
 6655 063a 08000000 		.4byte	.LVL118
 6656 063e 0100     		.2byte	0x1
 6657 0640 50       		.byte	0x50
 6658 0641 08000000 		.4byte	.LVL118
 6659 0645 16000000 		.4byte	.LFE55
 6660 0649 0400     		.2byte	0x4
 6661 064b F3       		.byte	0xf3
 6662 064c 01       		.uleb128 0x1
 6663 064d 50       		.byte	0x50
 6664 064e 9F       		.byte	0x9f
 6665 064f 00000000 		.4byte	0
 6666 0653 00000000 		.4byte	0
 6667              	.LLST47:
 6668 0657 00000000 		.4byte	.LFB56
 6669 065b 02000000 		.4byte	.LCFI16
 6670 065f 0200     		.2byte	0x2
 6671 0661 7D       		.byte	0x7d
 6672 0662 00       		.sleb128 0
 6673 0663 02000000 		.4byte	.LCFI16
 6674 0667 0C000000 		.4byte	.LFE56
 6675 066b 0200     		.2byte	0x2
 6676 066d 7D       		.byte	0x7d
 6677 066e 08       		.sleb128 8
 6678 066f 00000000 		.4byte	0
 6679 0673 00000000 		.4byte	0
 6680              	.LLST48:
 6681 0677 00000000 		.4byte	.LVL121
 6682 067b 06000000 		.4byte	.LVL122
 6683 067f 0100     		.2byte	0x1
 6684 0681 50       		.byte	0x50
 6685 0682 06000000 		.4byte	.LVL122
 6686 0686 0C000000 		.4byte	.LFE56
 6687 068a 0400     		.2byte	0x4
 6688 068c F3       		.byte	0xf3
 6689 068d 01       		.uleb128 0x1
 6690 068e 50       		.byte	0x50
 6691 068f 9F       		.byte	0x9f
 6692 0690 00000000 		.4byte	0
 6693 0694 00000000 		.4byte	0
 6694              	.LLST49:
 6695 0698 00000000 		.4byte	.LFB57
 6696 069c 02000000 		.4byte	.LCFI17
 6697 06a0 0200     		.2byte	0x2
 6698 06a2 7D       		.byte	0x7d
 6699 06a3 00       		.sleb128 0
 6700 06a4 02000000 		.4byte	.LCFI17
 6701 06a8 0C000000 		.4byte	.LFE57
 6702 06ac 0200     		.2byte	0x2
 6703 06ae 7D       		.byte	0x7d
 6704 06af 08       		.sleb128 8
 6705 06b0 00000000 		.4byte	0
 6706 06b4 00000000 		.4byte	0
ARM GAS  C:\Users\atsu\AppData\Local\Temp\ccNplIXy.s 			page 134


 6707              	.LLST50:
 6708 06b8 00000000 		.4byte	.LVL124
 6709 06bc 06000000 		.4byte	.LVL125
 6710 06c0 0100     		.2byte	0x1
 6711 06c2 50       		.byte	0x50
 6712 06c3 06000000 		.4byte	.LVL125
 6713 06c7 0C000000 		.4byte	.LFE57
 6714 06cb 0400     		.2byte	0x4
 6715 06cd F3       		.byte	0xf3
 6716 06ce 01       		.uleb128 0x1
 6717 06cf 50       		.byte	0x50
 6718 06d0 9F       		.byte	0x9f
 6719 06d1 00000000 		.4byte	0
 6720 06d5 00000000 		.4byte	0
 6721              	.LLST51:
 6722 06d9 00000000 		.4byte	.LFB58
 6723 06dd 02000000 		.4byte	.LCFI18
 6724 06e1 0200     		.2byte	0x2
 6725 06e3 7D       		.byte	0x7d
 6726 06e4 00       		.sleb128 0
 6727 06e5 02000000 		.4byte	.LCFI18
 6728 06e9 26000000 		.4byte	.LFE58
 6729 06ed 0200     		.2byte	0x2
 6730 06ef 7D       		.byte	0x7d
 6731 06f0 08       		.sleb128 8
 6732 06f1 00000000 		.4byte	0
 6733 06f5 00000000 		.4byte	0
 6734              	.LLST52:
 6735 06f9 00000000 		.4byte	.LVL127
 6736 06fd 06000000 		.4byte	.LVL128
 6737 0701 0100     		.2byte	0x1
 6738 0703 50       		.byte	0x50
 6739 0704 06000000 		.4byte	.LVL128
 6740 0708 24000000 		.4byte	.LVL133
 6741 070c 0100     		.2byte	0x1
 6742 070e 54       		.byte	0x54
 6743 070f 24000000 		.4byte	.LVL133
 6744 0713 26000000 		.4byte	.LFE58
 6745 0717 0400     		.2byte	0x4
 6746 0719 F3       		.byte	0xf3
 6747 071a 01       		.uleb128 0x1
 6748 071b 50       		.byte	0x50
 6749 071c 9F       		.byte	0x9f
 6750 071d 00000000 		.4byte	0
 6751 0721 00000000 		.4byte	0
 6752              	.LLST53:
 6753 0725 00000000 		.4byte	.LFB59
 6754 0729 02000000 		.4byte	.LCFI19
 6755 072d 0200     		.2byte	0x2
 6756 072f 7D       		.byte	0x7d
 6757 0730 00       		.sleb128 0
 6758 0731 02000000 		.4byte	.LCFI19
 6759 0735 26000000 		.4byte	.LFE59
 6760 0739 0200     		.2byte	0x2
 6761 073b 7D       		.byte	0x7d
 6762 073c 08       		.sleb128 8
 6763 073d 00000000 		.4byte	0
ARM GAS  C:\Users\atsu\AppData\Local\Temp\ccNplIXy.s 			page 135


 6764 0741 00000000 		.4byte	0
 6765              	.LLST54:
 6766 0745 00000000 		.4byte	.LVL134
 6767 0749 06000000 		.4byte	.LVL135
 6768 074d 0100     		.2byte	0x1
 6769 074f 50       		.byte	0x50
 6770 0750 06000000 		.4byte	.LVL135
 6771 0754 24000000 		.4byte	.LVL140
 6772 0758 0100     		.2byte	0x1
 6773 075a 54       		.byte	0x54
 6774 075b 24000000 		.4byte	.LVL140
 6775 075f 26000000 		.4byte	.LFE59
 6776 0763 0400     		.2byte	0x4
 6777 0765 F3       		.byte	0xf3
 6778 0766 01       		.uleb128 0x1
 6779 0767 50       		.byte	0x50
 6780 0768 9F       		.byte	0x9f
 6781 0769 00000000 		.4byte	0
 6782 076d 00000000 		.4byte	0
 6783              	.LLST55:
 6784 0771 00000000 		.4byte	.LFB60
 6785 0775 02000000 		.4byte	.LCFI20
 6786 0779 0200     		.2byte	0x2
 6787 077b 7D       		.byte	0x7d
 6788 077c 00       		.sleb128 0
 6789 077d 02000000 		.4byte	.LCFI20
 6790 0781 36000000 		.4byte	.LFE60
 6791 0785 0200     		.2byte	0x2
 6792 0787 7D       		.byte	0x7d
 6793 0788 08       		.sleb128 8
 6794 0789 00000000 		.4byte	0
 6795 078d 00000000 		.4byte	0
 6796              	.LLST56:
 6797 0791 00000000 		.4byte	.LVL141
 6798 0795 06000000 		.4byte	.LVL142
 6799 0799 0100     		.2byte	0x1
 6800 079b 50       		.byte	0x50
 6801 079c 06000000 		.4byte	.LVL142
 6802 07a0 34000000 		.4byte	.LVL149
 6803 07a4 0100     		.2byte	0x1
 6804 07a6 54       		.byte	0x54
 6805 07a7 34000000 		.4byte	.LVL149
 6806 07ab 36000000 		.4byte	.LFE60
 6807 07af 0400     		.2byte	0x4
 6808 07b1 F3       		.byte	0xf3
 6809 07b2 01       		.uleb128 0x1
 6810 07b3 50       		.byte	0x50
 6811 07b4 9F       		.byte	0x9f
 6812 07b5 00000000 		.4byte	0
 6813 07b9 00000000 		.4byte	0
 6814              	.LLST57:
 6815 07bd 00000000 		.4byte	.LFB61
 6816 07c1 02000000 		.4byte	.LCFI21
 6817 07c5 0200     		.2byte	0x2
 6818 07c7 7D       		.byte	0x7d
 6819 07c8 00       		.sleb128 0
 6820 07c9 02000000 		.4byte	.LCFI21
ARM GAS  C:\Users\atsu\AppData\Local\Temp\ccNplIXy.s 			page 136


 6821 07cd 26000000 		.4byte	.LFE61
 6822 07d1 0200     		.2byte	0x2
 6823 07d3 7D       		.byte	0x7d
 6824 07d4 08       		.sleb128 8
 6825 07d5 00000000 		.4byte	0
 6826 07d9 00000000 		.4byte	0
 6827              	.LLST58:
 6828 07dd 00000000 		.4byte	.LVL150
 6829 07e1 06000000 		.4byte	.LVL151
 6830 07e5 0100     		.2byte	0x1
 6831 07e7 50       		.byte	0x50
 6832 07e8 06000000 		.4byte	.LVL151
 6833 07ec 24000000 		.4byte	.LVL156
 6834 07f0 0100     		.2byte	0x1
 6835 07f2 54       		.byte	0x54
 6836 07f3 24000000 		.4byte	.LVL156
 6837 07f7 26000000 		.4byte	.LFE61
 6838 07fb 0400     		.2byte	0x4
 6839 07fd F3       		.byte	0xf3
 6840 07fe 01       		.uleb128 0x1
 6841 07ff 50       		.byte	0x50
 6842 0800 9F       		.byte	0x9f
 6843 0801 00000000 		.4byte	0
 6844 0805 00000000 		.4byte	0
 6845              	.LLST59:
 6846 0809 00000000 		.4byte	.LFB62
 6847 080d 02000000 		.4byte	.LCFI22
 6848 0811 0200     		.2byte	0x2
 6849 0813 7D       		.byte	0x7d
 6850 0814 00       		.sleb128 0
 6851 0815 02000000 		.4byte	.LCFI22
 6852 0819 4E000000 		.4byte	.LFE62
 6853 081d 0200     		.2byte	0x2
 6854 081f 7D       		.byte	0x7d
 6855 0820 10       		.sleb128 16
 6856 0821 00000000 		.4byte	0
 6857 0825 00000000 		.4byte	0
 6858              	.LLST60:
 6859 0829 00000000 		.4byte	.LVL157
 6860 082d 06000000 		.4byte	.LVL158
 6861 0831 0100     		.2byte	0x1
 6862 0833 50       		.byte	0x50
 6863 0834 06000000 		.4byte	.LVL158
 6864 0838 4E000000 		.4byte	.LFE62
 6865 083c 0400     		.2byte	0x4
 6866 083e F3       		.byte	0xf3
 6867 083f 01       		.uleb128 0x1
 6868 0840 50       		.byte	0x50
 6869 0841 9F       		.byte	0x9f
 6870 0842 00000000 		.4byte	0
 6871 0846 00000000 		.4byte	0
 6872              	.LLST61:
 6873 084a 00000000 		.4byte	.LVL157
 6874 084e 0C000000 		.4byte	.LVL159
 6875 0852 0100     		.2byte	0x1
 6876 0854 51       		.byte	0x51
 6877 0855 0C000000 		.4byte	.LVL159
ARM GAS  C:\Users\atsu\AppData\Local\Temp\ccNplIXy.s 			page 137


 6878 0859 4C000000 		.4byte	.LVL166
 6879 085d 0100     		.2byte	0x1
 6880 085f 54       		.byte	0x54
 6881 0860 4C000000 		.4byte	.LVL166
 6882 0864 4E000000 		.4byte	.LFE62
 6883 0868 0400     		.2byte	0x4
 6884 086a F3       		.byte	0xf3
 6885 086b 01       		.uleb128 0x1
 6886 086c 51       		.byte	0x51
 6887 086d 9F       		.byte	0x9f
 6888 086e 00000000 		.4byte	0
 6889 0872 00000000 		.4byte	0
 6890              	.LLST62:
 6891 0876 00000000 		.4byte	.LFB63
 6892 087a 02000000 		.4byte	.LCFI23
 6893 087e 0200     		.2byte	0x2
 6894 0880 7D       		.byte	0x7d
 6895 0881 00       		.sleb128 0
 6896 0882 02000000 		.4byte	.LCFI23
 6897 0886 4E000000 		.4byte	.LFE63
 6898 088a 0200     		.2byte	0x2
 6899 088c 7D       		.byte	0x7d
 6900 088d 10       		.sleb128 16
 6901 088e 00000000 		.4byte	0
 6902 0892 00000000 		.4byte	0
 6903              	.LLST63:
 6904 0896 00000000 		.4byte	.LVL167
 6905 089a 06000000 		.4byte	.LVL168
 6906 089e 0100     		.2byte	0x1
 6907 08a0 50       		.byte	0x50
 6908 08a1 06000000 		.4byte	.LVL168
 6909 08a5 4E000000 		.4byte	.LFE63
 6910 08a9 0400     		.2byte	0x4
 6911 08ab F3       		.byte	0xf3
 6912 08ac 01       		.uleb128 0x1
 6913 08ad 50       		.byte	0x50
 6914 08ae 9F       		.byte	0x9f
 6915 08af 00000000 		.4byte	0
 6916 08b3 00000000 		.4byte	0
 6917              	.LLST64:
 6918 08b7 00000000 		.4byte	.LVL167
 6919 08bb 0C000000 		.4byte	.LVL169
 6920 08bf 0100     		.2byte	0x1
 6921 08c1 51       		.byte	0x51
 6922 08c2 0C000000 		.4byte	.LVL169
 6923 08c6 4C000000 		.4byte	.LVL176
 6924 08ca 0100     		.2byte	0x1
 6925 08cc 54       		.byte	0x54
 6926 08cd 4C000000 		.4byte	.LVL176
 6927 08d1 4E000000 		.4byte	.LFE63
 6928 08d5 0400     		.2byte	0x4
 6929 08d7 F3       		.byte	0xf3
 6930 08d8 01       		.uleb128 0x1
 6931 08d9 51       		.byte	0x51
 6932 08da 9F       		.byte	0x9f
 6933 08db 00000000 		.4byte	0
 6934 08df 00000000 		.4byte	0
ARM GAS  C:\Users\atsu\AppData\Local\Temp\ccNplIXy.s 			page 138


 6935              	.LLST65:
 6936 08e3 00000000 		.4byte	.LFB64
 6937 08e7 02000000 		.4byte	.LCFI24
 6938 08eb 0200     		.2byte	0x2
 6939 08ed 7D       		.byte	0x7d
 6940 08ee 00       		.sleb128 0
 6941 08ef 02000000 		.4byte	.LCFI24
 6942 08f3 3A000000 		.4byte	.LFE64
 6943 08f7 0200     		.2byte	0x2
 6944 08f9 7D       		.byte	0x7d
 6945 08fa 10       		.sleb128 16
 6946 08fb 00000000 		.4byte	0
 6947 08ff 00000000 		.4byte	0
 6948              	.LLST66:
 6949 0903 00000000 		.4byte	.LVL177
 6950 0907 06000000 		.4byte	.LVL178
 6951 090b 0100     		.2byte	0x1
 6952 090d 50       		.byte	0x50
 6953 090e 06000000 		.4byte	.LVL178
 6954 0912 3A000000 		.4byte	.LFE64
 6955 0916 0400     		.2byte	0x4
 6956 0918 F3       		.byte	0xf3
 6957 0919 01       		.uleb128 0x1
 6958 091a 50       		.byte	0x50
 6959 091b 9F       		.byte	0x9f
 6960 091c 00000000 		.4byte	0
 6961 0920 00000000 		.4byte	0
 6962              	.LLST67:
 6963 0924 00000000 		.4byte	.LVL177
 6964 0928 0C000000 		.4byte	.LVL179
 6965 092c 0100     		.2byte	0x1
 6966 092e 51       		.byte	0x51
 6967 092f 0C000000 		.4byte	.LVL179
 6968 0933 38000000 		.4byte	.LVL184
 6969 0937 0100     		.2byte	0x1
 6970 0939 54       		.byte	0x54
 6971 093a 38000000 		.4byte	.LVL184
 6972 093e 3A000000 		.4byte	.LFE64
 6973 0942 0400     		.2byte	0x4
 6974 0944 F3       		.byte	0xf3
 6975 0945 01       		.uleb128 0x1
 6976 0946 51       		.byte	0x51
 6977 0947 9F       		.byte	0x9f
 6978 0948 00000000 		.4byte	0
 6979 094c 00000000 		.4byte	0
 6980              	.LLST68:
 6981 0950 00000000 		.4byte	.LFB65
 6982 0954 02000000 		.4byte	.LCFI25
 6983 0958 0200     		.2byte	0x2
 6984 095a 7D       		.byte	0x7d
 6985 095b 00       		.sleb128 0
 6986 095c 02000000 		.4byte	.LCFI25
 6987 0960 3A000000 		.4byte	.LFE65
 6988 0964 0200     		.2byte	0x2
 6989 0966 7D       		.byte	0x7d
 6990 0967 10       		.sleb128 16
 6991 0968 00000000 		.4byte	0
ARM GAS  C:\Users\atsu\AppData\Local\Temp\ccNplIXy.s 			page 139


 6992 096c 00000000 		.4byte	0
 6993              	.LLST69:
 6994 0970 00000000 		.4byte	.LVL185
 6995 0974 06000000 		.4byte	.LVL186
 6996 0978 0100     		.2byte	0x1
 6997 097a 50       		.byte	0x50
 6998 097b 06000000 		.4byte	.LVL186
 6999 097f 3A000000 		.4byte	.LFE65
 7000 0983 0400     		.2byte	0x4
 7001 0985 F3       		.byte	0xf3
 7002 0986 01       		.uleb128 0x1
 7003 0987 50       		.byte	0x50
 7004 0988 9F       		.byte	0x9f
 7005 0989 00000000 		.4byte	0
 7006 098d 00000000 		.4byte	0
 7007              	.LLST70:
 7008 0991 00000000 		.4byte	.LVL185
 7009 0995 0C000000 		.4byte	.LVL187
 7010 0999 0100     		.2byte	0x1
 7011 099b 51       		.byte	0x51
 7012 099c 0C000000 		.4byte	.LVL187
 7013 09a0 38000000 		.4byte	.LVL192
 7014 09a4 0100     		.2byte	0x1
 7015 09a6 54       		.byte	0x54
 7016 09a7 38000000 		.4byte	.LVL192
 7017 09ab 3A000000 		.4byte	.LFE65
 7018 09af 0400     		.2byte	0x4
 7019 09b1 F3       		.byte	0xf3
 7020 09b2 01       		.uleb128 0x1
 7021 09b3 51       		.byte	0x51
 7022 09b4 9F       		.byte	0x9f
 7023 09b5 00000000 		.4byte	0
 7024 09b9 00000000 		.4byte	0
 7025              	.LLST71:
 7026 09bd 00000000 		.4byte	.LFB66
 7027 09c1 02000000 		.4byte	.LCFI26
 7028 09c5 0200     		.2byte	0x2
 7029 09c7 7D       		.byte	0x7d
 7030 09c8 00       		.sleb128 0
 7031 09c9 02000000 		.4byte	.LCFI26
 7032 09cd 22000000 		.4byte	.LFE66
 7033 09d1 0200     		.2byte	0x2
 7034 09d3 7D       		.byte	0x7d
 7035 09d4 10       		.sleb128 16
 7036 09d5 00000000 		.4byte	0
 7037 09d9 00000000 		.4byte	0
 7038              	.LLST72:
 7039 09dd 00000000 		.4byte	.LVL193
 7040 09e1 06000000 		.4byte	.LVL194
 7041 09e5 0100     		.2byte	0x1
 7042 09e7 50       		.byte	0x50
 7043 09e8 06000000 		.4byte	.LVL194
 7044 09ec 22000000 		.4byte	.LFE66
 7045 09f0 0400     		.2byte	0x4
 7046 09f2 F3       		.byte	0xf3
 7047 09f3 01       		.uleb128 0x1
 7048 09f4 50       		.byte	0x50
ARM GAS  C:\Users\atsu\AppData\Local\Temp\ccNplIXy.s 			page 140


 7049 09f5 9F       		.byte	0x9f
 7050 09f6 00000000 		.4byte	0
 7051 09fa 00000000 		.4byte	0
 7052              	.LLST73:
 7053 09fe 00000000 		.4byte	.LVL193
 7054 0a02 0C000000 		.4byte	.LVL195
 7055 0a06 0100     		.2byte	0x1
 7056 0a08 51       		.byte	0x51
 7057 0a09 0C000000 		.4byte	.LVL195
 7058 0a0d 20000000 		.4byte	.LVL198
 7059 0a11 0100     		.2byte	0x1
 7060 0a13 54       		.byte	0x54
 7061 0a14 20000000 		.4byte	.LVL198
 7062 0a18 22000000 		.4byte	.LFE66
 7063 0a1c 0400     		.2byte	0x4
 7064 0a1e F3       		.byte	0xf3
 7065 0a1f 01       		.uleb128 0x1
 7066 0a20 51       		.byte	0x51
 7067 0a21 9F       		.byte	0x9f
 7068 0a22 00000000 		.4byte	0
 7069 0a26 00000000 		.4byte	0
 7070              	.LLST74:
 7071 0a2a 00000000 		.4byte	.LFB67
 7072 0a2e 02000000 		.4byte	.LCFI27
 7073 0a32 0200     		.2byte	0x2
 7074 0a34 7D       		.byte	0x7d
 7075 0a35 00       		.sleb128 0
 7076 0a36 02000000 		.4byte	.LCFI27
 7077 0a3a 22000000 		.4byte	.LFE67
 7078 0a3e 0200     		.2byte	0x2
 7079 0a40 7D       		.byte	0x7d
 7080 0a41 10       		.sleb128 16
 7081 0a42 00000000 		.4byte	0
 7082 0a46 00000000 		.4byte	0
 7083              	.LLST75:
 7084 0a4a 00000000 		.4byte	.LVL199
 7085 0a4e 06000000 		.4byte	.LVL200
 7086 0a52 0100     		.2byte	0x1
 7087 0a54 50       		.byte	0x50
 7088 0a55 06000000 		.4byte	.LVL200
 7089 0a59 22000000 		.4byte	.LFE67
 7090 0a5d 0400     		.2byte	0x4
 7091 0a5f F3       		.byte	0xf3
 7092 0a60 01       		.uleb128 0x1
 7093 0a61 50       		.byte	0x50
 7094 0a62 9F       		.byte	0x9f
 7095 0a63 00000000 		.4byte	0
 7096 0a67 00000000 		.4byte	0
 7097              	.LLST76:
 7098 0a6b 00000000 		.4byte	.LVL199
 7099 0a6f 0C000000 		.4byte	.LVL201
 7100 0a73 0100     		.2byte	0x1
 7101 0a75 51       		.byte	0x51
 7102 0a76 0C000000 		.4byte	.LVL201
 7103 0a7a 20000000 		.4byte	.LVL204
 7104 0a7e 0100     		.2byte	0x1
 7105 0a80 54       		.byte	0x54
ARM GAS  C:\Users\atsu\AppData\Local\Temp\ccNplIXy.s 			page 141


 7106 0a81 20000000 		.4byte	.LVL204
 7107 0a85 22000000 		.4byte	.LFE67
 7108 0a89 0400     		.2byte	0x4
 7109 0a8b F3       		.byte	0xf3
 7110 0a8c 01       		.uleb128 0x1
 7111 0a8d 51       		.byte	0x51
 7112 0a8e 9F       		.byte	0x9f
 7113 0a8f 00000000 		.4byte	0
 7114 0a93 00000000 		.4byte	0
 7115              	.LLST77:
 7116 0a97 00000000 		.4byte	.LFB68
 7117 0a9b 02000000 		.4byte	.LCFI28
 7118 0a9f 0200     		.2byte	0x2
 7119 0aa1 7D       		.byte	0x7d
 7120 0aa2 00       		.sleb128 0
 7121 0aa3 02000000 		.4byte	.LCFI28
 7122 0aa7 22000000 		.4byte	.LFE68
 7123 0aab 0200     		.2byte	0x2
 7124 0aad 7D       		.byte	0x7d
 7125 0aae 10       		.sleb128 16
 7126 0aaf 00000000 		.4byte	0
 7127 0ab3 00000000 		.4byte	0
 7128              	.LLST78:
 7129 0ab7 00000000 		.4byte	.LVL205
 7130 0abb 06000000 		.4byte	.LVL206
 7131 0abf 0100     		.2byte	0x1
 7132 0ac1 50       		.byte	0x50
 7133 0ac2 06000000 		.4byte	.LVL206
 7134 0ac6 22000000 		.4byte	.LFE68
 7135 0aca 0400     		.2byte	0x4
 7136 0acc F3       		.byte	0xf3
 7137 0acd 01       		.uleb128 0x1
 7138 0ace 50       		.byte	0x50
 7139 0acf 9F       		.byte	0x9f
 7140 0ad0 00000000 		.4byte	0
 7141 0ad4 00000000 		.4byte	0
 7142              	.LLST79:
 7143 0ad8 00000000 		.4byte	.LVL205
 7144 0adc 0C000000 		.4byte	.LVL207
 7145 0ae0 0100     		.2byte	0x1
 7146 0ae2 51       		.byte	0x51
 7147 0ae3 0C000000 		.4byte	.LVL207
 7148 0ae7 22000000 		.4byte	.LFE68
 7149 0aeb 0400     		.2byte	0x4
 7150 0aed F3       		.byte	0xf3
 7151 0aee 01       		.uleb128 0x1
 7152 0aef 51       		.byte	0x51
 7153 0af0 9F       		.byte	0x9f
 7154 0af1 00000000 		.4byte	0
 7155 0af5 00000000 		.4byte	0
 7156              	.LLST80:
 7157 0af9 00000000 		.4byte	.LFB69
 7158 0afd 02000000 		.4byte	.LCFI29
 7159 0b01 0200     		.2byte	0x2
 7160 0b03 7D       		.byte	0x7d
 7161 0b04 00       		.sleb128 0
 7162 0b05 02000000 		.4byte	.LCFI29
ARM GAS  C:\Users\atsu\AppData\Local\Temp\ccNplIXy.s 			page 142


 7163 0b09 14000000 		.4byte	.LFE69
 7164 0b0d 0200     		.2byte	0x2
 7165 0b0f 7D       		.byte	0x7d
 7166 0b10 08       		.sleb128 8
 7167 0b11 00000000 		.4byte	0
 7168 0b15 00000000 		.4byte	0
 7169              	.LLST81:
 7170 0b19 00000000 		.4byte	.LVL210
 7171 0b1d 06000000 		.4byte	.LVL211
 7172 0b21 0100     		.2byte	0x1
 7173 0b23 50       		.byte	0x50
 7174 0b24 06000000 		.4byte	.LVL211
 7175 0b28 14000000 		.4byte	.LFE69
 7176 0b2c 0400     		.2byte	0x4
 7177 0b2e F3       		.byte	0xf3
 7178 0b2f 01       		.uleb128 0x1
 7179 0b30 50       		.byte	0x50
 7180 0b31 9F       		.byte	0x9f
 7181 0b32 00000000 		.4byte	0
 7182 0b36 00000000 		.4byte	0
 7183              	.LLST82:
 7184 0b3a 00000000 		.4byte	.LVL210
 7185 0b3e 0D000000 		.4byte	.LVL212-1
 7186 0b42 0100     		.2byte	0x1
 7187 0b44 51       		.byte	0x51
 7188 0b45 0D000000 		.4byte	.LVL212-1
 7189 0b49 14000000 		.4byte	.LFE69
 7190 0b4d 0400     		.2byte	0x4
 7191 0b4f F3       		.byte	0xf3
 7192 0b50 01       		.uleb128 0x1
 7193 0b51 51       		.byte	0x51
 7194 0b52 9F       		.byte	0x9f
 7195 0b53 00000000 		.4byte	0
 7196 0b57 00000000 		.4byte	0
 7197              	.LLST83:
 7198 0b5b 00000000 		.4byte	.LFB70
 7199 0b5f 02000000 		.4byte	.LCFI30
 7200 0b63 0200     		.2byte	0x2
 7201 0b65 7D       		.byte	0x7d
 7202 0b66 00       		.sleb128 0
 7203 0b67 02000000 		.4byte	.LCFI30
 7204 0b6b 14000000 		.4byte	.LFE70
 7205 0b6f 0200     		.2byte	0x2
 7206 0b71 7D       		.byte	0x7d
 7207 0b72 08       		.sleb128 8
 7208 0b73 00000000 		.4byte	0
 7209 0b77 00000000 		.4byte	0
 7210              	.LLST84:
 7211 0b7b 00000000 		.4byte	.LVL213
 7212 0b7f 06000000 		.4byte	.LVL214
 7213 0b83 0100     		.2byte	0x1
 7214 0b85 50       		.byte	0x50
 7215 0b86 06000000 		.4byte	.LVL214
 7216 0b8a 14000000 		.4byte	.LFE70
 7217 0b8e 0400     		.2byte	0x4
 7218 0b90 F3       		.byte	0xf3
 7219 0b91 01       		.uleb128 0x1
ARM GAS  C:\Users\atsu\AppData\Local\Temp\ccNplIXy.s 			page 143


 7220 0b92 50       		.byte	0x50
 7221 0b93 9F       		.byte	0x9f
 7222 0b94 00000000 		.4byte	0
 7223 0b98 00000000 		.4byte	0
 7224              	.LLST85:
 7225 0b9c 00000000 		.4byte	.LVL213
 7226 0ba0 0D000000 		.4byte	.LVL215-1
 7227 0ba4 0100     		.2byte	0x1
 7228 0ba6 51       		.byte	0x51
 7229 0ba7 0D000000 		.4byte	.LVL215-1
 7230 0bab 14000000 		.4byte	.LFE70
 7231 0baf 0400     		.2byte	0x4
 7232 0bb1 F3       		.byte	0xf3
 7233 0bb2 01       		.uleb128 0x1
 7234 0bb3 51       		.byte	0x51
 7235 0bb4 9F       		.byte	0x9f
 7236 0bb5 00000000 		.4byte	0
 7237 0bb9 00000000 		.4byte	0
 7238              	.LLST86:
 7239 0bbd 00000000 		.4byte	.LFB71
 7240 0bc1 02000000 		.4byte	.LCFI31
 7241 0bc5 0200     		.2byte	0x2
 7242 0bc7 7D       		.byte	0x7d
 7243 0bc8 00       		.sleb128 0
 7244 0bc9 02000000 		.4byte	.LCFI31
 7245 0bcd 14000000 		.4byte	.LFE71
 7246 0bd1 0200     		.2byte	0x2
 7247 0bd3 7D       		.byte	0x7d
 7248 0bd4 08       		.sleb128 8
 7249 0bd5 00000000 		.4byte	0
 7250 0bd9 00000000 		.4byte	0
 7251              	.LLST87:
 7252 0bdd 00000000 		.4byte	.LVL216
 7253 0be1 06000000 		.4byte	.LVL217
 7254 0be5 0100     		.2byte	0x1
 7255 0be7 50       		.byte	0x50
 7256 0be8 06000000 		.4byte	.LVL217
 7257 0bec 14000000 		.4byte	.LFE71
 7258 0bf0 0400     		.2byte	0x4
 7259 0bf2 F3       		.byte	0xf3
 7260 0bf3 01       		.uleb128 0x1
 7261 0bf4 50       		.byte	0x50
 7262 0bf5 9F       		.byte	0x9f
 7263 0bf6 00000000 		.4byte	0
 7264 0bfa 00000000 		.4byte	0
 7265              	.LLST88:
 7266 0bfe 00000000 		.4byte	.LFB72
 7267 0c02 02000000 		.4byte	.LCFI32
 7268 0c06 0200     		.2byte	0x2
 7269 0c08 7D       		.byte	0x7d
 7270 0c09 00       		.sleb128 0
 7271 0c0a 02000000 		.4byte	.LCFI32
 7272 0c0e 14000000 		.4byte	.LFE72
 7273 0c12 0200     		.2byte	0x2
 7274 0c14 7D       		.byte	0x7d
 7275 0c15 08       		.sleb128 8
 7276 0c16 00000000 		.4byte	0
ARM GAS  C:\Users\atsu\AppData\Local\Temp\ccNplIXy.s 			page 144


 7277 0c1a 00000000 		.4byte	0
 7278              	.LLST89:
 7279 0c1e 00000000 		.4byte	.LVL219
 7280 0c22 06000000 		.4byte	.LVL220
 7281 0c26 0100     		.2byte	0x1
 7282 0c28 50       		.byte	0x50
 7283 0c29 06000000 		.4byte	.LVL220
 7284 0c2d 14000000 		.4byte	.LFE72
 7285 0c31 0400     		.2byte	0x4
 7286 0c33 F3       		.byte	0xf3
 7287 0c34 01       		.uleb128 0x1
 7288 0c35 50       		.byte	0x50
 7289 0c36 9F       		.byte	0x9f
 7290 0c37 00000000 		.4byte	0
 7291 0c3b 00000000 		.4byte	0
 7292              	.LLST90:
 7293 0c3f 00000000 		.4byte	.LFB73
 7294 0c43 02000000 		.4byte	.LCFI33
 7295 0c47 0200     		.2byte	0x2
 7296 0c49 7D       		.byte	0x7d
 7297 0c4a 00       		.sleb128 0
 7298 0c4b 02000000 		.4byte	.LCFI33
 7299 0c4f 48000000 		.4byte	.LFE73
 7300 0c53 0200     		.2byte	0x2
 7301 0c55 7D       		.byte	0x7d
 7302 0c56 18       		.sleb128 24
 7303 0c57 00000000 		.4byte	0
 7304 0c5b 00000000 		.4byte	0
 7305              	.LLST91:
 7306 0c5f 00000000 		.4byte	.LVL222
 7307 0c63 06000000 		.4byte	.LVL223
 7308 0c67 0100     		.2byte	0x1
 7309 0c69 50       		.byte	0x50
 7310 0c6a 06000000 		.4byte	.LVL223
 7311 0c6e 48000000 		.4byte	.LFE73
 7312 0c72 0400     		.2byte	0x4
 7313 0c74 F3       		.byte	0xf3
 7314 0c75 01       		.uleb128 0x1
 7315 0c76 50       		.byte	0x50
 7316 0c77 9F       		.byte	0x9f
 7317 0c78 00000000 		.4byte	0
 7318 0c7c 00000000 		.4byte	0
 7319              	.LLST92:
 7320 0c80 00000000 		.4byte	.LVL222
 7321 0c84 14000000 		.4byte	.LVL224
 7322 0c88 0200     		.2byte	0x2
 7323 0c8a 30       		.byte	0x30
 7324 0c8b 9F       		.byte	0x9f
 7325 0c8c 14000000 		.4byte	.LVL224
 7326 0c90 32000000 		.4byte	.LVL229
 7327 0c94 0100     		.2byte	0x1
 7328 0c96 54       		.byte	0x54
 7329 0c97 32000000 		.4byte	.LVL229
 7330 0c9b 36000000 		.4byte	.LVL230
 7331 0c9f 0600     		.2byte	0x6
 7332 0ca1 70       		.byte	0x70
 7333 0ca2 00       		.sleb128 0
ARM GAS  C:\Users\atsu\AppData\Local\Temp\ccNplIXy.s 			page 145


 7334 0ca3 08       		.byte	0x8
 7335 0ca4 FF       		.byte	0xff
 7336 0ca5 1A       		.byte	0x1a
 7337 0ca6 9F       		.byte	0x9f
 7338 0ca7 40000000 		.4byte	.LVL232
 7339 0cab 46000000 		.4byte	.LVL233
 7340 0caf 0100     		.2byte	0x1
 7341 0cb1 54       		.byte	0x54
 7342 0cb2 46000000 		.4byte	.LVL233
 7343 0cb6 48000000 		.4byte	.LFE73
 7344 0cba 0100     		.2byte	0x1
 7345 0cbc 50       		.byte	0x50
 7346 0cbd 00000000 		.4byte	0
 7347 0cc1 00000000 		.4byte	0
 7348              	.LLST93:
 7349 0cc5 00000000 		.4byte	.LVL222
 7350 0cc9 14000000 		.4byte	.LVL224
 7351 0ccd 0200     		.2byte	0x2
 7352 0ccf 30       		.byte	0x30
 7353 0cd0 9F       		.byte	0x9f
 7354 0cd1 1A000000 		.4byte	.LVL225
 7355 0cd5 1E000000 		.4byte	.LVL226
 7356 0cd9 0600     		.2byte	0x6
 7357 0cdb 70       		.byte	0x70
 7358 0cdc 00       		.sleb128 0
 7359 0cdd 08       		.byte	0x8
 7360 0cde FF       		.byte	0xff
 7361 0cdf 1A       		.byte	0x1a
 7362 0ce0 9F       		.byte	0x9f
 7363 0ce1 28000000 		.4byte	.LVL228
 7364 0ce5 31000000 		.4byte	.LVL229-1
 7365 0ce9 0100     		.2byte	0x1
 7366 0ceb 52       		.byte	0x52
 7367 0cec 31000000 		.4byte	.LVL229-1
 7368 0cf0 46000000 		.4byte	.LVL234
 7369 0cf4 0100     		.2byte	0x1
 7370 0cf6 55       		.byte	0x55
 7371 0cf7 00000000 		.4byte	0
 7372 0cfb 00000000 		.4byte	0
 7373              	.LLST94:
 7374 0cff 00000000 		.4byte	.LFB74
 7375 0d03 02000000 		.4byte	.LCFI34
 7376 0d07 0200     		.2byte	0x2
 7377 0d09 7D       		.byte	0x7d
 7378 0d0a 00       		.sleb128 0
 7379 0d0b 02000000 		.4byte	.LCFI34
 7380 0d0f 48000000 		.4byte	.LFE74
 7381 0d13 0200     		.2byte	0x2
 7382 0d15 7D       		.byte	0x7d
 7383 0d16 18       		.sleb128 24
 7384 0d17 00000000 		.4byte	0
 7385 0d1b 00000000 		.4byte	0
 7386              	.LLST95:
 7387 0d1f 00000000 		.4byte	.LVL235
 7388 0d23 06000000 		.4byte	.LVL236
 7389 0d27 0100     		.2byte	0x1
 7390 0d29 50       		.byte	0x50
ARM GAS  C:\Users\atsu\AppData\Local\Temp\ccNplIXy.s 			page 146


 7391 0d2a 06000000 		.4byte	.LVL236
 7392 0d2e 48000000 		.4byte	.LFE74
 7393 0d32 0400     		.2byte	0x4
 7394 0d34 F3       		.byte	0xf3
 7395 0d35 01       		.uleb128 0x1
 7396 0d36 50       		.byte	0x50
 7397 0d37 9F       		.byte	0x9f
 7398 0d38 00000000 		.4byte	0
 7399 0d3c 00000000 		.4byte	0
 7400              	.LLST96:
 7401 0d40 00000000 		.4byte	.LVL235
 7402 0d44 14000000 		.4byte	.LVL237
 7403 0d48 0200     		.2byte	0x2
 7404 0d4a 30       		.byte	0x30
 7405 0d4b 9F       		.byte	0x9f
 7406 0d4c 14000000 		.4byte	.LVL237
 7407 0d50 32000000 		.4byte	.LVL242
 7408 0d54 0100     		.2byte	0x1
 7409 0d56 54       		.byte	0x54
 7410 0d57 32000000 		.4byte	.LVL242
 7411 0d5b 36000000 		.4byte	.LVL243
 7412 0d5f 0600     		.2byte	0x6
 7413 0d61 70       		.byte	0x70
 7414 0d62 00       		.sleb128 0
 7415 0d63 08       		.byte	0x8
 7416 0d64 FF       		.byte	0xff
 7417 0d65 1A       		.byte	0x1a
 7418 0d66 9F       		.byte	0x9f
 7419 0d67 40000000 		.4byte	.LVL245
 7420 0d6b 46000000 		.4byte	.LVL246
 7421 0d6f 0100     		.2byte	0x1
 7422 0d71 54       		.byte	0x54
 7423 0d72 46000000 		.4byte	.LVL246
 7424 0d76 48000000 		.4byte	.LFE74
 7425 0d7a 0100     		.2byte	0x1
 7426 0d7c 50       		.byte	0x50
 7427 0d7d 00000000 		.4byte	0
 7428 0d81 00000000 		.4byte	0
 7429              	.LLST97:
 7430 0d85 00000000 		.4byte	.LVL235
 7431 0d89 14000000 		.4byte	.LVL237
 7432 0d8d 0200     		.2byte	0x2
 7433 0d8f 30       		.byte	0x30
 7434 0d90 9F       		.byte	0x9f
 7435 0d91 1A000000 		.4byte	.LVL238
 7436 0d95 1E000000 		.4byte	.LVL239
 7437 0d99 0600     		.2byte	0x6
 7438 0d9b 70       		.byte	0x70
 7439 0d9c 00       		.sleb128 0
 7440 0d9d 08       		.byte	0x8
 7441 0d9e FF       		.byte	0xff
 7442 0d9f 1A       		.byte	0x1a
 7443 0da0 9F       		.byte	0x9f
 7444 0da1 28000000 		.4byte	.LVL241
 7445 0da5 31000000 		.4byte	.LVL242-1
 7446 0da9 0100     		.2byte	0x1
 7447 0dab 52       		.byte	0x52
ARM GAS  C:\Users\atsu\AppData\Local\Temp\ccNplIXy.s 			page 147


 7448 0dac 31000000 		.4byte	.LVL242-1
 7449 0db0 46000000 		.4byte	.LVL247
 7450 0db4 0100     		.2byte	0x1
 7451 0db6 55       		.byte	0x55
 7452 0db7 00000000 		.4byte	0
 7453 0dbb 00000000 		.4byte	0
 7454              	.LLST98:
 7455 0dbf 00000000 		.4byte	.LFB77
 7456 0dc3 02000000 		.4byte	.LCFI35
 7457 0dc7 0200     		.2byte	0x2
 7458 0dc9 7D       		.byte	0x7d
 7459 0dca 00       		.sleb128 0
 7460 0dcb 02000000 		.4byte	.LCFI35
 7461 0dcf 44000000 		.4byte	.LFE77
 7462 0dd3 0200     		.2byte	0x2
 7463 0dd5 7D       		.byte	0x7d
 7464 0dd6 18       		.sleb128 24
 7465 0dd7 00000000 		.4byte	0
 7466 0ddb 00000000 		.4byte	0
 7467              	.LLST99:
 7468 0ddf 00000000 		.4byte	.LVL248
 7469 0de3 06000000 		.4byte	.LVL249
 7470 0de7 0100     		.2byte	0x1
 7471 0de9 50       		.byte	0x50
 7472 0dea 06000000 		.4byte	.LVL249
 7473 0dee 44000000 		.4byte	.LFE77
 7474 0df2 0400     		.2byte	0x4
 7475 0df4 F3       		.byte	0xf3
 7476 0df5 01       		.uleb128 0x1
 7477 0df6 50       		.byte	0x50
 7478 0df7 9F       		.byte	0x9f
 7479 0df8 00000000 		.4byte	0
 7480 0dfc 00000000 		.4byte	0
 7481              	.LLST100:
 7482 0e00 00000000 		.4byte	.LVL248
 7483 0e04 0E000000 		.4byte	.LVL250
 7484 0e08 0100     		.2byte	0x1
 7485 0e0a 51       		.byte	0x51
 7486 0e0b 0E000000 		.4byte	.LVL250
 7487 0e0f 2A000000 		.4byte	.LVL258
 7488 0e13 0100     		.2byte	0x1
 7489 0e15 56       		.byte	0x56
 7490 0e16 2A000000 		.4byte	.LVL258
 7491 0e1a 2E000000 		.4byte	.LVL259
 7492 0e1e 0A00     		.2byte	0xa
 7493 0e20 77       		.byte	0x77
 7494 0e21 00       		.sleb128 0
 7495 0e22 0A       		.byte	0xa
 7496 0e23 FFFF     		.2byte	0xffff
 7497 0e25 1A       		.byte	0x1a
 7498 0e26 76       		.byte	0x76
 7499 0e27 00       		.sleb128 0
 7500 0e28 22       		.byte	0x22
 7501 0e29 9F       		.byte	0x9f
 7502 0e2a 2E000000 		.4byte	.LVL259
 7503 0e2e 34000000 		.4byte	.LVL260
 7504 0e32 0B00     		.2byte	0xb
ARM GAS  C:\Users\atsu\AppData\Local\Temp\ccNplIXy.s 			page 148


 7505 0e34 77       		.byte	0x77
 7506 0e35 00       		.sleb128 0
 7507 0e36 0A       		.byte	0xa
 7508 0e37 FFFF     		.2byte	0xffff
 7509 0e39 1A       		.byte	0x1a
 7510 0e3a F3       		.byte	0xf3
 7511 0e3b 01       		.uleb128 0x1
 7512 0e3c 51       		.byte	0x51
 7513 0e3d 22       		.byte	0x22
 7514 0e3e 9F       		.byte	0x9f
 7515 0e3f 34000000 		.4byte	.LVL260
 7516 0e43 38000000 		.4byte	.LVL262
 7517 0e47 0100     		.2byte	0x1
 7518 0e49 56       		.byte	0x56
 7519 0e4a 00000000 		.4byte	0
 7520 0e4e 00000000 		.4byte	0
 7521              	.LLST101:
 7522 0e52 00000000 		.4byte	.LVL248
 7523 0e56 10000000 		.4byte	.LVL251
 7524 0e5a 0100     		.2byte	0x1
 7525 0e5c 52       		.byte	0x52
 7526 0e5d 10000000 		.4byte	.LVL251
 7527 0e61 44000000 		.4byte	.LFE77
 7528 0e65 0400     		.2byte	0x4
 7529 0e67 F3       		.byte	0xf3
 7530 0e68 01       		.uleb128 0x1
 7531 0e69 52       		.byte	0x52
 7532 0e6a 9F       		.byte	0x9f
 7533 0e6b 00000000 		.4byte	0
 7534 0e6f 00000000 		.4byte	0
 7535              	.LLST102:
 7536 0e73 00000000 		.4byte	.LVL248
 7537 0e77 18000000 		.4byte	.LVL253
 7538 0e7b 0100     		.2byte	0x1
 7539 0e7d 53       		.byte	0x53
 7540 0e7e 18000000 		.4byte	.LVL253
 7541 0e82 44000000 		.4byte	.LFE77
 7542 0e86 0400     		.2byte	0x4
 7543 0e88 F3       		.byte	0xf3
 7544 0e89 01       		.uleb128 0x1
 7545 0e8a 53       		.byte	0x53
 7546 0e8b 9F       		.byte	0x9f
 7547 0e8c 00000000 		.4byte	0
 7548 0e90 00000000 		.4byte	0
 7549              	.LLST103:
 7550 0e94 22000000 		.4byte	.LVL256
 7551 0e98 29000000 		.4byte	.LVL258-1
 7552 0e9c 0100     		.2byte	0x1
 7553 0e9e 52       		.byte	0x52
 7554 0e9f 29000000 		.4byte	.LVL258-1
 7555 0ea3 2A000000 		.4byte	.LVL258
 7556 0ea7 0100     		.2byte	0x1
 7557 0ea9 57       		.byte	0x57
 7558 0eaa 2A000000 		.4byte	.LVL258
 7559 0eae 34000000 		.4byte	.LVL260
 7560 0eb2 0600     		.2byte	0x6
 7561 0eb4 75       		.byte	0x75
ARM GAS  C:\Users\atsu\AppData\Local\Temp\ccNplIXy.s 			page 149


 7562 0eb5 00       		.sleb128 0
 7563 0eb6 77       		.byte	0x77
 7564 0eb7 00       		.sleb128 0
 7565 0eb8 1C       		.byte	0x1c
 7566 0eb9 9F       		.byte	0x9f
 7567 0eba 00000000 		.4byte	0
 7568 0ebe 00000000 		.4byte	0
 7569              	.LLST104:
 7570 0ec2 10000000 		.4byte	.LVL251
 7571 0ec6 20000000 		.4byte	.LVL255
 7572 0eca 0100     		.2byte	0x1
 7573 0ecc 52       		.byte	0x52
 7574 0ecd 20000000 		.4byte	.LVL255
 7575 0ed1 29000000 		.4byte	.LVL258-1
 7576 0ed5 0D00     		.2byte	0xd
 7577 0ed7 74       		.byte	0x74
 7578 0ed8 1C       		.sleb128 28
 7579 0ed9 94       		.byte	0x94
 7580 0eda 02       		.byte	0x2
 7581 0edb 0A       		.byte	0xa
 7582 0edc FFFF     		.2byte	0xffff
 7583 0ede 1A       		.byte	0x1a
 7584 0edf F3       		.byte	0xf3
 7585 0ee0 01       		.uleb128 0x1
 7586 0ee1 52       		.byte	0x52
 7587 0ee2 1A       		.byte	0x1a
 7588 0ee3 9F       		.byte	0x9f
 7589 0ee4 34000000 		.4byte	.LVL260
 7590 0ee8 38000000 		.4byte	.LVL262
 7591 0eec 0100     		.2byte	0x1
 7592 0eee 52       		.byte	0x52
 7593 0eef 00000000 		.4byte	0
 7594 0ef3 00000000 		.4byte	0
 7595              	.LLST105:
 7596 0ef7 16000000 		.4byte	.LVL252
 7597 0efb 1A000000 		.4byte	.LVL254
 7598 0eff 0100     		.2byte	0x1
 7599 0f01 50       		.byte	0x50
 7600 0f02 1A000000 		.4byte	.LVL254
 7601 0f06 20000000 		.4byte	.LVL255
 7602 0f0a 0600     		.2byte	0x6
 7603 0f0c 71       		.byte	0x71
 7604 0f0d 00       		.sleb128 0
 7605 0f0e 72       		.byte	0x72
 7606 0f0f 00       		.sleb128 0
 7607 0f10 22       		.byte	0x22
 7608 0f11 9F       		.byte	0x9f
 7609 0f12 20000000 		.4byte	.LVL255
 7610 0f16 24000000 		.4byte	.LVL257
 7611 0f1a 1000     		.2byte	0x10
 7612 0f1c 74       		.byte	0x74
 7613 0f1d 1C       		.sleb128 28
 7614 0f1e 94       		.byte	0x94
 7615 0f1f 02       		.byte	0x2
 7616 0f20 0A       		.byte	0xa
 7617 0f21 FFFF     		.2byte	0xffff
 7618 0f23 1A       		.byte	0x1a
ARM GAS  C:\Users\atsu\AppData\Local\Temp\ccNplIXy.s 			page 150


 7619 0f24 F3       		.byte	0xf3
 7620 0f25 01       		.uleb128 0x1
 7621 0f26 52       		.byte	0x52
 7622 0f27 1A       		.byte	0x1a
 7623 0f28 71       		.byte	0x71
 7624 0f29 00       		.sleb128 0
 7625 0f2a 22       		.byte	0x22
 7626 0f2b 9F       		.byte	0x9f
 7627 0f2c 24000000 		.4byte	.LVL257
 7628 0f30 29000000 		.4byte	.LVL258-1
 7629 0f34 1600     		.2byte	0x16
 7630 0f36 74       		.byte	0x74
 7631 0f37 1C       		.sleb128 28
 7632 0f38 94       		.byte	0x94
 7633 0f39 02       		.byte	0x2
 7634 0f3a 0A       		.byte	0xa
 7635 0f3b FFFF     		.2byte	0xffff
 7636 0f3d 1A       		.byte	0x1a
 7637 0f3e F3       		.byte	0xf3
 7638 0f3f 01       		.uleb128 0x1
 7639 0f40 52       		.byte	0x52
 7640 0f41 1A       		.byte	0x1a
 7641 0f42 74       		.byte	0x74
 7642 0f43 2C       		.sleb128 44
 7643 0f44 94       		.byte	0x94
 7644 0f45 02       		.byte	0x2
 7645 0f46 0A       		.byte	0xa
 7646 0f47 FFFF     		.2byte	0xffff
 7647 0f49 1A       		.byte	0x1a
 7648 0f4a 22       		.byte	0x22
 7649 0f4b 9F       		.byte	0x9f
 7650 0f4c 34000000 		.4byte	.LVL260
 7651 0f50 36000000 		.4byte	.LVL261
 7652 0f54 0600     		.2byte	0x6
 7653 0f56 71       		.byte	0x71
 7654 0f57 00       		.sleb128 0
 7655 0f58 72       		.byte	0x72
 7656 0f59 00       		.sleb128 0
 7657 0f5a 22       		.byte	0x22
 7658 0f5b 9F       		.byte	0x9f
 7659 0f5c 36000000 		.4byte	.LVL261
 7660 0f60 38000000 		.4byte	.LVL262
 7661 0f64 0C00     		.2byte	0xc
 7662 0f66 74       		.byte	0x74
 7663 0f67 2C       		.sleb128 44
 7664 0f68 94       		.byte	0x94
 7665 0f69 02       		.byte	0x2
 7666 0f6a 0A       		.byte	0xa
 7667 0f6b FFFF     		.2byte	0xffff
 7668 0f6d 1A       		.byte	0x1a
 7669 0f6e 72       		.byte	0x72
 7670 0f6f 00       		.sleb128 0
 7671 0f70 22       		.byte	0x22
 7672 0f71 9F       		.byte	0x9f
 7673 0f72 00000000 		.4byte	0
 7674 0f76 00000000 		.4byte	0
 7675              	.LLST106:
ARM GAS  C:\Users\atsu\AppData\Local\Temp\ccNplIXy.s 			page 151


 7676 0f7a 00000000 		.4byte	.LVL248
 7677 0f7e 06000000 		.4byte	.LVL249
 7678 0f82 0100     		.2byte	0x1
 7679 0f84 50       		.byte	0x50
 7680 0f85 00000000 		.4byte	0
 7681 0f89 00000000 		.4byte	0
 7682              	.LLST107:
 7683 0f8d 00000000 		.4byte	.LFB75
 7684 0f91 02000000 		.4byte	.LCFI36
 7685 0f95 0200     		.2byte	0x2
 7686 0f97 7D       		.byte	0x7d
 7687 0f98 00       		.sleb128 0
 7688 0f99 02000000 		.4byte	.LCFI36
 7689 0f9d 50000000 		.4byte	.LFE75
 7690 0fa1 0200     		.2byte	0x2
 7691 0fa3 7D       		.byte	0x7d
 7692 0fa4 20       		.sleb128 32
 7693 0fa5 00000000 		.4byte	0
 7694 0fa9 00000000 		.4byte	0
 7695              	.LLST108:
 7696 0fad 00000000 		.4byte	.LVL264
 7697 0fb1 08000000 		.4byte	.LVL265
 7698 0fb5 0100     		.2byte	0x1
 7699 0fb7 50       		.byte	0x50
 7700 0fb8 08000000 		.4byte	.LVL265
 7701 0fbc 50000000 		.4byte	.LFE75
 7702 0fc0 0400     		.2byte	0x4
 7703 0fc2 F3       		.byte	0xf3
 7704 0fc3 01       		.uleb128 0x1
 7705 0fc4 50       		.byte	0x50
 7706 0fc5 9F       		.byte	0x9f
 7707 0fc6 00000000 		.4byte	0
 7708 0fca 00000000 		.4byte	0
 7709              	.LLST109:
 7710 0fce 00000000 		.4byte	.LVL264
 7711 0fd2 19000000 		.4byte	.LVL266-1
 7712 0fd6 0100     		.2byte	0x1
 7713 0fd8 51       		.byte	0x51
 7714 0fd9 19000000 		.4byte	.LVL266-1
 7715 0fdd 50000000 		.4byte	.LFE75
 7716 0fe1 0200     		.2byte	0x2
 7717 0fe3 91       		.byte	0x91
 7718 0fe4 64       		.sleb128 -28
 7719 0fe5 00000000 		.4byte	0
 7720 0fe9 00000000 		.4byte	0
 7721              	.LLST110:
 7722 0fed 00000000 		.4byte	.LVL264
 7723 0ff1 19000000 		.4byte	.LVL266-1
 7724 0ff5 0100     		.2byte	0x1
 7725 0ff7 52       		.byte	0x52
 7726 0ff8 19000000 		.4byte	.LVL266-1
 7727 0ffc 50000000 		.4byte	.LFE75
 7728 1000 0400     		.2byte	0x4
 7729 1002 F3       		.byte	0xf3
 7730 1003 01       		.uleb128 0x1
 7731 1004 52       		.byte	0x52
 7732 1005 9F       		.byte	0x9f
ARM GAS  C:\Users\atsu\AppData\Local\Temp\ccNplIXy.s 			page 152


 7733 1006 00000000 		.4byte	0
 7734 100a 00000000 		.4byte	0
 7735              	.LLST111:
 7736 100e 20000000 		.4byte	.LVL267
 7737 1012 22000000 		.4byte	.LVL268
 7738 1016 0600     		.2byte	0x6
 7739 1018 70       		.byte	0x70
 7740 1019 00       		.sleb128 0
 7741 101a 08       		.byte	0x8
 7742 101b FF       		.byte	0xff
 7743 101c 1A       		.byte	0x1a
 7744 101d 9F       		.byte	0x9f
 7745 101e 22000000 		.4byte	.LVL268
 7746 1022 2C000000 		.4byte	.LVL270
 7747 1026 0600     		.2byte	0x6
 7748 1028 76       		.byte	0x76
 7749 1029 00       		.sleb128 0
 7750 102a 08       		.byte	0x8
 7751 102b FF       		.byte	0xff
 7752 102c 1A       		.byte	0x1a
 7753 102d 9F       		.byte	0x9f
 7754 102e 2C000000 		.4byte	.LVL270
 7755 1032 37000000 		.4byte	.LVL271-1
 7756 1036 0100     		.2byte	0x1
 7757 1038 52       		.byte	0x52
 7758 1039 37000000 		.4byte	.LVL271-1
 7759 103d 40000000 		.4byte	.LVL272
 7760 1041 0100     		.2byte	0x1
 7761 1043 56       		.byte	0x56
 7762 1044 40000000 		.4byte	.LVL272
 7763 1048 4E000000 		.4byte	.LVL275
 7764 104c 0100     		.2byte	0x1
 7765 104e 57       		.byte	0x57
 7766 104f 00000000 		.4byte	0
 7767 1053 00000000 		.4byte	0
 7768              	.LLST112:
 7769 1057 00000000 		.4byte	.LFB78
 7770 105b 02000000 		.4byte	.LCFI37
 7771 105f 0200     		.2byte	0x2
 7772 1061 7D       		.byte	0x7d
 7773 1062 00       		.sleb128 0
 7774 1063 02000000 		.4byte	.LCFI37
 7775 1067 44000000 		.4byte	.LFE78
 7776 106b 0200     		.2byte	0x2
 7777 106d 7D       		.byte	0x7d
 7778 106e 18       		.sleb128 24
 7779 106f 00000000 		.4byte	0
 7780 1073 00000000 		.4byte	0
 7781              	.LLST113:
 7782 1077 00000000 		.4byte	.LVL276
 7783 107b 06000000 		.4byte	.LVL277
 7784 107f 0100     		.2byte	0x1
 7785 1081 50       		.byte	0x50
 7786 1082 06000000 		.4byte	.LVL277
 7787 1086 44000000 		.4byte	.LFE78
 7788 108a 0400     		.2byte	0x4
 7789 108c F3       		.byte	0xf3
ARM GAS  C:\Users\atsu\AppData\Local\Temp\ccNplIXy.s 			page 153


 7790 108d 01       		.uleb128 0x1
 7791 108e 50       		.byte	0x50
 7792 108f 9F       		.byte	0x9f
 7793 1090 00000000 		.4byte	0
 7794 1094 00000000 		.4byte	0
 7795              	.LLST114:
 7796 1098 00000000 		.4byte	.LVL276
 7797 109c 10000000 		.4byte	.LVL279
 7798 10a0 0100     		.2byte	0x1
 7799 10a2 51       		.byte	0x51
 7800 10a3 10000000 		.4byte	.LVL279
 7801 10a7 44000000 		.4byte	.LFE78
 7802 10ab 0400     		.2byte	0x4
 7803 10ad F3       		.byte	0xf3
 7804 10ae 01       		.uleb128 0x1
 7805 10af 51       		.byte	0x51
 7806 10b0 9F       		.byte	0x9f
 7807 10b1 00000000 		.4byte	0
 7808 10b5 00000000 		.4byte	0
 7809              	.LLST115:
 7810 10b9 00000000 		.4byte	.LVL276
 7811 10bd 0E000000 		.4byte	.LVL278
 7812 10c1 0100     		.2byte	0x1
 7813 10c3 52       		.byte	0x52
 7814 10c4 0E000000 		.4byte	.LVL278
 7815 10c8 2A000000 		.4byte	.LVL287
 7816 10cc 0100     		.2byte	0x1
 7817 10ce 56       		.byte	0x56
 7818 10cf 2A000000 		.4byte	.LVL287
 7819 10d3 2E000000 		.4byte	.LVL288
 7820 10d7 0A00     		.2byte	0xa
 7821 10d9 77       		.byte	0x77
 7822 10da 00       		.sleb128 0
 7823 10db 0A       		.byte	0xa
 7824 10dc FFFF     		.2byte	0xffff
 7825 10de 1A       		.byte	0x1a
 7826 10df 76       		.byte	0x76
 7827 10e0 00       		.sleb128 0
 7828 10e1 22       		.byte	0x22
 7829 10e2 9F       		.byte	0x9f
 7830 10e3 2E000000 		.4byte	.LVL288
 7831 10e7 34000000 		.4byte	.LVL289
 7832 10eb 0B00     		.2byte	0xb
 7833 10ed 77       		.byte	0x77
 7834 10ee 00       		.sleb128 0
 7835 10ef 0A       		.byte	0xa
 7836 10f0 FFFF     		.2byte	0xffff
 7837 10f2 1A       		.byte	0x1a
 7838 10f3 F3       		.byte	0xf3
 7839 10f4 01       		.uleb128 0x1
 7840 10f5 52       		.byte	0x52
 7841 10f6 22       		.byte	0x22
 7842 10f7 9F       		.byte	0x9f
 7843 10f8 34000000 		.4byte	.LVL289
 7844 10fc 38000000 		.4byte	.LVL291
 7845 1100 0100     		.2byte	0x1
 7846 1102 56       		.byte	0x56
ARM GAS  C:\Users\atsu\AppData\Local\Temp\ccNplIXy.s 			page 154


 7847 1103 00000000 		.4byte	0
 7848 1107 00000000 		.4byte	0
 7849              	.LLST116:
 7850 110b 00000000 		.4byte	.LVL276
 7851 110f 18000000 		.4byte	.LVL281
 7852 1113 0100     		.2byte	0x1
 7853 1115 53       		.byte	0x53
 7854 1116 18000000 		.4byte	.LVL281
 7855 111a 44000000 		.4byte	.LFE78
 7856 111e 0400     		.2byte	0x4
 7857 1120 F3       		.byte	0xf3
 7858 1121 01       		.uleb128 0x1
 7859 1122 53       		.byte	0x53
 7860 1123 9F       		.byte	0x9f
 7861 1124 00000000 		.4byte	0
 7862 1128 00000000 		.4byte	0
 7863              	.LLST117:
 7864 112c 22000000 		.4byte	.LVL284
 7865 1130 26000000 		.4byte	.LVL286
 7866 1134 0100     		.2byte	0x1
 7867 1136 51       		.byte	0x51
 7868 1137 26000000 		.4byte	.LVL286
 7869 113b 29000000 		.4byte	.LVL287-1
 7870 113f 0100     		.2byte	0x1
 7871 1141 52       		.byte	0x52
 7872 1142 29000000 		.4byte	.LVL287-1
 7873 1146 2A000000 		.4byte	.LVL287
 7874 114a 0100     		.2byte	0x1
 7875 114c 57       		.byte	0x57
 7876 114d 2A000000 		.4byte	.LVL287
 7877 1151 34000000 		.4byte	.LVL289
 7878 1155 0600     		.2byte	0x6
 7879 1157 75       		.byte	0x75
 7880 1158 00       		.sleb128 0
 7881 1159 77       		.byte	0x77
 7882 115a 00       		.sleb128 0
 7883 115b 1C       		.byte	0x1c
 7884 115c 9F       		.byte	0x9f
 7885 115d 00000000 		.4byte	0
 7886 1161 00000000 		.4byte	0
 7887              	.LLST118:
 7888 1165 10000000 		.4byte	.LVL279
 7889 1169 20000000 		.4byte	.LVL283
 7890 116d 0100     		.2byte	0x1
 7891 116f 51       		.byte	0x51
 7892 1170 20000000 		.4byte	.LVL283
 7893 1174 29000000 		.4byte	.LVL287-1
 7894 1178 0D00     		.2byte	0xd
 7895 117a 74       		.byte	0x74
 7896 117b 14       		.sleb128 20
 7897 117c 94       		.byte	0x94
 7898 117d 02       		.byte	0x2
 7899 117e 0A       		.byte	0xa
 7900 117f FFFF     		.2byte	0xffff
 7901 1181 1A       		.byte	0x1a
 7902 1182 F3       		.byte	0xf3
 7903 1183 01       		.uleb128 0x1
ARM GAS  C:\Users\atsu\AppData\Local\Temp\ccNplIXy.s 			page 155


 7904 1184 51       		.byte	0x51
 7905 1185 1A       		.byte	0x1a
 7906 1186 9F       		.byte	0x9f
 7907 1187 34000000 		.4byte	.LVL289
 7908 118b 36000000 		.4byte	.LVL290
 7909 118f 0100     		.2byte	0x1
 7910 1191 51       		.byte	0x51
 7911 1192 36000000 		.4byte	.LVL290
 7912 1196 38000000 		.4byte	.LVL291
 7913 119a 0D00     		.2byte	0xd
 7914 119c 74       		.byte	0x74
 7915 119d 14       		.sleb128 20
 7916 119e 94       		.byte	0x94
 7917 119f 02       		.byte	0x2
 7918 11a0 0A       		.byte	0xa
 7919 11a1 FFFF     		.2byte	0xffff
 7920 11a3 1A       		.byte	0x1a
 7921 11a4 F3       		.byte	0xf3
 7922 11a5 01       		.uleb128 0x1
 7923 11a6 51       		.byte	0x51
 7924 11a7 1A       		.byte	0x1a
 7925 11a8 9F       		.byte	0x9f
 7926 11a9 00000000 		.4byte	0
 7927 11ad 00000000 		.4byte	0
 7928              	.LLST119:
 7929 11b1 16000000 		.4byte	.LVL280
 7930 11b5 1A000000 		.4byte	.LVL282
 7931 11b9 0100     		.2byte	0x1
 7932 11bb 50       		.byte	0x50
 7933 11bc 1A000000 		.4byte	.LVL282
 7934 11c0 20000000 		.4byte	.LVL283
 7935 11c4 0600     		.2byte	0x6
 7936 11c6 72       		.byte	0x72
 7937 11c7 00       		.sleb128 0
 7938 11c8 71       		.byte	0x71
 7939 11c9 00       		.sleb128 0
 7940 11ca 22       		.byte	0x22
 7941 11cb 9F       		.byte	0x9f
 7942 11cc 20000000 		.4byte	.LVL283
 7943 11d0 24000000 		.4byte	.LVL285
 7944 11d4 1000     		.2byte	0x10
 7945 11d6 74       		.byte	0x74
 7946 11d7 14       		.sleb128 20
 7947 11d8 94       		.byte	0x94
 7948 11d9 02       		.byte	0x2
 7949 11da 0A       		.byte	0xa
 7950 11db FFFF     		.2byte	0xffff
 7951 11dd 1A       		.byte	0x1a
 7952 11de F3       		.byte	0xf3
 7953 11df 01       		.uleb128 0x1
 7954 11e0 51       		.byte	0x51
 7955 11e1 1A       		.byte	0x1a
 7956 11e2 72       		.byte	0x72
 7957 11e3 00       		.sleb128 0
 7958 11e4 22       		.byte	0x22
 7959 11e5 9F       		.byte	0x9f
 7960 11e6 24000000 		.4byte	.LVL285
ARM GAS  C:\Users\atsu\AppData\Local\Temp\ccNplIXy.s 			page 156


 7961 11ea 29000000 		.4byte	.LVL287-1
 7962 11ee 1600     		.2byte	0x16
 7963 11f0 74       		.byte	0x74
 7964 11f1 14       		.sleb128 20
 7965 11f2 94       		.byte	0x94
 7966 11f3 02       		.byte	0x2
 7967 11f4 0A       		.byte	0xa
 7968 11f5 FFFF     		.2byte	0xffff
 7969 11f7 1A       		.byte	0x1a
 7970 11f8 F3       		.byte	0xf3
 7971 11f9 01       		.uleb128 0x1
 7972 11fa 51       		.byte	0x51
 7973 11fb 1A       		.byte	0x1a
 7974 11fc 74       		.byte	0x74
 7975 11fd 24       		.sleb128 36
 7976 11fe 94       		.byte	0x94
 7977 11ff 02       		.byte	0x2
 7978 1200 0A       		.byte	0xa
 7979 1201 FFFF     		.2byte	0xffff
 7980 1203 1A       		.byte	0x1a
 7981 1204 22       		.byte	0x22
 7982 1205 9F       		.byte	0x9f
 7983 1206 34000000 		.4byte	.LVL289
 7984 120a 36000000 		.4byte	.LVL290
 7985 120e 0600     		.2byte	0x6
 7986 1210 72       		.byte	0x72
 7987 1211 00       		.sleb128 0
 7988 1212 71       		.byte	0x71
 7989 1213 00       		.sleb128 0
 7990 1214 22       		.byte	0x22
 7991 1215 9F       		.byte	0x9f
 7992 1216 36000000 		.4byte	.LVL290
 7993 121a 38000000 		.4byte	.LVL291
 7994 121e 1000     		.2byte	0x10
 7995 1220 74       		.byte	0x74
 7996 1221 14       		.sleb128 20
 7997 1222 94       		.byte	0x94
 7998 1223 02       		.byte	0x2
 7999 1224 0A       		.byte	0xa
 8000 1225 FFFF     		.2byte	0xffff
 8001 1227 1A       		.byte	0x1a
 8002 1228 F3       		.byte	0xf3
 8003 1229 01       		.uleb128 0x1
 8004 122a 51       		.byte	0x51
 8005 122b 1A       		.byte	0x1a
 8006 122c 72       		.byte	0x72
 8007 122d 00       		.sleb128 0
 8008 122e 22       		.byte	0x22
 8009 122f 9F       		.byte	0x9f
 8010 1230 00000000 		.4byte	0
 8011 1234 00000000 		.4byte	0
 8012              	.LLST120:
 8013 1238 00000000 		.4byte	.LVL276
 8014 123c 06000000 		.4byte	.LVL277
 8015 1240 0100     		.2byte	0x1
 8016 1242 50       		.byte	0x50
 8017 1243 00000000 		.4byte	0
ARM GAS  C:\Users\atsu\AppData\Local\Temp\ccNplIXy.s 			page 157


 8018 1247 00000000 		.4byte	0
 8019              	.LLST121:
 8020 124b 00000000 		.4byte	.LFB76
 8021 124f 02000000 		.4byte	.LCFI38
 8022 1253 0200     		.2byte	0x2
 8023 1255 7D       		.byte	0x7d
 8024 1256 00       		.sleb128 0
 8025 1257 02000000 		.4byte	.LCFI38
 8026 125b 50000000 		.4byte	.LFE76
 8027 125f 0200     		.2byte	0x2
 8028 1261 7D       		.byte	0x7d
 8029 1262 20       		.sleb128 32
 8030 1263 00000000 		.4byte	0
 8031 1267 00000000 		.4byte	0
 8032              	.LLST122:
 8033 126b 00000000 		.4byte	.LVL293
 8034 126f 08000000 		.4byte	.LVL294
 8035 1273 0100     		.2byte	0x1
 8036 1275 50       		.byte	0x50
 8037 1276 08000000 		.4byte	.LVL294
 8038 127a 50000000 		.4byte	.LFE76
 8039 127e 0400     		.2byte	0x4
 8040 1280 F3       		.byte	0xf3
 8041 1281 01       		.uleb128 0x1
 8042 1282 50       		.byte	0x50
 8043 1283 9F       		.byte	0x9f
 8044 1284 00000000 		.4byte	0
 8045 1288 00000000 		.4byte	0
 8046              	.LLST123:
 8047 128c 00000000 		.4byte	.LVL293
 8048 1290 19000000 		.4byte	.LVL295-1
 8049 1294 0100     		.2byte	0x1
 8050 1296 51       		.byte	0x51
 8051 1297 19000000 		.4byte	.LVL295-1
 8052 129b 50000000 		.4byte	.LFE76
 8053 129f 0200     		.2byte	0x2
 8054 12a1 91       		.byte	0x91
 8055 12a2 64       		.sleb128 -28
 8056 12a3 00000000 		.4byte	0
 8057 12a7 00000000 		.4byte	0
 8058              	.LLST124:
 8059 12ab 00000000 		.4byte	.LVL293
 8060 12af 19000000 		.4byte	.LVL295-1
 8061 12b3 0100     		.2byte	0x1
 8062 12b5 52       		.byte	0x52
 8063 12b6 19000000 		.4byte	.LVL295-1
 8064 12ba 50000000 		.4byte	.LFE76
 8065 12be 0400     		.2byte	0x4
 8066 12c0 F3       		.byte	0xf3
 8067 12c1 01       		.uleb128 0x1
 8068 12c2 52       		.byte	0x52
 8069 12c3 9F       		.byte	0x9f
 8070 12c4 00000000 		.4byte	0
 8071 12c8 00000000 		.4byte	0
 8072              	.LLST125:
 8073 12cc 20000000 		.4byte	.LVL296
 8074 12d0 22000000 		.4byte	.LVL297
ARM GAS  C:\Users\atsu\AppData\Local\Temp\ccNplIXy.s 			page 158


 8075 12d4 0600     		.2byte	0x6
 8076 12d6 70       		.byte	0x70
 8077 12d7 00       		.sleb128 0
 8078 12d8 08       		.byte	0x8
 8079 12d9 FF       		.byte	0xff
 8080 12da 1A       		.byte	0x1a
 8081 12db 9F       		.byte	0x9f
 8082 12dc 22000000 		.4byte	.LVL297
 8083 12e0 2C000000 		.4byte	.LVL299
 8084 12e4 0600     		.2byte	0x6
 8085 12e6 76       		.byte	0x76
 8086 12e7 00       		.sleb128 0
 8087 12e8 08       		.byte	0x8
 8088 12e9 FF       		.byte	0xff
 8089 12ea 1A       		.byte	0x1a
 8090 12eb 9F       		.byte	0x9f
 8091 12ec 2C000000 		.4byte	.LVL299
 8092 12f0 30000000 		.4byte	.LVL300
 8093 12f4 0100     		.2byte	0x1
 8094 12f6 52       		.byte	0x52
 8095 12f7 30000000 		.4byte	.LVL300
 8096 12fb 40000000 		.4byte	.LVL302
 8097 12ff 0100     		.2byte	0x1
 8098 1301 56       		.byte	0x56
 8099 1302 40000000 		.4byte	.LVL302
 8100 1306 4E000000 		.4byte	.LVL305
 8101 130a 0100     		.2byte	0x1
 8102 130c 57       		.byte	0x57
 8103 130d 00000000 		.4byte	0
 8104 1311 00000000 		.4byte	0
 8105              		.section	.debug_aranges,"",%progbits
 8106 0000 84010000 		.4byte	0x184
 8107 0004 0200     		.2byte	0x2
 8108 0006 00000000 		.4byte	.Ldebug_info0
 8109 000a 04       		.byte	0x4
 8110 000b 00       		.byte	0
 8111 000c 0000     		.2byte	0
 8112 000e 0000     		.2byte	0
 8113 0010 00000000 		.4byte	.LFB33
 8114 0014 16000000 		.4byte	.LFE33-.LFB33
 8115 0018 00000000 		.4byte	.LFB34
 8116 001c 0C000000 		.4byte	.LFE34-.LFB34
 8117 0020 00000000 		.4byte	.LFB35
 8118 0024 0C000000 		.4byte	.LFE35-.LFB35
 8119 0028 00000000 		.4byte	.LFB36
 8120 002c 10000000 		.4byte	.LFE36-.LFB36
 8121 0030 00000000 		.4byte	.LFB37
 8122 0034 10000000 		.4byte	.LFE37-.LFB37
 8123 0038 00000000 		.4byte	.LFB38
 8124 003c 10000000 		.4byte	.LFE38-.LFB38
 8125 0040 00000000 		.4byte	.LFB39
 8126 0044 10000000 		.4byte	.LFE39-.LFB39
 8127 0048 00000000 		.4byte	.LFB40
 8128 004c 10000000 		.4byte	.LFE40-.LFB40
 8129 0050 00000000 		.4byte	.LFB41
 8130 0054 10000000 		.4byte	.LFE41-.LFB41
 8131 0058 00000000 		.4byte	.LFB42
ARM GAS  C:\Users\atsu\AppData\Local\Temp\ccNplIXy.s 			page 159


 8132 005c 32000000 		.4byte	.LFE42-.LFB42
 8133 0060 00000000 		.4byte	.LFB43
 8134 0064 30000000 		.4byte	.LFE43-.LFB43
 8135 0068 00000000 		.4byte	.LFB44
 8136 006c 46000000 		.4byte	.LFE44-.LFB44
 8137 0070 00000000 		.4byte	.LFB45
 8138 0074 44000000 		.4byte	.LFE45-.LFB45
 8139 0078 00000000 		.4byte	.LFB47
 8140 007c 40010000 		.4byte	.LFE47-.LFB47
 8141 0080 00000000 		.4byte	.LFB48
 8142 0084 0E000000 		.4byte	.LFE48-.LFB48
 8143 0088 00000000 		.4byte	.LFB46
 8144 008c 16000000 		.4byte	.LFE46-.LFB46
 8145 0090 00000000 		.4byte	.LFB49
 8146 0094 26000000 		.4byte	.LFE49-.LFB49
 8147 0098 00000000 		.4byte	.LFB50
 8148 009c 26000000 		.4byte	.LFE50-.LFB50
 8149 00a0 00000000 		.4byte	.LFB51
 8150 00a4 26000000 		.4byte	.LFE51-.LFB51
 8151 00a8 00000000 		.4byte	.LFB52
 8152 00ac 36000000 		.4byte	.LFE52-.LFB52
 8153 00b0 00000000 		.4byte	.LFB53
 8154 00b4 26000000 		.4byte	.LFE53-.LFB53
 8155 00b8 00000000 		.4byte	.LFB54
 8156 00bc 0A000000 		.4byte	.LFE54-.LFB54
 8157 00c0 00000000 		.4byte	.LFB55
 8158 00c4 16000000 		.4byte	.LFE55-.LFB55
 8159 00c8 00000000 		.4byte	.LFB56
 8160 00cc 0C000000 		.4byte	.LFE56-.LFB56
 8161 00d0 00000000 		.4byte	.LFB57
 8162 00d4 0C000000 		.4byte	.LFE57-.LFB57
 8163 00d8 00000000 		.4byte	.LFB58
 8164 00dc 26000000 		.4byte	.LFE58-.LFB58
 8165 00e0 00000000 		.4byte	.LFB59
 8166 00e4 26000000 		.4byte	.LFE59-.LFB59
 8167 00e8 00000000 		.4byte	.LFB60
 8168 00ec 36000000 		.4byte	.LFE60-.LFB60
 8169 00f0 00000000 		.4byte	.LFB61
 8170 00f4 26000000 		.4byte	.LFE61-.LFB61
 8171 00f8 00000000 		.4byte	.LFB62
 8172 00fc 4E000000 		.4byte	.LFE62-.LFB62
 8173 0100 00000000 		.4byte	.LFB63
 8174 0104 4E000000 		.4byte	.LFE63-.LFB63
 8175 0108 00000000 		.4byte	.LFB64
 8176 010c 3A000000 		.4byte	.LFE64-.LFB64
 8177 0110 00000000 		.4byte	.LFB65
 8178 0114 3A000000 		.4byte	.LFE65-.LFB65
 8179 0118 00000000 		.4byte	.LFB66
 8180 011c 22000000 		.4byte	.LFE66-.LFB66
 8181 0120 00000000 		.4byte	.LFB67
 8182 0124 22000000 		.4byte	.LFE67-.LFB67
 8183 0128 00000000 		.4byte	.LFB68
 8184 012c 22000000 		.4byte	.LFE68-.LFB68
 8185 0130 00000000 		.4byte	.LFB69
 8186 0134 14000000 		.4byte	.LFE69-.LFB69
 8187 0138 00000000 		.4byte	.LFB70
 8188 013c 14000000 		.4byte	.LFE70-.LFB70
ARM GAS  C:\Users\atsu\AppData\Local\Temp\ccNplIXy.s 			page 160


 8189 0140 00000000 		.4byte	.LFB71
 8190 0144 14000000 		.4byte	.LFE71-.LFB71
 8191 0148 00000000 		.4byte	.LFB72
 8192 014c 14000000 		.4byte	.LFE72-.LFB72
 8193 0150 00000000 		.4byte	.LFB73
 8194 0154 48000000 		.4byte	.LFE73-.LFB73
 8195 0158 00000000 		.4byte	.LFB74
 8196 015c 48000000 		.4byte	.LFE74-.LFB74
 8197 0160 00000000 		.4byte	.LFB77
 8198 0164 44000000 		.4byte	.LFE77-.LFB77
 8199 0168 00000000 		.4byte	.LFB75
 8200 016c 50000000 		.4byte	.LFE75-.LFB75
 8201 0170 00000000 		.4byte	.LFB78
 8202 0174 44000000 		.4byte	.LFE78-.LFB78
 8203 0178 00000000 		.4byte	.LFB76
 8204 017c 50000000 		.4byte	.LFE76-.LFB76
 8205 0180 00000000 		.4byte	0
 8206 0184 00000000 		.4byte	0
 8207              		.section	.debug_ranges,"",%progbits
 8208              	.Ldebug_ranges0:
 8209 0000 00000000 		.4byte	.LFB33
 8210 0004 16000000 		.4byte	.LFE33
 8211 0008 00000000 		.4byte	.LFB34
 8212 000c 0C000000 		.4byte	.LFE34
 8213 0010 00000000 		.4byte	.LFB35
 8214 0014 0C000000 		.4byte	.LFE35
 8215 0018 00000000 		.4byte	.LFB36
 8216 001c 10000000 		.4byte	.LFE36
 8217 0020 00000000 		.4byte	.LFB37
 8218 0024 10000000 		.4byte	.LFE37
 8219 0028 00000000 		.4byte	.LFB38
 8220 002c 10000000 		.4byte	.LFE38
 8221 0030 00000000 		.4byte	.LFB39
 8222 0034 10000000 		.4byte	.LFE39
 8223 0038 00000000 		.4byte	.LFB40
 8224 003c 10000000 		.4byte	.LFE40
 8225 0040 00000000 		.4byte	.LFB41
 8226 0044 10000000 		.4byte	.LFE41
 8227 0048 00000000 		.4byte	.LFB42
 8228 004c 32000000 		.4byte	.LFE42
 8229 0050 00000000 		.4byte	.LFB43
 8230 0054 30000000 		.4byte	.LFE43
 8231 0058 00000000 		.4byte	.LFB44
 8232 005c 46000000 		.4byte	.LFE44
 8233 0060 00000000 		.4byte	.LFB45
 8234 0064 44000000 		.4byte	.LFE45
 8235 0068 00000000 		.4byte	.LFB47
 8236 006c 40010000 		.4byte	.LFE47
 8237 0070 00000000 		.4byte	.LFB48
 8238 0074 0E000000 		.4byte	.LFE48
 8239 0078 00000000 		.4byte	.LFB46
 8240 007c 16000000 		.4byte	.LFE46
 8241 0080 00000000 		.4byte	.LFB49
 8242 0084 26000000 		.4byte	.LFE49
 8243 0088 00000000 		.4byte	.LFB50
 8244 008c 26000000 		.4byte	.LFE50
 8245 0090 00000000 		.4byte	.LFB51
ARM GAS  C:\Users\atsu\AppData\Local\Temp\ccNplIXy.s 			page 161


 8246 0094 26000000 		.4byte	.LFE51
 8247 0098 00000000 		.4byte	.LFB52
 8248 009c 36000000 		.4byte	.LFE52
 8249 00a0 00000000 		.4byte	.LFB53
 8250 00a4 26000000 		.4byte	.LFE53
 8251 00a8 00000000 		.4byte	.LFB54
 8252 00ac 0A000000 		.4byte	.LFE54
 8253 00b0 00000000 		.4byte	.LFB55
 8254 00b4 16000000 		.4byte	.LFE55
 8255 00b8 00000000 		.4byte	.LFB56
 8256 00bc 0C000000 		.4byte	.LFE56
 8257 00c0 00000000 		.4byte	.LFB57
 8258 00c4 0C000000 		.4byte	.LFE57
 8259 00c8 00000000 		.4byte	.LFB58
 8260 00cc 26000000 		.4byte	.LFE58
 8261 00d0 00000000 		.4byte	.LFB59
 8262 00d4 26000000 		.4byte	.LFE59
 8263 00d8 00000000 		.4byte	.LFB60
 8264 00dc 36000000 		.4byte	.LFE60
 8265 00e0 00000000 		.4byte	.LFB61
 8266 00e4 26000000 		.4byte	.LFE61
 8267 00e8 00000000 		.4byte	.LFB62
 8268 00ec 4E000000 		.4byte	.LFE62
 8269 00f0 00000000 		.4byte	.LFB63
 8270 00f4 4E000000 		.4byte	.LFE63
 8271 00f8 00000000 		.4byte	.LFB64
 8272 00fc 3A000000 		.4byte	.LFE64
 8273 0100 00000000 		.4byte	.LFB65
 8274 0104 3A000000 		.4byte	.LFE65
 8275 0108 00000000 		.4byte	.LFB66
 8276 010c 22000000 		.4byte	.LFE66
 8277 0110 00000000 		.4byte	.LFB67
 8278 0114 22000000 		.4byte	.LFE67
 8279 0118 00000000 		.4byte	.LFB68
 8280 011c 22000000 		.4byte	.LFE68
 8281 0120 00000000 		.4byte	.LFB69
 8282 0124 14000000 		.4byte	.LFE69
 8283 0128 00000000 		.4byte	.LFB70
 8284 012c 14000000 		.4byte	.LFE70
 8285 0130 00000000 		.4byte	.LFB71
 8286 0134 14000000 		.4byte	.LFE71
 8287 0138 00000000 		.4byte	.LFB72
 8288 013c 14000000 		.4byte	.LFE72
 8289 0140 00000000 		.4byte	.LFB73
 8290 0144 48000000 		.4byte	.LFE73
 8291 0148 00000000 		.4byte	.LFB74
 8292 014c 48000000 		.4byte	.LFE74
 8293 0150 00000000 		.4byte	.LFB77
 8294 0154 44000000 		.4byte	.LFE77
 8295 0158 00000000 		.4byte	.LFB75
 8296 015c 50000000 		.4byte	.LFE75
 8297 0160 00000000 		.4byte	.LFB78
 8298 0164 44000000 		.4byte	.LFE78
 8299 0168 00000000 		.4byte	.LFB76
 8300 016c 50000000 		.4byte	.LFE76
 8301 0170 00000000 		.4byte	0
 8302 0174 00000000 		.4byte	0
ARM GAS  C:\Users\atsu\AppData\Local\Temp\ccNplIXy.s 			page 162


 8303              		.section	.debug_line,"",%progbits
 8304              	.Ldebug_line0:
 8305 0000 91050000 		.section	.debug_str,"MS",%progbits,1
 8305      02009200 
 8305      00000201 
 8305      FB0E0D00 
 8305      01010101 
 8306              	.LASF56:
 8307 0000 67657453 		.ascii	"getSUBR\000"
 8307      55425200 
 8308              	.LASF45:
 8309 0008 73657453 		.ascii	"setSUBR\000"
 8309      55425200 
 8310              	.LASF51:
 8311 0010 73657452 		.ascii	"setRCR\000"
 8311      435200
 8312              	.LASF67:
 8313 0017 73657453 		.ascii	"setSn_TTL\000"
 8313      6E5F5454 
 8313      4C00
 8314              	.LASF85:
 8315 0021 534D4153 		.ascii	"SMASK\000"
 8315      4B00
 8316              	.LASF40:
 8317 0027 7273756D 		.ascii	"rsum\000"
 8317      00
 8318              	.LASF89:
 8319 002c 53425546 		.ascii	"SBUFBASEADDRESS\000"
 8319      42415345 
 8319      41444452 
 8319      45535300 
 8320              	.LASF3:
 8321 003c 73686F72 		.ascii	"short int\000"
 8321      7420696E 
 8321      7400
 8322              	.LASF8:
 8323 0046 73697A65 		.ascii	"sizetype\000"
 8323      74797065 
 8323      00
 8324              	.LASF27:
 8325 004f 67657449 		.ascii	"getISR\000"
 8325      535200
 8326              	.LASF58:
 8327 0056 67657453 		.ascii	"getSIPR\000"
 8327      49505200 
 8328              	.LASF47:
 8329 005e 73657453 		.ascii	"setSIPR\000"
 8329      49505200 
 8330              	.LASF83:
 8331 0066 72656376 		.ascii	"recv_data_processing\000"
 8331      5F646174 
 8331      615F7072 
 8331      6F636573 
 8331      73696E67 
 8332              	.LASF60:
 8333 007b 73657453 		.ascii	"setSn_DHAR\000"
 8333      6E5F4448 
ARM GAS  C:\Users\atsu\AppData\Local\Temp\ccNplIXy.s 			page 163


 8333      415200
 8334              	.LASF88:
 8335 0086 5253495A 		.ascii	"RSIZE\000"
 8335      4500
 8336              	.LASF91:
 8337 008c 5350495F 		.ascii	"SPI_SpiUartGetRxBufferSize\000"
 8337      53706955 
 8337      61727447 
 8337      65745278 
 8337      42756666 
 8338              	.LASF52:
 8339 00a7 72657472 		.ascii	"retry\000"
 8339      7900
 8340              	.LASF42:
 8341 00ad 69696E63 		.ascii	"iinchip_init\000"
 8341      6869705F 
 8341      696E6974 
 8341      00
 8342              	.LASF33:
 8343 00ba 77697A5F 		.ascii	"wiz_write_buf\000"
 8343      77726974 
 8343      655F6275 
 8343      6600
 8344              	.LASF18:
 8345 00c8 7675696E 		.ascii	"vuint8\000"
 8345      743800
 8346              	.LASF97:
 8347 00cf 2E5C7735 		.ascii	".\\w5100.c\000"
 8347      3130302E 
 8347      6300
 8348              	.LASF79:
 8349 00d9 73656E64 		.ascii	"send_data_processing\000"
 8349      5F646174 
 8349      615F7072 
 8349      6F636573 
 8349      73696E67 
 8350              	.LASF80:
 8351 00ee 72656164 		.ascii	"read_data\000"
 8351      5F646174 
 8351      6100
 8352              	.LASF57:
 8353 00f8 67657453 		.ascii	"getSHAR\000"
 8353      48415200 
 8354              	.LASF15:
 8355 0100 696E7431 		.ascii	"int16\000"
 8355      3600
 8356              	.LASF46:
 8357 0106 73657453 		.ascii	"setSHAR\000"
 8357      48415200 
 8358              	.LASF49:
 8359 010e 73657452 		.ascii	"setRTR\000"
 8359      545200
 8360              	.LASF75:
 8361 0115 77726974 		.ascii	"write_data\000"
 8361      655F6461 
 8361      746100
 8362              	.LASF16:
ARM GAS  C:\Users\atsu\AppData\Local\Temp\ccNplIXy.s 			page 164


 8363 0120 666C6F61 		.ascii	"float\000"
 8363      7400
 8364              	.LASF94:
 8365 0126 5350495F 		.ascii	"SPI_CS_Write\000"
 8365      43535F57 
 8365      72697465 
 8365      00
 8366              	.LASF11:
 8367 0133 75696E74 		.ascii	"uint8\000"
 8367      3800
 8368              	.LASF5:
 8369 0139 6C6F6E67 		.ascii	"long long int\000"
 8369      206C6F6E 
 8369      6720696E 
 8369      7400
 8370              	.LASF39:
 8371 0147 7373756D 		.ascii	"ssum\000"
 8371      00
 8372              	.LASF20:
 8373 014c 67657449 		.ascii	"getIINCHIP_TxMASK\000"
 8373      494E4348 
 8373      49505F54 
 8373      784D4153 
 8373      4B00
 8374              	.LASF7:
 8375 015e 6C6F6E67 		.ascii	"long int\000"
 8375      20696E74 
 8375      00
 8376              	.LASF23:
 8377 0167 67657449 		.ascii	"getIINCHIP_RxMASK\000"
 8377      494E4348 
 8377      49505F52 
 8377      784D4153 
 8377      4B00
 8378              	.LASF30:
 8379 0179 61646472 		.ascii	"addr\000"
 8379      00
 8380              	.LASF14:
 8381 017e 696E7438 		.ascii	"int8\000"
 8381      00
 8382              	.LASF69:
 8383 0183 70726F74 		.ascii	"proto\000"
 8383      6F00
 8384              	.LASF53:
 8385 0189 73657449 		.ascii	"setIMR\000"
 8385      4D5200
 8386              	.LASF2:
 8387 0190 756E7369 		.ascii	"unsigned char\000"
 8387      676E6564 
 8387      20636861 
 8387      7200
 8388              	.LASF29:
 8389 019e 49494E43 		.ascii	"IINCHIP_WRITE\000"
 8389      4849505F 
 8389      57524954 
 8389      4500
 8390              	.LASF43:
ARM GAS  C:\Users\atsu\AppData\Local\Temp\ccNplIXy.s 			page 165


 8391 01ac 73657447 		.ascii	"setGAR\000"
 8391      415200
 8392              	.LASF32:
 8393 01b3 49494E43 		.ascii	"IINCHIP_READ\000"
 8393      4849505F 
 8393      52454144 
 8393      00
 8394              	.LASF21:
 8395 01c0 67657449 		.ascii	"getIINCHIP_TxBASE\000"
 8395      494E4348 
 8395      49505F54 
 8395      78424153 
 8395      4500
 8396              	.LASF70:
 8397 01d2 67657453 		.ascii	"getSn_IR\000"
 8397      6E5F4952 
 8397      00
 8398              	.LASF87:
 8399 01db 5353495A 		.ascii	"SSIZE\000"
 8399      4500
 8400              	.LASF41:
 8401 01e1 7365744D 		.ascii	"setMR\000"
 8401      5200
 8402              	.LASF92:
 8403 01e7 5350495F 		.ascii	"SPI_SpiUartReadRxData\000"
 8403      53706955 
 8403      61727452 
 8403      65616452 
 8403      78446174 
 8404              	.LASF1:
 8405 01fd 7369676E 		.ascii	"signed char\000"
 8405      65642063 
 8405      68617200 
 8406              	.LASF6:
 8407 0209 6C6F6E67 		.ascii	"long long unsigned int\000"
 8407      206C6F6E 
 8407      6720756E 
 8407      7369676E 
 8407      65642069 
 8408              	.LASF44:
 8409 0220 67657447 		.ascii	"getGWIP\000"
 8409      57495000 
 8410              	.LASF55:
 8411 0228 67657447 		.ascii	"getGAR\000"
 8411      415200
 8412              	.LASF0:
 8413 022f 756E7369 		.ascii	"unsigned int\000"
 8413      676E6564 
 8413      20696E74 
 8413      00
 8414              	.LASF61:
 8415 023c 67657453 		.ascii	"getSn_DIPR\000"
 8415      6E5F4449 
 8415      505200
 8416              	.LASF37:
 8417 0247 74785F73 		.ascii	"tx_size\000"
 8417      697A6500 
ARM GAS  C:\Users\atsu\AppData\Local\Temp\ccNplIXy.s 			page 166


 8418              	.LASF22:
 8419 024f 67657449 		.ascii	"getIINCHIP_TxMAX\000"
 8419      494E4348 
 8419      49505F54 
 8419      784D4158 
 8419      00
 8420              	.LASF65:
 8421 0260 73657453 		.ascii	"setSn_MSS\000"
 8421      6E5F4D53 
 8421      5300
 8422              	.LASF77:
 8423 026a 6473745F 		.ascii	"dst_mask\000"
 8423      6D61736B 
 8423      00
 8424              	.LASF4:
 8425 0273 73686F72 		.ascii	"short unsigned int\000"
 8425      7420756E 
 8425      7369676E 
 8425      65642069 
 8425      6E7400
 8426              	.LASF68:
 8427 0286 73657453 		.ascii	"setSn_PROTO\000"
 8427      6E5F5052 
 8427      4F544F00 
 8428              	.LASF10:
 8429 0292 63686172 		.ascii	"char\000"
 8429      00
 8430              	.LASF63:
 8431 0297 67657453 		.ascii	"getSn_DPORT\000"
 8431      6E5F4450 
 8431      4F525400 
 8432              	.LASF98:
 8433 02a3 433A5C55 		.ascii	"C:\\Users\\atsu\\Desktop\\Design01\\W5100_PSoC4_tes"
 8433      73657273 
 8433      5C617473 
 8433      755C4465 
 8433      736B746F 
 8434 02d1 742E6379 		.ascii	"t.cydsn\000"
 8434      64736E00 
 8435              	.LASF59:
 8436 02d9 67657453 		.ascii	"getSn_DHAR\000"
 8436      6E5F4448 
 8436      415200
 8437              	.LASF35:
 8438 02e4 70757449 		.ascii	"putISR\000"
 8438      535200
 8439              	.LASF26:
 8440 02eb 5350495F 		.ascii	"SPI_transfer\000"
 8440      7472616E 
 8440      73666572 
 8440      00
 8441              	.LASF25:
 8442 02f8 67657449 		.ascii	"getIINCHIP_RxMAX\000"
 8442      494E4348 
 8442      49505F52 
 8442      784D4158 
 8442      00
ARM GAS  C:\Users\atsu\AppData\Local\Temp\ccNplIXy.s 			page 167


 8443              	.LASF86:
 8444 0309 524D4153 		.ascii	"RMASK\000"
 8444      4B00
 8445              	.LASF31:
 8446 030f 64617461 		.ascii	"data\000"
 8446      00
 8447              	.LASF66:
 8448 0314 536E5F4D 		.ascii	"Sn_MSSR0\000"
 8448      53535230 
 8448      00
 8449              	.LASF12:
 8450 031d 75696E74 		.ascii	"uint16\000"
 8450      313600
 8451              	.LASF48:
 8452 0324 67657449 		.ascii	"getIR\000"
 8452      5200
 8453              	.LASF78:
 8454 032a 6473745F 		.ascii	"dst_ptr\000"
 8454      70747200 
 8455              	.LASF13:
 8456 0332 75696E74 		.ascii	"uint32\000"
 8456      333200
 8457              	.LASF38:
 8458 0339 72785F73 		.ascii	"rx_size\000"
 8458      697A6500 
 8459              	.LASF9:
 8460 0341 6C6F6E67 		.ascii	"long unsigned int\000"
 8460      20756E73 
 8460      69676E65 
 8460      6420696E 
 8460      7400
 8461              	.LASF72:
 8462 0353 67657453 		.ascii	"getSn_TX_FSR\000"
 8462      6E5F5458 
 8462      5F465352 
 8462      00
 8463              	.LASF17:
 8464 0360 646F7562 		.ascii	"double\000"
 8464      6C6500
 8465              	.LASF96:
 8466 0367 474E5520 		.ascii	"GNU C 4.7.3 20130312 (release) [ARM/embedded-4_7-br"
 8466      4320342E 
 8466      372E3320 
 8466      32303133 
 8466      30333132 
 8467 039a 616E6368 		.ascii	"anch revision 196615]\000"
 8467      20726576 
 8467      6973696F 
 8467      6E203139 
 8467      36363135 
 8468              	.LASF93:
 8469 03b0 5350495F 		.ascii	"SPI_SpiUartWriteTxData\000"
 8469      53706955 
 8469      61727457 
 8469      72697465 
 8469      54784461 
 8470              	.LASF76:
ARM GAS  C:\Users\atsu\AppData\Local\Temp\ccNplIXy.s 			page 168


 8471 03c7 73697A65 		.ascii	"size\000"
 8471      00
 8472              	.LASF28:
 8473 03cc 73656E64 		.ascii	"send_data\000"
 8473      5F646174 
 8473      6100
 8474              	.LASF81:
 8475 03d6 7372635F 		.ascii	"src_mask\000"
 8475      6D61736B 
 8475      00
 8476              	.LASF84:
 8477 03df 495F5354 		.ascii	"I_STATUS\000"
 8477      41545553 
 8477      00
 8478              	.LASF62:
 8479 03e8 73657453 		.ascii	"setSn_DIPR\000"
 8479      6E5F4449 
 8479      505200
 8480              	.LASF36:
 8481 03f3 73797369 		.ascii	"sysinit\000"
 8481      6E697400 
 8482              	.LASF99:
 8483 03fb 5350495F 		.ascii	"SPI_Start\000"
 8483      53746172 
 8483      7400
 8484              	.LASF71:
 8485 0405 67657453 		.ascii	"getSn_SR\000"
 8485      6E5F5352 
 8485      00
 8486              	.LASF19:
 8487 040e 534F434B 		.ascii	"SOCKET\000"
 8487      455400
 8488              	.LASF34:
 8489 0415 77697A5F 		.ascii	"wiz_read_buf\000"
 8489      72656164 
 8489      5F627566 
 8489      00
 8490              	.LASF73:
 8491 0422 76616C31 		.ascii	"val1\000"
 8491      00
 8492              	.LASF82:
 8493 0427 7372635F 		.ascii	"src_ptr\000"
 8493      70747200 
 8494              	.LASF95:
 8495 042f 43794465 		.ascii	"CyDelay\000"
 8495      6C617900 
 8496              	.LASF74:
 8497 0437 67657453 		.ascii	"getSn_RX_RSR\000"
 8497      6E5F5258 
 8497      5F525352 
 8497      00
 8498              	.LASF24:
 8499 0444 67657449 		.ascii	"getIINCHIP_RxBASE\000"
 8499      494E4348 
 8499      49505F52 
 8499      78424153 
 8499      4500
ARM GAS  C:\Users\atsu\AppData\Local\Temp\ccNplIXy.s 			page 169


 8500              	.LASF50:
 8501 0456 74696D65 		.ascii	"timeout\000"
 8501      6F757400 
 8502              	.LASF64:
 8503 045e 73657453 		.ascii	"setSn_DPORT\000"
 8503      6E5F4450 
 8503      4F525400 
 8504              	.LASF90:
 8505 046a 52425546 		.ascii	"RBUFBASEADDRESS\000"
 8505      42415345 
 8505      41444452 
 8505      45535300 
 8506              	.LASF54:
 8507 047a 6D61736B 		.ascii	"mask\000"
 8507      00
 8508              		.ident	"GCC: (GNU Tools for ARM Embedded Processors) 4.7.3 20130312 (release) [ARM/embedded-4_7-br
